                              1 ;--------------------------------------------------------
                              2 ; File Created by SDCC : free open source ANSI-C Compiler
                              3 ; Version 3.5.5 #9498 (Linux)
                              4 ;--------------------------------------------------------
                              5 	.module main
                              6 	.optsdcc -mz80
                              7 	
                              8 ;--------------------------------------------------------
                              9 ; Public variables in this module
                             10 ;--------------------------------------------------------
                             11 	.globl _main
                             12 	.globl _inicializarJuego
                             13 	.globl _inicializarCPC
                             14 	.globl _intHandler
                             15 	.globl _moverAbajo
                             16 	.globl _moverArriba
                             17 	.globl _moverDerecha
                             18 	.globl _moverIzquierda
                             19 	.globl _avanzarMapa
                             20 	.globl _inicializarEnemy
                             21 	.globl _updateEnemy
                             22 	.globl _engage
                             23 	.globl _moverEnemigoSeek
                             24 	.globl _lookFor
                             25 	.globl _moverEnemigoPatrol
                             26 	.globl _moverEnemigoIzquierda
                             27 	.globl _moverEnemigoDerecha
                             28 	.globl _moverEnemigoAbajo
                             29 	.globl _moverEnemigoArriba
                             30 	.globl _checkEnemyDead
                             31 	.globl _redibujarEnemigo
                             32 	.globl _borrarEnemigo
                             33 	.globl _borrarExplosion
                             34 	.globl _dibujarExplosion
                             35 	.globl _dibujarEnemigo
                             36 	.globl _checkCollision
                             37 	.globl _comprobarTeclado
                             38 	.globl _redibujarProta
                             39 	.globl _borrarProta
                             40 	.globl _dibujarProta
                             41 	.globl _dibujarMapa
                             42 	.globl _play
                             43 	.globl _pathFinding
                             44 	.globl _moverCuchillo
                             45 	.globl _lanzarCuchillo
                             46 	.globl _redibujarCuchillo
                             47 	.globl _borrarCuchillo
                             48 	.globl _abs
                             49 	.globl _getTilePtr
                             50 	.globl _aumentarPuntuacion
                             51 	.globl _modificarVidas
                             52 	.globl _modificarPuntuacion
                             53 	.globl _barraPuntuacionInicial
                             54 	.globl _menuInicio
                             55 	.globl _menuFin
                             56 	.globl _cpct_etm_setTileset2x4
                             57 	.globl _cpct_etm_drawTileBox2x4
                             58 	.globl _cpct_akp_musicInit
                             59 	.globl _cpct_getScreenPtr
                             60 	.globl _cpct_setPALColour
                             61 	.globl _cpct_setPalette
                             62 	.globl _cpct_waitVSYNC
                             63 	.globl _cpct_setVideoMode
                             64 	.globl _cpct_drawSpriteMaskedAlignedTable
                             65 	.globl _cpct_isAnyKeyPressed
                             66 	.globl _cpct_isKeyPressed
                             67 	.globl _cpct_scanKeyboard_if
                             68 	.globl _cpct_setInterruptHandler
                             69 	.globl _cpct_disableFirmware
                             70 	.globl _puntuacion
                             71 	.globl _num_mapa
                             72 	.globl _mapa
                             73 	.globl _i
                             74 	.globl _vidas
                             75 	.globl _timer
                             76 	.globl _cambio
                             77 	.globl _parpadeo
                             78 	.globl _cu
                             79 	.globl _prota
                             80 	.globl _enemy
                             81 	.globl _patrolY
                             82 	.globl _patrolX
                             83 	.globl _spawnY
                             84 	.globl _spawnX
                             85 	.globl _mapas
                             86 ;--------------------------------------------------------
                             87 ; special function registers
                             88 ;--------------------------------------------------------
                             89 ;--------------------------------------------------------
                             90 ; ram data
                             91 ;--------------------------------------------------------
                             92 	.area _DATA
   0000                      93 _enemy::
   0000                      94 	.ds 908
   038C                      95 _prota::
   038C                      96 	.ds 8
   0394                      97 _cu::
   0394                      98 	.ds 11
   039F                      99 _parpadeo::
   039F                     100 	.ds 1
   03A0                     101 _cambio::
   03A0                     102 	.ds 1
   03A1                     103 _timer::
   03A1                     104 	.ds 2
   03A3                     105 _vidas::
   03A3                     106 	.ds 1
   03A4                     107 _i::
   03A4                     108 	.ds 1
                            109 ;--------------------------------------------------------
                            110 ; ram data
                            111 ;--------------------------------------------------------
                            112 	.area _INITIALIZED
   0000                     113 _mapa::
   0000                     114 	.ds 2
   0002                     115 _num_mapa::
   0002                     116 	.ds 1
   0003                     117 _puntuacion::
   0003                     118 	.ds 1
                            119 ;--------------------------------------------------------
                            120 ; absolute external ram data
                            121 ;--------------------------------------------------------
                            122 	.area _DABS (ABS)
                            123 ;--------------------------------------------------------
                            124 ; global & static initialisations
                            125 ;--------------------------------------------------------
                            126 	.area _HOME
                            127 	.area _GSINIT
                            128 	.area _GSFINAL
                            129 	.area _GSINIT
                            130 ;--------------------------------------------------------
                            131 ; Home
                            132 ;--------------------------------------------------------
                            133 	.area _HOME
                            134 	.area _HOME
                            135 ;--------------------------------------------------------
                            136 ; code
                            137 ;--------------------------------------------------------
                            138 	.area _CODE
                            139 ;src/main.c:111: cpctm_createTransparentMaskTable(g_tablatrans, 0x0100, M0, 0);
                            140 ;	---------------------------------
                            141 ; Function dummy_cpct_transparentMaskTable0M0_container
                            142 ; ---------------------------------
   0000                     143 _dummy_cpct_transparentMaskTable0M0_container::
                            144 	.area _g_tablatrans_ (ABS) 
   0100                     145 	.org 0x0100 
   0100                     146 	 _g_tablatrans::
   0100 FF AA 55 00 AA AA   147 	.db 0xFF, 0xAA, 0x55, 0x00, 0xAA, 0xAA, 0x00, 0x00 
        00 00
   0108 55 00 55 00 00 00   148 	.db 0x55, 0x00, 0x55, 0x00, 0x00, 0x00, 0x00, 0x00 
        00 00
   0110 AA AA 00 00 AA AA   149 	.db 0xAA, 0xAA, 0x00, 0x00, 0xAA, 0xAA, 0x00, 0x00 
        00 00
   0118 00 00 00 00 00 00   150 	.db 0x00, 0x00, 0x00, 0x00, 0x00, 0x00, 0x00, 0x00 
        00 00
   0120 55 00 55 00 00 00   151 	.db 0x55, 0x00, 0x55, 0x00, 0x00, 0x00, 0x00, 0x00 
        00 00
   0128 55 00 55 00 00 00   152 	.db 0x55, 0x00, 0x55, 0x00, 0x00, 0x00, 0x00, 0x00 
        00 00
   0130 00 00 00 00 00 00   153 	.db 0x00, 0x00, 0x00, 0x00, 0x00, 0x00, 0x00, 0x00 
        00 00
   0138 00 00 00 00 00 00   154 	.db 0x00, 0x00, 0x00, 0x00, 0x00, 0x00, 0x00, 0x00 
        00 00
   0140 AA AA 00 00 AA AA   155 	.db 0xAA, 0xAA, 0x00, 0x00, 0xAA, 0xAA, 0x00, 0x00 
        00 00
   0148 00 00 00 00 00 00   156 	.db 0x00, 0x00, 0x00, 0x00, 0x00, 0x00, 0x00, 0x00 
        00 00
   0150 AA AA 00 00 AA AA   157 	.db 0xAA, 0xAA, 0x00, 0x00, 0xAA, 0xAA, 0x00, 0x00 
        00 00
   0158 00 00 00 00 00 00   158 	.db 0x00, 0x00, 0x00, 0x00, 0x00, 0x00, 0x00, 0x00 
        00 00
   0160 00 00 00 00 00 00   159 	.db 0x00, 0x00, 0x00, 0x00, 0x00, 0x00, 0x00, 0x00 
        00 00
   0168 00 00 00 00 00 00   160 	.db 0x00, 0x00, 0x00, 0x00, 0x00, 0x00, 0x00, 0x00 
        00 00
   0170 00 00 00 00 00 00   161 	.db 0x00, 0x00, 0x00, 0x00, 0x00, 0x00, 0x00, 0x00 
        00 00
   0178 00 00 00 00 00 00   162 	.db 0x00, 0x00, 0x00, 0x00, 0x00, 0x00, 0x00, 0x00 
        00 00
   0180 55 00 55 00 00 00   163 	.db 0x55, 0x00, 0x55, 0x00, 0x00, 0x00, 0x00, 0x00 
        00 00
   0188 55 00 55 00 00 00   164 	.db 0x55, 0x00, 0x55, 0x00, 0x00, 0x00, 0x00, 0x00 
        00 00
   0190 00 00 00 00 00 00   165 	.db 0x00, 0x00, 0x00, 0x00, 0x00, 0x00, 0x00, 0x00 
        00 00
   0198 00 00 00 00 00 00   166 	.db 0x00, 0x00, 0x00, 0x00, 0x00, 0x00, 0x00, 0x00 
        00 00
   01A0 55 00 55 00 00 00   167 	.db 0x55, 0x00, 0x55, 0x00, 0x00, 0x00, 0x00, 0x00 
        00 00
   01A8 55 00 55 00 00 00   168 	.db 0x55, 0x00, 0x55, 0x00, 0x00, 0x00, 0x00, 0x00 
        00 00
   01B0 00 00 00 00 00 00   169 	.db 0x00, 0x00, 0x00, 0x00, 0x00, 0x00, 0x00, 0x00 
        00 00
   01B8 00 00 00 00 00 00   170 	.db 0x00, 0x00, 0x00, 0x00, 0x00, 0x00, 0x00, 0x00 
        00 00
   01C0 00 00 00 00 00 00   171 	.db 0x00, 0x00, 0x00, 0x00, 0x00, 0x00, 0x00, 0x00 
        00 00
   01C8 00 00 00 00 00 00   172 	.db 0x00, 0x00, 0x00, 0x00, 0x00, 0x00, 0x00, 0x00 
        00 00
   01D0 00 00 00 00 00 00   173 	.db 0x00, 0x00, 0x00, 0x00, 0x00, 0x00, 0x00, 0x00 
        00 00
   01D8 00 00 00 00 00 00   174 	.db 0x00, 0x00, 0x00, 0x00, 0x00, 0x00, 0x00, 0x00 
        00 00
   01E0 00 00 00 00 00 00   175 	.db 0x00, 0x00, 0x00, 0x00, 0x00, 0x00, 0x00, 0x00 
        00 00
   01E8 00 00 00 00 00 00   176 	.db 0x00, 0x00, 0x00, 0x00, 0x00, 0x00, 0x00, 0x00 
        00 00
   01F0 00 00 00 00 00 00   177 	.db 0x00, 0x00, 0x00, 0x00, 0x00, 0x00, 0x00, 0x00 
        00 00
   01F8 00 00 00 00 00 00   178 	.db 0x00, 0x00, 0x00, 0x00, 0x00, 0x00, 0x00, 0x00 
        00 00
                            179 	.area _CSEG (REL, CON) 
                            180 ;src/main.c:114: void dibujarMapa() {
                            181 ;	---------------------------------
                            182 ; Function dibujarMapa
                            183 ; ---------------------------------
   0000                     184 _dibujarMapa::
                            185 ;src/main.c:117: cpct_etm_drawTilemap2x4 (g_map1_W, g_map1_H, p, mapa);
   0000 2Ar00r00      [16]  186 	ld	hl,(_mapa)
   0003 E5            [11]  187 	push	hl
   0004 21 F0 C0      [10]  188 	ld	hl,#0xC0F0
   0007 E5            [11]  189 	push	hl
   0008 21 2C 28      [10]  190 	ld	hl,#0x282C
   000B E5            [11]  191 	push	hl
   000C 2E 00         [ 7]  192 	ld	l, #0x00
   000E E5            [11]  193 	push	hl
   000F AF            [ 4]  194 	xor	a, a
   0010 F5            [11]  195 	push	af
   0011 33            [ 6]  196 	inc	sp
   0012 CDr00r00      [17]  197 	call	_cpct_etm_drawTileBox2x4
   0015 C9            [10]  198 	ret
   0016                     199 _mapas:
   0016r00r00               200 	.dw _g_map1
   0018r00r00               201 	.dw _g_map2
   001Ar00r00               202 	.dw _g_map3
   001C                     203 _spawnX:
   001C 24                  204 	.db #0x24	; 36
   001D 47                  205 	.db #0x47	; 71	'G'
   001E 30                  206 	.db #0x30	; 48	'0'
   001F 18                  207 	.db #0x18	; 24
   0020                     208 _spawnY:
   0020 2C                  209 	.db #0x2C	; 44
   0021 66                  210 	.db #0x66	; 102	'f'
   0022 9A                  211 	.db #0x9A	; 154
   0023 40                  212 	.db #0x40	; 64
   0024                     213 _patrolX:
   0024 00                  214 	.db #0x00	; 0
   0025 00                  215 	.db #0x00	; 0
   0026 00                  216 	.db #0x00	; 0
   0027 00                  217 	.db #0x00	; 0
   0028 00                  218 	.db #0x00	; 0
   0029 42                  219 	.db #0x42	; 66	'B'
   002A 33                  220 	.db #0x33	; 51	'3'
   002B 00                  221 	.db #0x00	; 0
   002C 00                  222 	.db #0x00	; 0
   002D 00                  223 	.db 0x00
   002E 10                  224 	.db #0x10	; 16
   002F 33                  225 	.db #0x33	; 51	'3'
   0030 19                  226 	.db #0x19	; 25
   0031 00                  227 	.db #0x00	; 0
   0032 00                  228 	.db 0x00
   0033 24                  229 	.db #0x24	; 36
   0034 3C                  230 	.db #0x3C	; 60
   0035 30                  231 	.db #0x30	; 48	'0'
   0036 18                  232 	.db #0x18	; 24
   0037 00                  233 	.db 0x00
   0038                     234 _patrolY:
   0038 00                  235 	.db #0x00	; 0
   0039 00                  236 	.db #0x00	; 0
   003A 00                  237 	.db #0x00	; 0
   003B 00                  238 	.db #0x00	; 0
   003C 00                  239 	.db 0x00
   003D 5E                  240 	.db #0x5E	; 94
   003E A6                  241 	.db #0xA6	; 166
   003F 00                  242 	.db #0x00	; 0
   0040 00                  243 	.db #0x00	; 0
   0041 00                  244 	.db 0x00
   0042 2C                  245 	.db #0x2C	; 44
   0043 66                  246 	.db #0x66	; 102	'f'
   0044 9A                  247 	.db #0x9A	; 154
   0045 00                  248 	.db #0x00	; 0
   0046 00                  249 	.db 0x00
   0047 90                  250 	.db #0x90	; 144
   0048 66                  251 	.db #0x66	; 102	'f'
   0049 2C                  252 	.db #0x2C	; 44
   004A 86                  253 	.db #0x86	; 134
   004B 00                  254 	.db 0x00
                            255 ;src/main.c:120: void dibujarProta() {
                            256 ;	---------------------------------
                            257 ; Function dibujarProta
                            258 ; ---------------------------------
   004C                     259 _dibujarProta::
                            260 ;src/main.c:121: u8* pvmem = cpct_getScreenPtr(CPCT_VMEM_START, prota.x, prota.y);
   004C 21r8Dr03      [10]  261 	ld	hl, #_prota + 1
   004F 56            [ 7]  262 	ld	d,(hl)
   0050 21r8Cr03      [10]  263 	ld	hl, #_prota + 0
   0053 46            [ 7]  264 	ld	b,(hl)
   0054 D5            [11]  265 	push	de
   0055 33            [ 6]  266 	inc	sp
   0056 C5            [11]  267 	push	bc
   0057 33            [ 6]  268 	inc	sp
   0058 21 00 C0      [10]  269 	ld	hl,#0xC000
   005B E5            [11]  270 	push	hl
   005C CDr00r00      [17]  271 	call	_cpct_getScreenPtr
   005F EB            [ 4]  272 	ex	de,hl
                            273 ;src/main.c:122: cpct_drawSpriteMaskedAlignedTable (prota.sprite, pvmem, G_HERO_W, G_HERO_H, g_tablatrans);
   0060 ED 4Br90r03   [20]  274 	ld	bc, (#_prota + 4)
   0064 21r00r01      [10]  275 	ld	hl,#_g_tablatrans
   0067 E5            [11]  276 	push	hl
   0068 21 07 16      [10]  277 	ld	hl,#0x1607
   006B E5            [11]  278 	push	hl
   006C D5            [11]  279 	push	de
   006D C5            [11]  280 	push	bc
   006E CDr00r00      [17]  281 	call	_cpct_drawSpriteMaskedAlignedTable
   0071 C9            [10]  282 	ret
                            283 ;src/main.c:125: void borrarProta() {
                            284 ;	---------------------------------
                            285 ; Function borrarProta
                            286 ; ---------------------------------
   0072                     287 _borrarProta::
   0072 DD E5         [15]  288 	push	ix
   0074 DD 21 00 00   [14]  289 	ld	ix,#0
   0078 DD 39         [15]  290 	add	ix,sp
   007A F5            [11]  291 	push	af
   007B 3B            [ 6]  292 	dec	sp
                            293 ;src/main.c:129: u8 w = 4 + (prota.px & 1);
   007C 21r8Er03      [10]  294 	ld	hl, #_prota + 2
   007F 4E            [ 7]  295 	ld	c,(hl)
   0080 79            [ 4]  296 	ld	a,c
   0081 E6 01         [ 7]  297 	and	a, #0x01
   0083 47            [ 4]  298 	ld	b,a
   0084 04            [ 4]  299 	inc	b
   0085 04            [ 4]  300 	inc	b
   0086 04            [ 4]  301 	inc	b
   0087 04            [ 4]  302 	inc	b
                            303 ;src/main.c:132: u8 h = 6 + (prota.py & 2 ? 1 : 0);
   0088 21r8Fr03      [10]  304 	ld	hl, #_prota + 3
   008B 5E            [ 7]  305 	ld	e,(hl)
   008C CB 4B         [ 8]  306 	bit	1, e
   008E 28 04         [12]  307 	jr	Z,00103$
   0090 3E 01         [ 7]  308 	ld	a,#0x01
   0092 18 02         [12]  309 	jr	00104$
   0094                     310 00103$:
   0094 3E 00         [ 7]  311 	ld	a,#0x00
   0096                     312 00104$:
   0096 C6 06         [ 7]  313 	add	a, #0x06
   0098 DD 77 FD      [19]  314 	ld	-3 (ix),a
                            315 ;src/main.c:134: cpct_etm_drawTileBox2x4 (prota.px / 2, (prota.py - ORIGEN_MAPA_Y)/4, w, h, g_map1_W, p, mapa);
   009B FD 2Ar00r00   [20]  316 	ld	iy,(_mapa)
   009F 16 00         [ 7]  317 	ld	d,#0x00
   00A1 7B            [ 4]  318 	ld	a,e
   00A2 C6 E8         [ 7]  319 	add	a,#0xE8
   00A4 DD 77 FE      [19]  320 	ld	-2 (ix),a
   00A7 7A            [ 4]  321 	ld	a,d
   00A8 CE FF         [ 7]  322 	adc	a,#0xFF
   00AA DD 77 FF      [19]  323 	ld	-1 (ix),a
   00AD DD 6E FE      [19]  324 	ld	l,-2 (ix)
   00B0 DD 66 FF      [19]  325 	ld	h,-1 (ix)
   00B3 DD CB FF 7E   [20]  326 	bit	7, -1 (ix)
   00B7 28 04         [12]  327 	jr	Z,00105$
   00B9 21 EB FF      [10]  328 	ld	hl,#0xFFEB
   00BC 19            [11]  329 	add	hl,de
   00BD                     330 00105$:
   00BD CB 2C         [ 8]  331 	sra	h
   00BF CB 1D         [ 8]  332 	rr	l
   00C1 CB 2C         [ 8]  333 	sra	h
   00C3 CB 1D         [ 8]  334 	rr	l
   00C5 55            [ 4]  335 	ld	d,l
   00C6 CB 39         [ 8]  336 	srl	c
   00C8 FD E5         [15]  337 	push	iy
   00CA 21 F0 C0      [10]  338 	ld	hl,#0xC0F0
   00CD E5            [11]  339 	push	hl
   00CE 3E 28         [ 7]  340 	ld	a,#0x28
   00D0 F5            [11]  341 	push	af
   00D1 33            [ 6]  342 	inc	sp
   00D2 DD 7E FD      [19]  343 	ld	a,-3 (ix)
   00D5 F5            [11]  344 	push	af
   00D6 33            [ 6]  345 	inc	sp
   00D7 C5            [11]  346 	push	bc
   00D8 33            [ 6]  347 	inc	sp
   00D9 D5            [11]  348 	push	de
   00DA 33            [ 6]  349 	inc	sp
   00DB 79            [ 4]  350 	ld	a,c
   00DC F5            [11]  351 	push	af
   00DD 33            [ 6]  352 	inc	sp
   00DE CDr00r00      [17]  353 	call	_cpct_etm_drawTileBox2x4
   00E1 DD F9         [10]  354 	ld	sp, ix
   00E3 DD E1         [14]  355 	pop	ix
   00E5 C9            [10]  356 	ret
                            357 ;src/main.c:137: void redibujarProta() {
                            358 ;	---------------------------------
                            359 ; Function redibujarProta
                            360 ; ---------------------------------
   00E6                     361 _redibujarProta::
                            362 ;src/main.c:138: borrarProta();
   00E6 CDr72r00      [17]  363 	call	_borrarProta
                            364 ;src/main.c:139: prota.px = prota.x;
   00E9 01r8Er03      [10]  365 	ld	bc,#_prota + 2
   00EC 3Ar8Cr03      [13]  366 	ld	a, (#_prota + 0)
   00EF 02            [ 7]  367 	ld	(bc),a
                            368 ;src/main.c:140: prota.py = prota.y;
   00F0 01r8Fr03      [10]  369 	ld	bc,#_prota + 3
   00F3 3Ar8Dr03      [13]  370 	ld	a, (#_prota + 1)
   00F6 02            [ 7]  371 	ld	(bc),a
                            372 ;src/main.c:141: dibujarProta();
   00F7 C3r4Cr00      [10]  373 	jp  _dibujarProta
                            374 ;src/main.c:144: void comprobarTeclado(TKnife* cu, TProta* prota, u8* mapa, u8* g_tablatrans) {
                            375 ;	---------------------------------
                            376 ; Function comprobarTeclado
                            377 ; ---------------------------------
   00FA                     378 _comprobarTeclado::
                            379 ;src/main.c:145: cpct_scanKeyboard_if();
   00FA CDr00r00      [17]  380 	call	_cpct_scanKeyboard_if
                            381 ;src/main.c:147: if (cpct_isAnyKeyPressed()) {
   00FD CDr00r00      [17]  382 	call	_cpct_isAnyKeyPressed
   0100 7D            [ 4]  383 	ld	a,l
   0101 B7            [ 4]  384 	or	a, a
   0102 C8            [11]  385 	ret	Z
                            386 ;src/main.c:148: if (cpct_isKeyPressed(Key_CursorLeft)){
   0103 21 01 01      [10]  387 	ld	hl,#0x0101
   0106 CDr00r00      [17]  388 	call	_cpct_isKeyPressed
   0109 7D            [ 4]  389 	ld	a,l
   010A B7            [ 4]  390 	or	a, a
                            391 ;src/main.c:149: moverIzquierda();
   010B C2r86r16      [10]  392 	jp	NZ,_moverIzquierda
                            393 ;src/main.c:150: }else if (cpct_isKeyPressed(Key_CursorRight)){
   010E 21 00 02      [10]  394 	ld	hl,#0x0200
   0111 CDr00r00      [17]  395 	call	_cpct_isKeyPressed
   0114 7D            [ 4]  396 	ld	a,l
   0115 B7            [ 4]  397 	or	a, a
                            398 ;src/main.c:151: moverDerecha();
   0116 C2rABr16      [10]  399 	jp	NZ,_moverDerecha
                            400 ;src/main.c:152: }else if (cpct_isKeyPressed(Key_CursorUp)){
   0119 21 00 01      [10]  401 	ld	hl,#0x0100
   011C CDr00r00      [17]  402 	call	_cpct_isKeyPressed
   011F 7D            [ 4]  403 	ld	a,l
   0120 B7            [ 4]  404 	or	a, a
                            405 ;src/main.c:153: moverArriba();
   0121 C2rF0r16      [10]  406 	jp	NZ,_moverArriba
                            407 ;src/main.c:154: }else if (cpct_isKeyPressed(Key_CursorDown)){
   0124 21 00 04      [10]  408 	ld	hl,#0x0400
   0127 CDr00r00      [17]  409 	call	_cpct_isKeyPressed
   012A 7D            [ 4]  410 	ld	a,l
   012B B7            [ 4]  411 	or	a, a
                            412 ;src/main.c:155: moverAbajo();
   012C C2r14r17      [10]  413 	jp	NZ,_moverAbajo
                            414 ;src/main.c:156: }else if (cpct_isKeyPressed(Key_Space)){
   012F 21 05 80      [10]  415 	ld	hl,#0x8005
   0132 CDr00r00      [17]  416 	call	_cpct_isKeyPressed
   0135 7D            [ 4]  417 	ld	a,l
   0136 B7            [ 4]  418 	or	a, a
   0137 C8            [11]  419 	ret	Z
                            420 ;src/main.c:157: lanzarCuchillo(cu, prota, mapa, g_tablatrans);
   0138 21 08 00      [10]  421 	ld	hl, #8
   013B 39            [11]  422 	add	hl, sp
   013C 4E            [ 7]  423 	ld	c, (hl)
   013D 23            [ 6]  424 	inc	hl
   013E 46            [ 7]  425 	ld	b, (hl)
   013F C5            [11]  426 	push	bc
   0140 21 08 00      [10]  427 	ld	hl, #8
   0143 39            [11]  428 	add	hl, sp
   0144 4E            [ 7]  429 	ld	c, (hl)
   0145 23            [ 6]  430 	inc	hl
   0146 46            [ 7]  431 	ld	b, (hl)
   0147 C5            [11]  432 	push	bc
   0148 21 08 00      [10]  433 	ld	hl, #8
   014B 39            [11]  434 	add	hl, sp
   014C 4E            [ 7]  435 	ld	c, (hl)
   014D 23            [ 6]  436 	inc	hl
   014E 46            [ 7]  437 	ld	b, (hl)
   014F C5            [11]  438 	push	bc
   0150 21 08 00      [10]  439 	ld	hl, #8
   0153 39            [11]  440 	add	hl, sp
   0154 4E            [ 7]  441 	ld	c, (hl)
   0155 23            [ 6]  442 	inc	hl
   0156 46            [ 7]  443 	ld	b, (hl)
   0157 C5            [11]  444 	push	bc
   0158 CDr00r00      [17]  445 	call	_lanzarCuchillo
   015B 21 08 00      [10]  446 	ld	hl,#8
   015E 39            [11]  447 	add	hl,sp
   015F F9            [ 6]  448 	ld	sp,hl
   0160 C9            [10]  449 	ret
                            450 ;src/main.c:162: u8 checkCollision(u8 direction) { // check optimization
                            451 ;	---------------------------------
                            452 ; Function checkCollision
                            453 ; ---------------------------------
   0161                     454 _checkCollision::
   0161 DD E5         [15]  455 	push	ix
   0163 DD 21 00 00   [14]  456 	ld	ix,#0
   0167 DD 39         [15]  457 	add	ix,sp
   0169 F5            [11]  458 	push	af
                            459 ;src/main.c:163: u8 *headTile=0, *feetTile=0, *waistTile=0;
   016A 21 00 00      [10]  460 	ld	hl,#0x0000
   016D E3            [19]  461 	ex	(sp), hl
   016E 11 00 00      [10]  462 	ld	de,#0x0000
   0171 01 00 00      [10]  463 	ld	bc,#0x0000
                            464 ;src/main.c:165: switch (direction) {
   0174 3E 03         [ 7]  465 	ld	a,#0x03
   0176 DD 96 04      [19]  466 	sub	a, 4 (ix)
   0179 DArB1r02      [10]  467 	jp	C,00105$
   017C DD 5E 04      [19]  468 	ld	e,4 (ix)
   017F 16 00         [ 7]  469 	ld	d,#0x00
   0181 21r88r01      [10]  470 	ld	hl,#00124$
   0184 19            [11]  471 	add	hl,de
   0185 19            [11]  472 	add	hl,de
   0186 19            [11]  473 	add	hl,de
   0187 E9            [ 4]  474 	jp	(hl)
   0188                     475 00124$:
   0188 C3r94r01      [10]  476 	jp	00101$
   018B C3rE9r01      [10]  477 	jp	00102$
   018E C3r39r02      [10]  478 	jp	00103$
   0191 C3r76r02      [10]  479 	jp	00104$
                            480 ;src/main.c:166: case 0:
   0194                     481 00101$:
                            482 ;src/main.c:167: headTile  = getTilePtr(mapa, prota.x + G_HERO_W, prota.y);
   0194 21r8Dr03      [10]  483 	ld	hl, #(_prota + 0x0001) + 0
   0197 4E            [ 7]  484 	ld	c,(hl)
   0198 3Ar8Cr03      [13]  485 	ld	a, (#_prota + 0)
   019B C6 07         [ 7]  486 	add	a, #0x07
   019D 47            [ 4]  487 	ld	b,a
   019E 79            [ 4]  488 	ld	a,c
   019F F5            [11]  489 	push	af
   01A0 33            [ 6]  490 	inc	sp
   01A1 C5            [11]  491 	push	bc
   01A2 33            [ 6]  492 	inc	sp
   01A3 2Ar00r00      [16]  493 	ld	hl,(_mapa)
   01A6 E5            [11]  494 	push	hl
   01A7 CDr00r00      [17]  495 	call	_getTilePtr
   01AA F1            [10]  496 	pop	af
   01AB F1            [10]  497 	pop	af
   01AC 33            [ 6]  498 	inc	sp
   01AD 33            [ 6]  499 	inc	sp
   01AE E5            [11]  500 	push	hl
                            501 ;src/main.c:168: feetTile  = getTilePtr(mapa, prota.x + G_HERO_W, prota.y + ALTO_PROTA - 2);
   01AF 3Ar8Dr03      [13]  502 	ld	a, (#(_prota + 0x0001) + 0)
   01B2 C6 14         [ 7]  503 	add	a, #0x14
   01B4 4F            [ 4]  504 	ld	c,a
   01B5 3Ar8Cr03      [13]  505 	ld	a, (#_prota + 0)
   01B8 C6 07         [ 7]  506 	add	a, #0x07
   01BA 47            [ 4]  507 	ld	b,a
   01BB 79            [ 4]  508 	ld	a,c
   01BC F5            [11]  509 	push	af
   01BD 33            [ 6]  510 	inc	sp
   01BE C5            [11]  511 	push	bc
   01BF 33            [ 6]  512 	inc	sp
   01C0 2Ar00r00      [16]  513 	ld	hl,(_mapa)
   01C3 E5            [11]  514 	push	hl
   01C4 CDr00r00      [17]  515 	call	_getTilePtr
   01C7 F1            [10]  516 	pop	af
   01C8 F1            [10]  517 	pop	af
   01C9 EB            [ 4]  518 	ex	de,hl
                            519 ;src/main.c:169: waistTile = getTilePtr(mapa, prota.x + G_HERO_W, prota.y + ALTO_PROTA/2);
   01CA 3Ar8Dr03      [13]  520 	ld	a, (#(_prota + 0x0001) + 0)
   01CD C6 0B         [ 7]  521 	add	a, #0x0B
   01CF 47            [ 4]  522 	ld	b,a
   01D0 3Ar8Cr03      [13]  523 	ld	a, (#_prota + 0)
   01D3 C6 07         [ 7]  524 	add	a, #0x07
   01D5 D5            [11]  525 	push	de
   01D6 C5            [11]  526 	push	bc
   01D7 33            [ 6]  527 	inc	sp
   01D8 F5            [11]  528 	push	af
   01D9 33            [ 6]  529 	inc	sp
   01DA 2Ar00r00      [16]  530 	ld	hl,(_mapa)
   01DD E5            [11]  531 	push	hl
   01DE CDr00r00      [17]  532 	call	_getTilePtr
   01E1 F1            [10]  533 	pop	af
   01E2 F1            [10]  534 	pop	af
   01E3 4D            [ 4]  535 	ld	c,l
   01E4 44            [ 4]  536 	ld	b,h
   01E5 D1            [10]  537 	pop	de
                            538 ;src/main.c:170: break;
   01E6 C3rB1r02      [10]  539 	jp	00105$
                            540 ;src/main.c:171: case 1:
   01E9                     541 00102$:
                            542 ;src/main.c:172: headTile  = getTilePtr(mapa, prota.x - 1, prota.y);
   01E9 21r8Dr03      [10]  543 	ld	hl, #(_prota + 0x0001) + 0
   01EC 56            [ 7]  544 	ld	d,(hl)
   01ED 21r8Cr03      [10]  545 	ld	hl, #_prota + 0
   01F0 46            [ 7]  546 	ld	b,(hl)
   01F1 05            [ 4]  547 	dec	b
   01F2 D5            [11]  548 	push	de
   01F3 33            [ 6]  549 	inc	sp
   01F4 C5            [11]  550 	push	bc
   01F5 33            [ 6]  551 	inc	sp
   01F6 2Ar00r00      [16]  552 	ld	hl,(_mapa)
   01F9 E5            [11]  553 	push	hl
   01FA CDr00r00      [17]  554 	call	_getTilePtr
   01FD F1            [10]  555 	pop	af
   01FE F1            [10]  556 	pop	af
   01FF 33            [ 6]  557 	inc	sp
   0200 33            [ 6]  558 	inc	sp
   0201 E5            [11]  559 	push	hl
                            560 ;src/main.c:173: feetTile  = getTilePtr(mapa, prota.x - 1, prota.y + ALTO_PROTA - 2);
   0202 3Ar8Dr03      [13]  561 	ld	a, (#(_prota + 0x0001) + 0)
   0205 C6 14         [ 7]  562 	add	a, #0x14
   0207 57            [ 4]  563 	ld	d,a
   0208 21r8Cr03      [10]  564 	ld	hl, #_prota + 0
   020B 46            [ 7]  565 	ld	b,(hl)
   020C 05            [ 4]  566 	dec	b
   020D D5            [11]  567 	push	de
   020E 33            [ 6]  568 	inc	sp
   020F C5            [11]  569 	push	bc
   0210 33            [ 6]  570 	inc	sp
   0211 2Ar00r00      [16]  571 	ld	hl,(_mapa)
   0214 E5            [11]  572 	push	hl
   0215 CDr00r00      [17]  573 	call	_getTilePtr
   0218 F1            [10]  574 	pop	af
   0219 F1            [10]  575 	pop	af
   021A EB            [ 4]  576 	ex	de,hl
                            577 ;src/main.c:174: waistTile = getTilePtr(mapa, prota.x - 1, prota.y + ALTO_PROTA/2);
   021B 3Ar8Dr03      [13]  578 	ld	a, (#(_prota + 0x0001) + 0)
   021E C6 0B         [ 7]  579 	add	a, #0x0B
   0220 47            [ 4]  580 	ld	b,a
   0221 3Ar8Cr03      [13]  581 	ld	a, (#_prota + 0)
   0224 C6 FF         [ 7]  582 	add	a,#0xFF
   0226 D5            [11]  583 	push	de
   0227 C5            [11]  584 	push	bc
   0228 33            [ 6]  585 	inc	sp
   0229 F5            [11]  586 	push	af
   022A 33            [ 6]  587 	inc	sp
   022B 2Ar00r00      [16]  588 	ld	hl,(_mapa)
   022E E5            [11]  589 	push	hl
   022F CDr00r00      [17]  590 	call	_getTilePtr
   0232 F1            [10]  591 	pop	af
   0233 F1            [10]  592 	pop	af
   0234 4D            [ 4]  593 	ld	c,l
   0235 44            [ 4]  594 	ld	b,h
   0236 D1            [10]  595 	pop	de
                            596 ;src/main.c:175: break;
   0237 18 78         [12]  597 	jr	00105$
                            598 ;src/main.c:176: case 2:
   0239                     599 00103$:
                            600 ;src/main.c:177: headTile   = getTilePtr(mapa, prota.x, prota.y - 2);
   0239 3Ar8Dr03      [13]  601 	ld	a, (#(_prota + 0x0001) + 0)
   023C C6 FE         [ 7]  602 	add	a,#0xFE
   023E 21r8Cr03      [10]  603 	ld	hl, #_prota + 0
   0241 56            [ 7]  604 	ld	d,(hl)
   0242 C5            [11]  605 	push	bc
   0243 F5            [11]  606 	push	af
   0244 33            [ 6]  607 	inc	sp
   0245 D5            [11]  608 	push	de
   0246 33            [ 6]  609 	inc	sp
   0247 2Ar00r00      [16]  610 	ld	hl,(_mapa)
   024A E5            [11]  611 	push	hl
   024B CDr00r00      [17]  612 	call	_getTilePtr
   024E F1            [10]  613 	pop	af
   024F F1            [10]  614 	pop	af
   0250 C1            [10]  615 	pop	bc
   0251 33            [ 6]  616 	inc	sp
   0252 33            [ 6]  617 	inc	sp
   0253 E5            [11]  618 	push	hl
                            619 ;src/main.c:178: feetTile   = getTilePtr(mapa, prota.x + G_HERO_W - 4, prota.y - 2);
   0254 21r8Dr03      [10]  620 	ld	hl, #(_prota + 0x0001) + 0
   0257 56            [ 7]  621 	ld	d,(hl)
   0258 15            [ 4]  622 	dec	d
   0259 15            [ 4]  623 	dec	d
   025A 3Ar8Cr03      [13]  624 	ld	a, (#_prota + 0)
   025D C6 03         [ 7]  625 	add	a, #0x03
   025F C5            [11]  626 	push	bc
   0260 D5            [11]  627 	push	de
   0261 33            [ 6]  628 	inc	sp
   0262 F5            [11]  629 	push	af
   0263 33            [ 6]  630 	inc	sp
   0264 2Ar00r00      [16]  631 	ld	hl,(_mapa)
   0267 E5            [11]  632 	push	hl
   0268 CDr00r00      [17]  633 	call	_getTilePtr
   026B F1            [10]  634 	pop	af
   026C F1            [10]  635 	pop	af
   026D EB            [ 4]  636 	ex	de,hl
   026E C1            [10]  637 	pop	bc
                            638 ;src/main.c:179: *waistTile = 0;
   026F 21 00 00      [10]  639 	ld	hl,#0x0000
   0272 36 00         [10]  640 	ld	(hl),#0x00
                            641 ;src/main.c:180: break;
   0274 18 3B         [12]  642 	jr	00105$
                            643 ;src/main.c:181: case 3:
   0276                     644 00104$:
                            645 ;src/main.c:182: headTile  = getTilePtr(mapa, prota.x, prota.y + ALTO_PROTA  );
   0276 3Ar8Dr03      [13]  646 	ld	a, (#(_prota + 0x0001) + 0)
   0279 C6 16         [ 7]  647 	add	a, #0x16
   027B 21r8Cr03      [10]  648 	ld	hl, #_prota + 0
   027E 56            [ 7]  649 	ld	d,(hl)
   027F C5            [11]  650 	push	bc
   0280 F5            [11]  651 	push	af
   0281 33            [ 6]  652 	inc	sp
   0282 D5            [11]  653 	push	de
   0283 33            [ 6]  654 	inc	sp
   0284 2Ar00r00      [16]  655 	ld	hl,(_mapa)
   0287 E5            [11]  656 	push	hl
   0288 CDr00r00      [17]  657 	call	_getTilePtr
   028B F1            [10]  658 	pop	af
   028C F1            [10]  659 	pop	af
   028D C1            [10]  660 	pop	bc
   028E 33            [ 6]  661 	inc	sp
   028F 33            [ 6]  662 	inc	sp
   0290 E5            [11]  663 	push	hl
                            664 ;src/main.c:183: feetTile  = getTilePtr(mapa, prota.x + G_HERO_W - 4, prota.y + ALTO_PROTA );
   0291 3Ar8Dr03      [13]  665 	ld	a, (#(_prota + 0x0001) + 0)
   0294 C6 16         [ 7]  666 	add	a, #0x16
   0296 57            [ 4]  667 	ld	d,a
   0297 3Ar8Cr03      [13]  668 	ld	a, (#_prota + 0)
   029A C6 03         [ 7]  669 	add	a, #0x03
   029C C5            [11]  670 	push	bc
   029D D5            [11]  671 	push	de
   029E 33            [ 6]  672 	inc	sp
   029F F5            [11]  673 	push	af
   02A0 33            [ 6]  674 	inc	sp
   02A1 2Ar00r00      [16]  675 	ld	hl,(_mapa)
   02A4 E5            [11]  676 	push	hl
   02A5 CDr00r00      [17]  677 	call	_getTilePtr
   02A8 F1            [10]  678 	pop	af
   02A9 F1            [10]  679 	pop	af
   02AA EB            [ 4]  680 	ex	de,hl
   02AB C1            [10]  681 	pop	bc
                            682 ;src/main.c:184: *waistTile = 0;
   02AC 21 00 00      [10]  683 	ld	hl,#0x0000
   02AF 36 00         [10]  684 	ld	(hl),#0x00
                            685 ;src/main.c:186: }
   02B1                     686 00105$:
                            687 ;src/main.c:188: if (*headTile > 2 || *feetTile > 2 || *waistTile > 2)
   02B1 E1            [10]  688 	pop	hl
   02B2 E5            [11]  689 	push	hl
   02B3 6E            [ 7]  690 	ld	l,(hl)
   02B4 3E 02         [ 7]  691 	ld	a,#0x02
   02B6 95            [ 4]  692 	sub	a, l
   02B7 38 0E         [12]  693 	jr	C,00106$
   02B9 1A            [ 7]  694 	ld	a,(de)
   02BA 5F            [ 4]  695 	ld	e,a
   02BB 3E 02         [ 7]  696 	ld	a,#0x02
   02BD 93            [ 4]  697 	sub	a, e
   02BE 38 07         [12]  698 	jr	C,00106$
   02C0 0A            [ 7]  699 	ld	a,(bc)
   02C1 4F            [ 4]  700 	ld	c,a
   02C2 3E 02         [ 7]  701 	ld	a,#0x02
   02C4 91            [ 4]  702 	sub	a, c
   02C5 30 04         [12]  703 	jr	NC,00107$
   02C7                     704 00106$:
                            705 ;src/main.c:189: return 1;
   02C7 2E 01         [ 7]  706 	ld	l,#0x01
   02C9 18 02         [12]  707 	jr	00110$
   02CB                     708 00107$:
                            709 ;src/main.c:191: return 0;
   02CB 2E 00         [ 7]  710 	ld	l,#0x00
   02CD                     711 00110$:
   02CD DD F9         [10]  712 	ld	sp, ix
   02CF DD E1         [14]  713 	pop	ix
   02D1 C9            [10]  714 	ret
                            715 ;src/main.c:194: void dibujarEnemigo(TEnemy *enemy) {
                            716 ;	---------------------------------
                            717 ; Function dibujarEnemigo
                            718 ; ---------------------------------
   02D2                     719 _dibujarEnemigo::
   02D2 DD E5         [15]  720 	push	ix
   02D4 DD 21 00 00   [14]  721 	ld	ix,#0
   02D8 DD 39         [15]  722 	add	ix,sp
                            723 ;src/main.c:195: u8* pvmem = cpct_getScreenPtr(CPCT_VMEM_START, enemy->x, enemy->y);
   02DA DD 4E 04      [19]  724 	ld	c,4 (ix)
   02DD DD 46 05      [19]  725 	ld	b,5 (ix)
   02E0 69            [ 4]  726 	ld	l, c
   02E1 60            [ 4]  727 	ld	h, b
   02E2 23            [ 6]  728 	inc	hl
   02E3 56            [ 7]  729 	ld	d,(hl)
   02E4 0A            [ 7]  730 	ld	a,(bc)
   02E5 C5            [11]  731 	push	bc
   02E6 D5            [11]  732 	push	de
   02E7 33            [ 6]  733 	inc	sp
   02E8 F5            [11]  734 	push	af
   02E9 33            [ 6]  735 	inc	sp
   02EA 21 00 C0      [10]  736 	ld	hl,#0xC000
   02ED E5            [11]  737 	push	hl
   02EE CDr00r00      [17]  738 	call	_cpct_getScreenPtr
   02F1 EB            [ 4]  739 	ex	de,hl
                            740 ;src/main.c:196: cpct_drawSpriteMaskedAlignedTable (enemy->sprite, pvmem, G_ENEMY_W, G_ENEMY_H, g_tablatrans);
   02F2 E1            [10]  741 	pop	hl
   02F3 01 04 00      [10]  742 	ld	bc, #0x0004
   02F6 09            [11]  743 	add	hl, bc
   02F7 4E            [ 7]  744 	ld	c,(hl)
   02F8 23            [ 6]  745 	inc	hl
   02F9 46            [ 7]  746 	ld	b,(hl)
   02FA 21r00r01      [10]  747 	ld	hl,#_g_tablatrans
   02FD E5            [11]  748 	push	hl
   02FE 21 04 16      [10]  749 	ld	hl,#0x1604
   0301 E5            [11]  750 	push	hl
   0302 D5            [11]  751 	push	de
   0303 C5            [11]  752 	push	bc
   0304 CDr00r00      [17]  753 	call	_cpct_drawSpriteMaskedAlignedTable
   0307 DD E1         [14]  754 	pop	ix
   0309 C9            [10]  755 	ret
                            756 ;src/main.c:199: void dibujarExplosion(TEnemy *enemy) {
                            757 ;	---------------------------------
                            758 ; Function dibujarExplosion
                            759 ; ---------------------------------
   030A                     760 _dibujarExplosion::
   030A DD E5         [15]  761 	push	ix
   030C DD 21 00 00   [14]  762 	ld	ix,#0
   0310 DD 39         [15]  763 	add	ix,sp
                            764 ;src/main.c:200: u8* pvmem = cpct_getScreenPtr(CPCT_VMEM_START, enemy->px, enemy->py);
   0312 DD 4E 04      [19]  765 	ld	c,4 (ix)
   0315 DD 46 05      [19]  766 	ld	b,5 (ix)
   0318 69            [ 4]  767 	ld	l, c
   0319 60            [ 4]  768 	ld	h, b
   031A 23            [ 6]  769 	inc	hl
   031B 23            [ 6]  770 	inc	hl
   031C 23            [ 6]  771 	inc	hl
   031D 56            [ 7]  772 	ld	d,(hl)
   031E 69            [ 4]  773 	ld	l, c
   031F 60            [ 4]  774 	ld	h, b
   0320 23            [ 6]  775 	inc	hl
   0321 23            [ 6]  776 	inc	hl
   0322 46            [ 7]  777 	ld	b,(hl)
   0323 D5            [11]  778 	push	de
   0324 33            [ 6]  779 	inc	sp
   0325 C5            [11]  780 	push	bc
   0326 33            [ 6]  781 	inc	sp
   0327 21 00 C0      [10]  782 	ld	hl,#0xC000
   032A E5            [11]  783 	push	hl
   032B CDr00r00      [17]  784 	call	_cpct_getScreenPtr
   032E 4D            [ 4]  785 	ld	c,l
   032F 44            [ 4]  786 	ld	b,h
                            787 ;src/main.c:201: cpct_drawSpriteMaskedAlignedTable (g_explosion, pvmem, G_EXPLOSION_W, G_EXPLOSION_H, g_tablatrans);
   0330 11r00r01      [10]  788 	ld	de,#_g_tablatrans+0
   0333 D5            [11]  789 	push	de
   0334 21 04 16      [10]  790 	ld	hl,#0x1604
   0337 E5            [11]  791 	push	hl
   0338 C5            [11]  792 	push	bc
   0339 21r00r00      [10]  793 	ld	hl,#_g_explosion
   033C E5            [11]  794 	push	hl
   033D CDr00r00      [17]  795 	call	_cpct_drawSpriteMaskedAlignedTable
   0340 DD E1         [14]  796 	pop	ix
   0342 C9            [10]  797 	ret
                            798 ;src/main.c:204: void borrarExplosion(u8 x, u8 y) {
                            799 ;	---------------------------------
                            800 ; Function borrarExplosion
                            801 ; ---------------------------------
   0343                     802 _borrarExplosion::
   0343 DD E5         [15]  803 	push	ix
   0345 DD 21 00 00   [14]  804 	ld	ix,#0
   0349 DD 39         [15]  805 	add	ix,sp
   034B F5            [11]  806 	push	af
   034C F5            [11]  807 	push	af
                            808 ;src/main.c:207: u8 w = 4 + (x & 1);
   034D DD 7E 04      [19]  809 	ld	a,4 (ix)
   0350 E6 01         [ 7]  810 	and	a, #0x01
   0352 4F            [ 4]  811 	ld	c,a
   0353 0C            [ 4]  812 	inc	c
   0354 0C            [ 4]  813 	inc	c
   0355 0C            [ 4]  814 	inc	c
   0356 0C            [ 4]  815 	inc	c
                            816 ;src/main.c:208: u8 h = 6 + (y & 3 ? 1 : 0);
   0357 DD 7E 05      [19]  817 	ld	a,5 (ix)
   035A E6 03         [ 7]  818 	and	a, #0x03
   035C 28 04         [12]  819 	jr	Z,00103$
   035E 3E 01         [ 7]  820 	ld	a,#0x01
   0360 18 02         [12]  821 	jr	00104$
   0362                     822 00103$:
   0362 3E 00         [ 7]  823 	ld	a,#0x00
   0364                     824 00104$:
   0364 C6 06         [ 7]  825 	add	a, #0x06
   0366 47            [ 4]  826 	ld	b,a
                            827 ;src/main.c:210: cpct_etm_drawTileBox2x4 (x / 2, (y - ORIGEN_MAPA_Y)/4, w, h, g_map1_W, p, mapa);
   0367 2Ar00r00      [16]  828 	ld	hl,(_mapa)
   036A E3            [19]  829 	ex	(sp), hl
   036B DD 5E 05      [19]  830 	ld	e,5 (ix)
   036E 16 00         [ 7]  831 	ld	d,#0x00
   0370 7B            [ 4]  832 	ld	a,e
   0371 C6 E8         [ 7]  833 	add	a,#0xE8
   0373 DD 77 FE      [19]  834 	ld	-2 (ix),a
   0376 7A            [ 4]  835 	ld	a,d
   0377 CE FF         [ 7]  836 	adc	a,#0xFF
   0379 DD 77 FF      [19]  837 	ld	-1 (ix),a
   037C DD 6E FE      [19]  838 	ld	l,-2 (ix)
   037F DD 66 FF      [19]  839 	ld	h,-1 (ix)
   0382 DD CB FF 7E   [20]  840 	bit	7, -1 (ix)
   0386 28 04         [12]  841 	jr	Z,00105$
   0388 21 EB FF      [10]  842 	ld	hl,#0xFFEB
   038B 19            [11]  843 	add	hl,de
   038C                     844 00105$:
   038C CB 2C         [ 8]  845 	sra	h
   038E CB 1D         [ 8]  846 	rr	l
   0390 CB 2C         [ 8]  847 	sra	h
   0392 CB 1D         [ 8]  848 	rr	l
   0394 5D            [ 4]  849 	ld	e,l
   0395 DD 56 04      [19]  850 	ld	d,4 (ix)
   0398 CB 3A         [ 8]  851 	srl	d
   039A E1            [10]  852 	pop	hl
   039B E5            [11]  853 	push	hl
   039C E5            [11]  854 	push	hl
   039D 21 F0 C0      [10]  855 	ld	hl,#0xC0F0
   03A0 E5            [11]  856 	push	hl
   03A1 3E 28         [ 7]  857 	ld	a,#0x28
   03A3 F5            [11]  858 	push	af
   03A4 33            [ 6]  859 	inc	sp
   03A5 C5            [11]  860 	push	bc
   03A6 7B            [ 4]  861 	ld	a,e
   03A7 F5            [11]  862 	push	af
   03A8 33            [ 6]  863 	inc	sp
   03A9 D5            [11]  864 	push	de
   03AA 33            [ 6]  865 	inc	sp
   03AB CDr00r00      [17]  866 	call	_cpct_etm_drawTileBox2x4
   03AE DD F9         [10]  867 	ld	sp, ix
   03B0 DD E1         [14]  868 	pop	ix
   03B2 C9            [10]  869 	ret
                            870 ;src/main.c:214: void borrarEnemigo(u8 x, u8 y) {
                            871 ;	---------------------------------
                            872 ; Function borrarEnemigo
                            873 ; ---------------------------------
   03B3                     874 _borrarEnemigo::
   03B3 DD E5         [15]  875 	push	ix
   03B5 DD 21 00 00   [14]  876 	ld	ix,#0
   03B9 DD 39         [15]  877 	add	ix,sp
   03BB F5            [11]  878 	push	af
   03BC F5            [11]  879 	push	af
                            880 ;src/main.c:218: u8 w = 4 + (x & 1);
   03BD DD 7E 04      [19]  881 	ld	a,4 (ix)
   03C0 E6 01         [ 7]  882 	and	a, #0x01
   03C2 4F            [ 4]  883 	ld	c,a
   03C3 0C            [ 4]  884 	inc	c
   03C4 0C            [ 4]  885 	inc	c
   03C5 0C            [ 4]  886 	inc	c
   03C6 0C            [ 4]  887 	inc	c
                            888 ;src/main.c:220: u8 h = 6 + (y & 3 ? 1 : 0);
   03C7 DD 7E 05      [19]  889 	ld	a,5 (ix)
   03CA E6 03         [ 7]  890 	and	a, #0x03
   03CC 28 04         [12]  891 	jr	Z,00103$
   03CE 3E 01         [ 7]  892 	ld	a,#0x01
   03D0 18 02         [12]  893 	jr	00104$
   03D2                     894 00103$:
   03D2 3E 00         [ 7]  895 	ld	a,#0x00
   03D4                     896 00104$:
   03D4 C6 06         [ 7]  897 	add	a, #0x06
   03D6 47            [ 4]  898 	ld	b,a
                            899 ;src/main.c:222: cpct_etm_drawTileBox2x4 (x / 2, (y - ORIGEN_MAPA_Y)/4, w, h, g_map1_W, p, mapa);
   03D7 2Ar00r00      [16]  900 	ld	hl,(_mapa)
   03DA E3            [19]  901 	ex	(sp), hl
   03DB DD 5E 05      [19]  902 	ld	e,5 (ix)
   03DE 16 00         [ 7]  903 	ld	d,#0x00
   03E0 7B            [ 4]  904 	ld	a,e
   03E1 C6 E8         [ 7]  905 	add	a,#0xE8
   03E3 DD 77 FE      [19]  906 	ld	-2 (ix),a
   03E6 7A            [ 4]  907 	ld	a,d
   03E7 CE FF         [ 7]  908 	adc	a,#0xFF
   03E9 DD 77 FF      [19]  909 	ld	-1 (ix),a
   03EC DD 6E FE      [19]  910 	ld	l,-2 (ix)
   03EF DD 66 FF      [19]  911 	ld	h,-1 (ix)
   03F2 DD CB FF 7E   [20]  912 	bit	7, -1 (ix)
   03F6 28 04         [12]  913 	jr	Z,00105$
   03F8 21 EB FF      [10]  914 	ld	hl,#0xFFEB
   03FB 19            [11]  915 	add	hl,de
   03FC                     916 00105$:
   03FC CB 2C         [ 8]  917 	sra	h
   03FE CB 1D         [ 8]  918 	rr	l
   0400 CB 2C         [ 8]  919 	sra	h
   0402 CB 1D         [ 8]  920 	rr	l
   0404 5D            [ 4]  921 	ld	e,l
   0405 DD 56 04      [19]  922 	ld	d,4 (ix)
   0408 CB 3A         [ 8]  923 	srl	d
   040A E1            [10]  924 	pop	hl
   040B E5            [11]  925 	push	hl
   040C E5            [11]  926 	push	hl
   040D 21 F0 C0      [10]  927 	ld	hl,#0xC0F0
   0410 E5            [11]  928 	push	hl
   0411 3E 28         [ 7]  929 	ld	a,#0x28
   0413 F5            [11]  930 	push	af
   0414 33            [ 6]  931 	inc	sp
   0415 C5            [11]  932 	push	bc
   0416 7B            [ 4]  933 	ld	a,e
   0417 F5            [11]  934 	push	af
   0418 33            [ 6]  935 	inc	sp
   0419 D5            [11]  936 	push	de
   041A 33            [ 6]  937 	inc	sp
   041B CDr00r00      [17]  938 	call	_cpct_etm_drawTileBox2x4
   041E DD F9         [10]  939 	ld	sp, ix
   0420 DD E1         [14]  940 	pop	ix
   0422 C9            [10]  941 	ret
                            942 ;src/main.c:225: void redibujarEnemigo(u8 x, u8 y, TEnemy *enemy) {
                            943 ;	---------------------------------
                            944 ; Function redibujarEnemigo
                            945 ; ---------------------------------
   0423                     946 _redibujarEnemigo::
   0423 DD E5         [15]  947 	push	ix
   0425 DD 21 00 00   [14]  948 	ld	ix,#0
   0429 DD 39         [15]  949 	add	ix,sp
                            950 ;src/main.c:226: borrarEnemigo(x, y);
   042B DD 66 05      [19]  951 	ld	h,5 (ix)
   042E DD 6E 04      [19]  952 	ld	l,4 (ix)
   0431 E5            [11]  953 	push	hl
   0432 CDrB3r03      [17]  954 	call	_borrarEnemigo
   0435 F1            [10]  955 	pop	af
                            956 ;src/main.c:227: enemy->px = enemy->x;
   0436 DD 4E 06      [19]  957 	ld	c,6 (ix)
   0439 DD 46 07      [19]  958 	ld	b,7 (ix)
   043C 59            [ 4]  959 	ld	e, c
   043D 50            [ 4]  960 	ld	d, b
   043E 13            [ 6]  961 	inc	de
   043F 13            [ 6]  962 	inc	de
   0440 0A            [ 7]  963 	ld	a,(bc)
   0441 12            [ 7]  964 	ld	(de),a
                            965 ;src/main.c:228: enemy->py = enemy->y;
   0442 59            [ 4]  966 	ld	e, c
   0443 50            [ 4]  967 	ld	d, b
   0444 13            [ 6]  968 	inc	de
   0445 13            [ 6]  969 	inc	de
   0446 13            [ 6]  970 	inc	de
   0447 69            [ 4]  971 	ld	l, c
   0448 60            [ 4]  972 	ld	h, b
   0449 23            [ 6]  973 	inc	hl
   044A 7E            [ 7]  974 	ld	a,(hl)
   044B 12            [ 7]  975 	ld	(de),a
                            976 ;src/main.c:229: dibujarEnemigo(enemy);
   044C C5            [11]  977 	push	bc
   044D CDrD2r02      [17]  978 	call	_dibujarEnemigo
   0450 F1            [10]  979 	pop	af
   0451 DD E1         [14]  980 	pop	ix
   0453 C9            [10]  981 	ret
                            982 ;src/main.c:233: void checkEnemyDead(u8 direction, TEnemy *enemy){
                            983 ;	---------------------------------
                            984 ; Function checkEnemyDead
                            985 ; ---------------------------------
   0454                     986 _checkEnemyDead::
   0454 DD E5         [15]  987 	push	ix
   0456 DD 21 00 00   [14]  988 	ld	ix,#0
   045A DD 39         [15]  989 	add	ix,sp
   045C 21 FA FF      [10]  990 	ld	hl,#-6
   045F 39            [11]  991 	add	hl,sp
   0460 F9            [ 6]  992 	ld	sp,hl
                            993 ;src/main.c:235: switch (direction) {
   0461 3E 03         [ 7]  994 	ld	a,#0x03
   0463 DD 96 04      [19]  995 	sub	a, 4 (ix)
   0466 DAr42r06      [10]  996 	jp	C,00134$
                            997 ;src/main.c:239: if( !((cu.y + G_KNIFEX_0_H) < enemy->y || cu.y  > (enemy->y + G_ENEMY_H))){
   0469 DD 7E 05      [19]  998 	ld	a,5 (ix)
   046C DD 77 FC      [19]  999 	ld	-4 (ix),a
   046F DD 7E 06      [19] 1000 	ld	a,6 (ix)
   0472 DD 77 FD      [19] 1001 	ld	-3 (ix),a
   0475 DD 7E FC      [19] 1002 	ld	a,-4 (ix)
   0478 C6 01         [ 7] 1003 	add	a, #0x01
   047A DD 77 FE      [19] 1004 	ld	-2 (ix),a
   047D DD 7E FD      [19] 1005 	ld	a,-3 (ix)
   0480 CE 00         [ 7] 1006 	adc	a, #0x00
   0482 DD 77 FF      [19] 1007 	ld	-1 (ix),a
                           1008 ;src/main.c:242: enemy->muerto = SI;
   0485 DD 7E FC      [19] 1009 	ld	a,-4 (ix)
   0488 C6 08         [ 7] 1010 	add	a, #0x08
   048A DD 77 FA      [19] 1011 	ld	-6 (ix),a
   048D DD 7E FD      [19] 1012 	ld	a,-3 (ix)
   0490 CE 00         [ 7] 1013 	adc	a, #0x00
   0492 DD 77 FB      [19] 1014 	ld	-5 (ix),a
                           1015 ;src/main.c:235: switch (direction) {
   0495 DD 5E 04      [19] 1016 	ld	e,4 (ix)
   0498 16 00         [ 7] 1017 	ld	d,#0x00
   049A 21rA1r04      [10] 1018 	ld	hl,#00204$
   049D 19            [11] 1019 	add	hl,de
   049E 19            [11] 1020 	add	hl,de
   049F 19            [11] 1021 	add	hl,de
   04A0 E9            [ 4] 1022 	jp	(hl)
   04A1                    1023 00204$:
   04A1 C3rADr04      [10] 1024 	jp	00101$
   04A4 C3r15r05      [10] 1025 	jp	00109$
   04A7 C3r7Dr05      [10] 1026 	jp	00117$
   04AA C3rE4r05      [10] 1027 	jp	00125$
                           1028 ;src/main.c:238: case 0:
   04AD                    1029 00101$:
                           1030 ;src/main.c:239: if( !((cu.y + G_KNIFEX_0_H) < enemy->y || cu.y  > (enemy->y + G_ENEMY_H))){
   04AD 21r95r03      [10] 1031 	ld	hl, #_cu + 1
   04B0 4E            [ 7] 1032 	ld	c,(hl)
   04B1 06 00         [ 7] 1033 	ld	b,#0x00
   04B3 21 04 00      [10] 1034 	ld	hl,#0x0004
   04B6 09            [11] 1035 	add	hl,bc
   04B7 EB            [ 4] 1036 	ex	de,hl
   04B8 DD 6E FE      [19] 1037 	ld	l,-2 (ix)
   04BB DD 66 FF      [19] 1038 	ld	h,-1 (ix)
   04BE 6E            [ 7] 1039 	ld	l,(hl)
   04BF 26 00         [ 7] 1040 	ld	h,#0x00
   04C1 7B            [ 4] 1041 	ld	a,e
   04C2 95            [ 4] 1042 	sub	a, l
   04C3 7A            [ 4] 1043 	ld	a,d
   04C4 9C            [ 4] 1044 	sbc	a, h
   04C5 E2rCAr04      [10] 1045 	jp	PO, 00205$
   04C8 EE 80         [ 7] 1046 	xor	a, #0x80
   04CA                    1047 00205$:
   04CA FAr42r06      [10] 1048 	jp	M,00134$
   04CD 11 16 00      [10] 1049 	ld	de,#0x0016
   04D0 19            [11] 1050 	add	hl,de
   04D1 7D            [ 4] 1051 	ld	a,l
   04D2 91            [ 4] 1052 	sub	a, c
   04D3 7C            [ 4] 1053 	ld	a,h
   04D4 98            [ 4] 1054 	sbc	a, b
   04D5 E2rDAr04      [10] 1055 	jp	PO, 00206$
   04D8 EE 80         [ 7] 1056 	xor	a, #0x80
   04DA                    1057 00206$:
   04DA FAr42r06      [10] 1058 	jp	M,00134$
                           1059 ;src/main.c:240: if(enemy->x > cu.x + G_KNIFEX_0_W){ //si el cu esta abajo
   04DD DD 6E FC      [19] 1060 	ld	l,-4 (ix)
   04E0 DD 66 FD      [19] 1061 	ld	h,-3 (ix)
   04E3 4E            [ 7] 1062 	ld	c,(hl)
   04E4 21r94r03      [10] 1063 	ld	hl, #_cu + 0
   04E7 5E            [ 7] 1064 	ld	e,(hl)
   04E8 16 00         [ 7] 1065 	ld	d,#0x00
   04EA 13            [ 6] 1066 	inc	de
   04EB 13            [ 6] 1067 	inc	de
   04EC 13            [ 6] 1068 	inc	de
   04ED 13            [ 6] 1069 	inc	de
   04EE 69            [ 4] 1070 	ld	l,c
   04EF 26 00         [ 7] 1071 	ld	h,#0x00
   04F1 7B            [ 4] 1072 	ld	a,e
   04F2 95            [ 4] 1073 	sub	a, l
   04F3 7A            [ 4] 1074 	ld	a,d
   04F4 9C            [ 4] 1075 	sbc	a, h
   04F5 E2rFAr04      [10] 1076 	jp	PO, 00207$
   04F8 EE 80         [ 7] 1077 	xor	a, #0x80
   04FA                    1078 00207$:
   04FA F2r42r06      [10] 1079 	jp	P,00134$
                           1080 ;src/main.c:241: if( !(enemy->x - (cu.x + G_KNIFEX_0_W) > 1)){ // si hay espacio entre el enemigo y el cu
   04FD BF            [ 4] 1081 	cp	a, a
   04FE ED 52         [15] 1082 	sbc	hl, de
   0500 3E 01         [ 7] 1083 	ld	a,#0x01
   0502 BD            [ 4] 1084 	cp	a, l
   0503 3E 00         [ 7] 1085 	ld	a,#0x00
   0505 9C            [ 4] 1086 	sbc	a, h
   0506 E2r0Br05      [10] 1087 	jp	PO, 00208$
   0509 EE 80         [ 7] 1088 	xor	a, #0x80
   050B                    1089 00208$:
   050B FAr42r06      [10] 1090 	jp	M,00134$
                           1091 ;src/main.c:242: enemy->muerto = SI;
   050E E1            [10] 1092 	pop	hl
   050F E5            [11] 1093 	push	hl
   0510 36 01         [10] 1094 	ld	(hl),#0x01
                           1095 ;src/main.c:246: break;
   0512 C3r42r06      [10] 1096 	jp	00134$
                           1097 ;src/main.c:247: case 1:
   0515                    1098 00109$:
                           1099 ;src/main.c:248: if( !((cu.y + G_KNIFEX_0_H) < enemy->y || cu.y  > (enemy->y + G_ENEMY_H))){
   0515 21r95r03      [10] 1100 	ld	hl, #_cu + 1
   0518 4E            [ 7] 1101 	ld	c,(hl)
   0519 06 00         [ 7] 1102 	ld	b,#0x00
   051B 21 04 00      [10] 1103 	ld	hl,#0x0004
   051E 09            [11] 1104 	add	hl,bc
   051F EB            [ 4] 1105 	ex	de,hl
   0520 DD 6E FE      [19] 1106 	ld	l,-2 (ix)
   0523 DD 66 FF      [19] 1107 	ld	h,-1 (ix)
   0526 6E            [ 7] 1108 	ld	l,(hl)
   0527 26 00         [ 7] 1109 	ld	h,#0x00
   0529 7B            [ 4] 1110 	ld	a,e
   052A 95            [ 4] 1111 	sub	a, l
   052B 7A            [ 4] 1112 	ld	a,d
   052C 9C            [ 4] 1113 	sbc	a, h
   052D E2r32r05      [10] 1114 	jp	PO, 00209$
   0530 EE 80         [ 7] 1115 	xor	a, #0x80
   0532                    1116 00209$:
   0532 FAr42r06      [10] 1117 	jp	M,00134$
   0535 11 16 00      [10] 1118 	ld	de,#0x0016
   0538 19            [11] 1119 	add	hl,de
   0539 7D            [ 4] 1120 	ld	a,l
   053A 91            [ 4] 1121 	sub	a, c
   053B 7C            [ 4] 1122 	ld	a,h
   053C 98            [ 4] 1123 	sbc	a, b
   053D E2r42r05      [10] 1124 	jp	PO, 00210$
   0540 EE 80         [ 7] 1125 	xor	a, #0x80
   0542                    1126 00210$:
   0542 FAr42r06      [10] 1127 	jp	M,00134$
                           1128 ;src/main.c:249: if(cu.x > enemy->x + G_ENEMY_W){ //si el cu esta abajo
   0545 21r94r03      [10] 1129 	ld	hl, #_cu + 0
   0548 4E            [ 7] 1130 	ld	c,(hl)
   0549 DD 6E FC      [19] 1131 	ld	l,-4 (ix)
   054C DD 66 FD      [19] 1132 	ld	h,-3 (ix)
   054F 5E            [ 7] 1133 	ld	e,(hl)
   0550 16 00         [ 7] 1134 	ld	d,#0x00
   0552 13            [ 6] 1135 	inc	de
   0553 13            [ 6] 1136 	inc	de
   0554 13            [ 6] 1137 	inc	de
   0555 13            [ 6] 1138 	inc	de
   0556 69            [ 4] 1139 	ld	l,c
   0557 26 00         [ 7] 1140 	ld	h,#0x00
   0559 7B            [ 4] 1141 	ld	a,e
   055A 95            [ 4] 1142 	sub	a, l
   055B 7A            [ 4] 1143 	ld	a,d
   055C 9C            [ 4] 1144 	sbc	a, h
   055D E2r62r05      [10] 1145 	jp	PO, 00211$
   0560 EE 80         [ 7] 1146 	xor	a, #0x80
   0562                    1147 00211$:
   0562 F2r42r06      [10] 1148 	jp	P,00134$
                           1149 ;src/main.c:250: if( !(cu.x - (enemy->x + G_ENEMY_W) > 1)){ // si hay espacio entre el enemigo y el cu
   0565 BF            [ 4] 1150 	cp	a, a
   0566 ED 52         [15] 1151 	sbc	hl, de
   0568 3E 01         [ 7] 1152 	ld	a,#0x01
   056A BD            [ 4] 1153 	cp	a, l
   056B 3E 00         [ 7] 1154 	ld	a,#0x00
   056D 9C            [ 4] 1155 	sbc	a, h
   056E E2r73r05      [10] 1156 	jp	PO, 00212$
   0571 EE 80         [ 7] 1157 	xor	a, #0x80
   0573                    1158 00212$:
   0573 FAr42r06      [10] 1159 	jp	M,00134$
                           1160 ;src/main.c:251: enemy->muerto = SI;
   0576 E1            [10] 1161 	pop	hl
   0577 E5            [11] 1162 	push	hl
   0578 36 01         [10] 1163 	ld	(hl),#0x01
                           1164 ;src/main.c:255: break;
   057A C3r42r06      [10] 1165 	jp	00134$
                           1166 ;src/main.c:257: case 2:
   057D                    1167 00117$:
                           1168 ;src/main.c:258: if( !((cu.x + G_KNIFEY_0_W) < enemy->x || cu.x  > (enemy->x + G_ENEMY_W)) ){
   057D 21r94r03      [10] 1169 	ld	hl, #_cu + 0
   0580 4E            [ 7] 1170 	ld	c,(hl)
   0581 06 00         [ 7] 1171 	ld	b,#0x00
   0583 59            [ 4] 1172 	ld	e, c
   0584 50            [ 4] 1173 	ld	d, b
   0585 13            [ 6] 1174 	inc	de
   0586 13            [ 6] 1175 	inc	de
   0587 DD 6E FC      [19] 1176 	ld	l,-4 (ix)
   058A DD 66 FD      [19] 1177 	ld	h,-3 (ix)
   058D 6E            [ 7] 1178 	ld	l,(hl)
   058E 26 00         [ 7] 1179 	ld	h,#0x00
   0590 7B            [ 4] 1180 	ld	a,e
   0591 95            [ 4] 1181 	sub	a, l
   0592 7A            [ 4] 1182 	ld	a,d
   0593 9C            [ 4] 1183 	sbc	a, h
   0594 E2r99r05      [10] 1184 	jp	PO, 00213$
   0597 EE 80         [ 7] 1185 	xor	a, #0x80
   0599                    1186 00213$:
   0599 FAr42r06      [10] 1187 	jp	M,00134$
   059C 11 04 00      [10] 1188 	ld	de,#0x0004
   059F 19            [11] 1189 	add	hl,de
   05A0 7D            [ 4] 1190 	ld	a,l
   05A1 91            [ 4] 1191 	sub	a, c
   05A2 7C            [ 4] 1192 	ld	a,h
   05A3 98            [ 4] 1193 	sbc	a, b
   05A4 E2rA9r05      [10] 1194 	jp	PO, 00214$
   05A7 EE 80         [ 7] 1195 	xor	a, #0x80
   05A9                    1196 00214$:
   05A9 FAr42r06      [10] 1197 	jp	M,00134$
                           1198 ;src/main.c:259: if(cu.y > enemy->y + G_ENEMY_H){ //si el cu esta abajo
   05AC 21r95r03      [10] 1199 	ld	hl, #(_cu + 0x0001) + 0
   05AF 4E            [ 7] 1200 	ld	c,(hl)
   05B0 DD 6E FE      [19] 1201 	ld	l,-2 (ix)
   05B3 DD 66 FF      [19] 1202 	ld	h,-1 (ix)
   05B6 5E            [ 7] 1203 	ld	e,(hl)
   05B7 16 00         [ 7] 1204 	ld	d,#0x00
   05B9 21 16 00      [10] 1205 	ld	hl,#0x0016
   05BC 19            [11] 1206 	add	hl,de
   05BD EB            [ 4] 1207 	ex	de,hl
   05BE 69            [ 4] 1208 	ld	l,c
   05BF 26 00         [ 7] 1209 	ld	h,#0x00
   05C1 7B            [ 4] 1210 	ld	a,e
   05C2 95            [ 4] 1211 	sub	a, l
   05C3 7A            [ 4] 1212 	ld	a,d
   05C4 9C            [ 4] 1213 	sbc	a, h
   05C5 E2rCAr05      [10] 1214 	jp	PO, 00215$
   05C8 EE 80         [ 7] 1215 	xor	a, #0x80
   05CA                    1216 00215$:
   05CA F2r42r06      [10] 1217 	jp	P,00134$
                           1218 ;src/main.c:260: if( !(cu.y - (enemy->y + G_ENEMY_H)  > 2)){ // si hay espacio entre el enemigo y el cu
   05CD BF            [ 4] 1219 	cp	a, a
   05CE ED 52         [15] 1220 	sbc	hl, de
   05D0 3E 02         [ 7] 1221 	ld	a,#0x02
   05D2 BD            [ 4] 1222 	cp	a, l
   05D3 3E 00         [ 7] 1223 	ld	a,#0x00
   05D5 9C            [ 4] 1224 	sbc	a, h
   05D6 E2rDBr05      [10] 1225 	jp	PO, 00216$
   05D9 EE 80         [ 7] 1226 	xor	a, #0x80
   05DB                    1227 00216$:
   05DB FAr42r06      [10] 1228 	jp	M,00134$
                           1229 ;src/main.c:261: enemy->muerto = SI;
   05DE E1            [10] 1230 	pop	hl
   05DF E5            [11] 1231 	push	hl
   05E0 36 01         [10] 1232 	ld	(hl),#0x01
                           1233 ;src/main.c:265: break;
   05E2 18 5E         [12] 1234 	jr	00134$
                           1235 ;src/main.c:266: case 3:
   05E4                    1236 00125$:
                           1237 ;src/main.c:267: if(!((cu.x + G_KNIFEY_0_W) < enemy->x || cu.x  > (enemy->x + G_ENEMY_W))){
   05E4 21r94r03      [10] 1238 	ld	hl, #_cu + 0
   05E7 4E            [ 7] 1239 	ld	c,(hl)
   05E8 06 00         [ 7] 1240 	ld	b,#0x00
   05EA 59            [ 4] 1241 	ld	e, c
   05EB 50            [ 4] 1242 	ld	d, b
   05EC 13            [ 6] 1243 	inc	de
   05ED 13            [ 6] 1244 	inc	de
   05EE DD 6E FC      [19] 1245 	ld	l,-4 (ix)
   05F1 DD 66 FD      [19] 1246 	ld	h,-3 (ix)
   05F4 6E            [ 7] 1247 	ld	l,(hl)
   05F5 26 00         [ 7] 1248 	ld	h,#0x00
   05F7 7B            [ 4] 1249 	ld	a,e
   05F8 95            [ 4] 1250 	sub	a, l
   05F9 7A            [ 4] 1251 	ld	a,d
   05FA 9C            [ 4] 1252 	sbc	a, h
   05FB E2r00r06      [10] 1253 	jp	PO, 00217$
   05FE EE 80         [ 7] 1254 	xor	a, #0x80
   0600                    1255 00217$:
   0600 FAr42r06      [10] 1256 	jp	M,00134$
   0603 11 04 00      [10] 1257 	ld	de,#0x0004
   0606 19            [11] 1258 	add	hl,de
   0607 7D            [ 4] 1259 	ld	a,l
   0608 91            [ 4] 1260 	sub	a, c
   0609 7C            [ 4] 1261 	ld	a,h
   060A 98            [ 4] 1262 	sbc	a, b
   060B E2r10r06      [10] 1263 	jp	PO, 00218$
   060E EE 80         [ 7] 1264 	xor	a, #0x80
   0610                    1265 00218$:
   0610 FAr42r06      [10] 1266 	jp	M,00134$
                           1267 ;src/main.c:268: if(enemy->y>cu.y){
   0613 DD 6E FE      [19] 1268 	ld	l,-2 (ix)
   0616 DD 66 FF      [19] 1269 	ld	h,-1 (ix)
   0619 4E            [ 7] 1270 	ld	c,(hl)
   061A 21r95r03      [10] 1271 	ld	hl, #(_cu + 0x0001) + 0
   061D 5E            [ 7] 1272 	ld	e,(hl)
   061E 7B            [ 4] 1273 	ld	a,e
   061F 91            [ 4] 1274 	sub	a, c
   0620 30 20         [12] 1275 	jr	NC,00134$
                           1276 ;src/main.c:269: if(!(enemy->y - (cu.y + G_KNIFEY_0_H)  > 2)){
   0622 06 00         [ 7] 1277 	ld	b,#0x00
   0624 16 00         [ 7] 1278 	ld	d,#0x00
   0626 21 08 00      [10] 1279 	ld	hl,#0x0008
   0629 19            [11] 1280 	add	hl,de
   062A 79            [ 4] 1281 	ld	a,c
   062B 95            [ 4] 1282 	sub	a, l
   062C 4F            [ 4] 1283 	ld	c,a
   062D 78            [ 4] 1284 	ld	a,b
   062E 9C            [ 4] 1285 	sbc	a, h
   062F 47            [ 4] 1286 	ld	b,a
   0630 3E 02         [ 7] 1287 	ld	a,#0x02
   0632 B9            [ 4] 1288 	cp	a, c
   0633 3E 00         [ 7] 1289 	ld	a,#0x00
   0635 98            [ 4] 1290 	sbc	a, b
   0636 E2r3Br06      [10] 1291 	jp	PO, 00219$
   0639 EE 80         [ 7] 1292 	xor	a, #0x80
   063B                    1293 00219$:
   063B FAr42r06      [10] 1294 	jp	M,00134$
                           1295 ;src/main.c:270: enemy->muerto = SI;
   063E E1            [10] 1296 	pop	hl
   063F E5            [11] 1297 	push	hl
   0640 36 01         [10] 1298 	ld	(hl),#0x01
                           1299 ;src/main.c:275: }
   0642                    1300 00134$:
   0642 DD F9         [10] 1301 	ld	sp, ix
   0644 DD E1         [14] 1302 	pop	ix
   0646 C9            [10] 1303 	ret
                           1304 ;src/main.c:278: void moverEnemigoArriba(TEnemy *enemy){
                           1305 ;	---------------------------------
                           1306 ; Function moverEnemigoArriba
                           1307 ; ---------------------------------
   0647                    1308 _moverEnemigoArriba::
   0647 DD E5         [15] 1309 	push	ix
   0649 DD 21 00 00   [14] 1310 	ld	ix,#0
   064D DD 39         [15] 1311 	add	ix,sp
                           1312 ;src/main.c:279: enemy->y--;
   064F DD 4E 04      [19] 1313 	ld	c,4 (ix)
   0652 DD 46 05      [19] 1314 	ld	b,5 (ix)
   0655 69            [ 4] 1315 	ld	l, c
   0656 60            [ 4] 1316 	ld	h, b
   0657 23            [ 6] 1317 	inc	hl
   0658 5E            [ 7] 1318 	ld	e,(hl)
   0659 1D            [ 4] 1319 	dec	e
   065A 73            [ 7] 1320 	ld	(hl),e
                           1321 ;src/main.c:280: enemy->y--;
   065B 1D            [ 4] 1322 	dec	e
   065C 73            [ 7] 1323 	ld	(hl),e
                           1324 ;src/main.c:281: enemy->mover = SI;
   065D 21 06 00      [10] 1325 	ld	hl,#0x0006
   0660 09            [11] 1326 	add	hl,bc
   0661 36 01         [10] 1327 	ld	(hl),#0x01
   0663 DD E1         [14] 1328 	pop	ix
   0665 C9            [10] 1329 	ret
                           1330 ;src/main.c:284: void moverEnemigoAbajo(TEnemy *enemy){
                           1331 ;	---------------------------------
                           1332 ; Function moverEnemigoAbajo
                           1333 ; ---------------------------------
   0666                    1334 _moverEnemigoAbajo::
   0666 DD E5         [15] 1335 	push	ix
   0668 DD 21 00 00   [14] 1336 	ld	ix,#0
   066C DD 39         [15] 1337 	add	ix,sp
                           1338 ;src/main.c:285: enemy->y++;
   066E DD 4E 04      [19] 1339 	ld	c,4 (ix)
   0671 DD 46 05      [19] 1340 	ld	b,5 (ix)
   0674 59            [ 4] 1341 	ld	e, c
   0675 50            [ 4] 1342 	ld	d, b
   0676 13            [ 6] 1343 	inc	de
   0677 1A            [ 7] 1344 	ld	a,(de)
   0678 3C            [ 4] 1345 	inc	a
   0679 12            [ 7] 1346 	ld	(de),a
                           1347 ;src/main.c:286: enemy->y++;
   067A 3C            [ 4] 1348 	inc	a
   067B 12            [ 7] 1349 	ld	(de),a
                           1350 ;src/main.c:287: enemy->mover = SI;
   067C 21 06 00      [10] 1351 	ld	hl,#0x0006
   067F 09            [11] 1352 	add	hl,bc
   0680 36 01         [10] 1353 	ld	(hl),#0x01
   0682 DD E1         [14] 1354 	pop	ix
   0684 C9            [10] 1355 	ret
                           1356 ;src/main.c:290: void moverEnemigoDerecha(TEnemy *enemy){
                           1357 ;	---------------------------------
                           1358 ; Function moverEnemigoDerecha
                           1359 ; ---------------------------------
   0685                    1360 _moverEnemigoDerecha::
                           1361 ;src/main.c:291: enemy->x++;
   0685 D1            [10] 1362 	pop	de
   0686 C1            [10] 1363 	pop	bc
   0687 C5            [11] 1364 	push	bc
   0688 D5            [11] 1365 	push	de
   0689 0A            [ 7] 1366 	ld	a,(bc)
   068A 3C            [ 4] 1367 	inc	a
   068B 02            [ 7] 1368 	ld	(bc),a
                           1369 ;src/main.c:292: enemy->x++;
   068C 3C            [ 4] 1370 	inc	a
   068D 02            [ 7] 1371 	ld	(bc),a
                           1372 ;src/main.c:293: enemy->mover = SI;
   068E 21 06 00      [10] 1373 	ld	hl,#0x0006
   0691 09            [11] 1374 	add	hl,bc
   0692 36 01         [10] 1375 	ld	(hl),#0x01
   0694 C9            [10] 1376 	ret
                           1377 ;src/main.c:296: void moverEnemigoIzquierda(TEnemy *enemy){
                           1378 ;	---------------------------------
                           1379 ; Function moverEnemigoIzquierda
                           1380 ; ---------------------------------
   0695                    1381 _moverEnemigoIzquierda::
                           1382 ;src/main.c:297: enemy->x--;
   0695 D1            [10] 1383 	pop	de
   0696 C1            [10] 1384 	pop	bc
   0697 C5            [11] 1385 	push	bc
   0698 D5            [11] 1386 	push	de
   0699 0A            [ 7] 1387 	ld	a,(bc)
   069A C6 FF         [ 7] 1388 	add	a,#0xFF
   069C 02            [ 7] 1389 	ld	(bc),a
                           1390 ;src/main.c:298: enemy->x--;
   069D C6 FF         [ 7] 1391 	add	a,#0xFF
   069F 02            [ 7] 1392 	ld	(bc),a
                           1393 ;src/main.c:299: enemy->mover = SI;
   06A0 21 06 00      [10] 1394 	ld	hl,#0x0006
   06A3 09            [11] 1395 	add	hl,bc
   06A4 36 01         [10] 1396 	ld	(hl),#0x01
   06A6 C9            [10] 1397 	ret
                           1398 ;src/main.c:302: void moverEnemigoPatrol(TEnemy* enemy){
                           1399 ;	---------------------------------
                           1400 ; Function moverEnemigoPatrol
                           1401 ; ---------------------------------
   06A7                    1402 _moverEnemigoPatrol::
   06A7 DD E5         [15] 1403 	push	ix
   06A9 DD 21 00 00   [14] 1404 	ld	ix,#0
   06AD DD 39         [15] 1405 	add	ix,sp
   06AF 21 F3 FF      [10] 1406 	ld	hl,#-13
   06B2 39            [11] 1407 	add	hl,sp
   06B3 F9            [ 6] 1408 	ld	sp,hl
                           1409 ;src/main.c:304: if(!enemy->muerto){
   06B4 DD 4E 04      [19] 1410 	ld	c,4 (ix)
   06B7 DD 46 05      [19] 1411 	ld	b,5 (ix)
   06BA C5            [11] 1412 	push	bc
   06BB FD E1         [14] 1413 	pop	iy
   06BD FD 7E 08      [19] 1414 	ld	a,8 (iy)
   06C0 B7            [ 4] 1415 	or	a, a
   06C1 C2rEBr08      [10] 1416 	jp	NZ,00118$
                           1417 ;src/main.c:305: if (!enemy->reversePatrol) {
   06C4 21 0B 00      [10] 1418 	ld	hl,#0x000B
   06C7 09            [11] 1419 	add	hl,bc
   06C8 DD 75 F9      [19] 1420 	ld	-7 (ix),l
   06CB DD 74 FA      [19] 1421 	ld	-6 (ix),h
   06CE DD 6E F9      [19] 1422 	ld	l,-7 (ix)
   06D1 DD 66 FA      [19] 1423 	ld	h,-6 (ix)
   06D4 7E            [ 7] 1424 	ld	a,(hl)
   06D5 DD 77 FF      [19] 1425 	ld	-1 (ix),a
                           1426 ;src/main.c:306: if(enemy->iter < enemy->longitud_camino){
   06D8 21 0D 00      [10] 1427 	ld	hl,#0x000D
   06DB 09            [11] 1428 	add	hl,bc
   06DC DD 75 FB      [19] 1429 	ld	-5 (ix),l
   06DF DD 74 FC      [19] 1430 	ld	-4 (ix),h
   06E2 DD 6E FB      [19] 1431 	ld	l,-5 (ix)
   06E5 DD 66 FC      [19] 1432 	ld	h,-4 (ix)
   06E8 5E            [ 7] 1433 	ld	e,(hl)
   06E9 23            [ 6] 1434 	inc	hl
   06EA 56            [ 7] 1435 	ld	d,(hl)
   06EB 21 E2 00      [10] 1436 	ld	hl,#0x00E2
   06EE 09            [11] 1437 	add	hl,bc
   06EF DD 75 FD      [19] 1438 	ld	-3 (ix),l
   06F2 DD 74 FE      [19] 1439 	ld	-2 (ix),h
                           1440 ;src/main.c:308: enemy->mover = SI;
   06F5 21 06 00      [10] 1441 	ld	hl,#0x0006
   06F8 09            [11] 1442 	add	hl,bc
   06F9 DD 75 F7      [19] 1443 	ld	-9 (ix),l
   06FC DD 74 F8      [19] 1444 	ld	-8 (ix),h
                           1445 ;src/main.c:310: enemy->x = enemy->camino[enemy->iter];
   06FF 21 1A 00      [10] 1446 	ld	hl,#0x001A
   0702 09            [11] 1447 	add	hl,bc
   0703 DD 75 F5      [19] 1448 	ld	-11 (ix),l
   0706 DD 74 F6      [19] 1449 	ld	-10 (ix),h
                           1450 ;src/main.c:312: enemy->y = enemy->camino[enemy->iter];
   0709 21 01 00      [10] 1451 	ld	hl,#0x0001
   070C 09            [11] 1452 	add	hl,bc
   070D E3            [19] 1453 	ex	(sp), hl
                           1454 ;src/main.c:305: if (!enemy->reversePatrol) {
   070E DD 7E FF      [19] 1455 	ld	a,-1 (ix)
   0711 B7            [ 4] 1456 	or	a, a
   0712 C2rE9r07      [10] 1457 	jp	NZ,00114$
                           1458 ;src/main.c:306: if(enemy->iter < enemy->longitud_camino){
   0715 DD 6E FD      [19] 1459 	ld	l,-3 (ix)
   0718 DD 66 FE      [19] 1460 	ld	h,-2 (ix)
   071B 6E            [ 7] 1461 	ld	l,(hl)
   071C 26 00         [ 7] 1462 	ld	h,#0x00
   071E 7B            [ 4] 1463 	ld	a,e
   071F 95            [ 4] 1464 	sub	a, l
   0720 7A            [ 4] 1465 	ld	a,d
   0721 9C            [ 4] 1466 	sbc	a, h
   0722 E2r27r07      [10] 1467 	jp	PO, 00144$
   0725 EE 80         [ 7] 1468 	xor	a, #0x80
   0727                    1469 00144$:
   0727 F2rC4r07      [10] 1470 	jp	P,00105$
                           1471 ;src/main.c:307: if(enemy->iter == 0){
   072A 7A            [ 4] 1472 	ld	a,d
   072B B3            [ 4] 1473 	or	a,e
   072C 20 50         [12] 1474 	jr	NZ,00102$
                           1475 ;src/main.c:308: enemy->mover = SI;
   072E DD 6E F7      [19] 1476 	ld	l,-9 (ix)
   0731 DD 66 F8      [19] 1477 	ld	h,-8 (ix)
   0734 36 01         [10] 1478 	ld	(hl),#0x01
                           1479 ;src/main.c:309: enemy->iter = 2;
   0736 DD 6E FB      [19] 1480 	ld	l,-5 (ix)
   0739 DD 66 FC      [19] 1481 	ld	h,-4 (ix)
   073C 36 02         [10] 1482 	ld	(hl),#0x02
   073E 23            [ 6] 1483 	inc	hl
   073F 36 00         [10] 1484 	ld	(hl),#0x00
                           1485 ;src/main.c:310: enemy->x = enemy->camino[enemy->iter];
   0741 DD 6E FB      [19] 1486 	ld	l,-5 (ix)
   0744 DD 66 FC      [19] 1487 	ld	h,-4 (ix)
   0747 5E            [ 7] 1488 	ld	e,(hl)
   0748 23            [ 6] 1489 	inc	hl
   0749 56            [ 7] 1490 	ld	d,(hl)
   074A DD 6E F5      [19] 1491 	ld	l,-11 (ix)
   074D DD 66 F6      [19] 1492 	ld	h,-10 (ix)
   0750 19            [11] 1493 	add	hl,de
   0751 7E            [ 7] 1494 	ld	a,(hl)
   0752 02            [ 7] 1495 	ld	(bc),a
                           1496 ;src/main.c:311: ++enemy->iter;
   0753 DD 6E FB      [19] 1497 	ld	l,-5 (ix)
   0756 DD 66 FC      [19] 1498 	ld	h,-4 (ix)
   0759 4E            [ 7] 1499 	ld	c,(hl)
   075A 23            [ 6] 1500 	inc	hl
   075B 46            [ 7] 1501 	ld	b,(hl)
   075C 03            [ 6] 1502 	inc	bc
   075D DD 6E FB      [19] 1503 	ld	l,-5 (ix)
   0760 DD 66 FC      [19] 1504 	ld	h,-4 (ix)
   0763 71            [ 7] 1505 	ld	(hl),c
   0764 23            [ 6] 1506 	inc	hl
   0765 70            [ 7] 1507 	ld	(hl),b
                           1508 ;src/main.c:312: enemy->y = enemy->camino[enemy->iter];
   0766 DD 6E F5      [19] 1509 	ld	l,-11 (ix)
   0769 DD 66 F6      [19] 1510 	ld	h,-10 (ix)
   076C 09            [11] 1511 	add	hl,bc
   076D 5E            [ 7] 1512 	ld	e,(hl)
   076E E1            [10] 1513 	pop	hl
   076F E5            [11] 1514 	push	hl
   0770 73            [ 7] 1515 	ld	(hl),e
                           1516 ;src/main.c:313: ++enemy->iter;
   0771 03            [ 6] 1517 	inc	bc
   0772 DD 6E FB      [19] 1518 	ld	l,-5 (ix)
   0775 DD 66 FC      [19] 1519 	ld	h,-4 (ix)
   0778 71            [ 7] 1520 	ld	(hl),c
   0779 23            [ 6] 1521 	inc	hl
   077A 70            [ 7] 1522 	ld	(hl),b
   077B C3rEBr08      [10] 1523 	jp	00118$
   077E                    1524 00102$:
                           1525 ;src/main.c:315: enemy->mover = SI;
   077E DD 6E F7      [19] 1526 	ld	l,-9 (ix)
   0781 DD 66 F8      [19] 1527 	ld	h,-8 (ix)
   0784 36 01         [10] 1528 	ld	(hl),#0x01
                           1529 ;src/main.c:316: enemy->x = enemy->camino[enemy->iter];
   0786 DD 6E FB      [19] 1530 	ld	l,-5 (ix)
   0789 DD 66 FC      [19] 1531 	ld	h,-4 (ix)
   078C 5E            [ 7] 1532 	ld	e,(hl)
   078D 23            [ 6] 1533 	inc	hl
   078E 56            [ 7] 1534 	ld	d,(hl)
   078F DD 6E F5      [19] 1535 	ld	l,-11 (ix)
   0792 DD 66 F6      [19] 1536 	ld	h,-10 (ix)
   0795 19            [11] 1537 	add	hl,de
   0796 7E            [ 7] 1538 	ld	a,(hl)
   0797 02            [ 7] 1539 	ld	(bc),a
                           1540 ;src/main.c:317: ++enemy->iter;
   0798 DD 6E FB      [19] 1541 	ld	l,-5 (ix)
   079B DD 66 FC      [19] 1542 	ld	h,-4 (ix)
   079E 5E            [ 7] 1543 	ld	e,(hl)
   079F 23            [ 6] 1544 	inc	hl
   07A0 56            [ 7] 1545 	ld	d,(hl)
   07A1 13            [ 6] 1546 	inc	de
   07A2 DD 6E FB      [19] 1547 	ld	l,-5 (ix)
   07A5 DD 66 FC      [19] 1548 	ld	h,-4 (ix)
   07A8 73            [ 7] 1549 	ld	(hl),e
   07A9 23            [ 6] 1550 	inc	hl
   07AA 72            [ 7] 1551 	ld	(hl),d
                           1552 ;src/main.c:318: enemy->y = enemy->camino[enemy->iter];
   07AB DD 6E F5      [19] 1553 	ld	l,-11 (ix)
   07AE DD 66 F6      [19] 1554 	ld	h,-10 (ix)
   07B1 19            [11] 1555 	add	hl,de
   07B2 7E            [ 7] 1556 	ld	a,(hl)
   07B3 E1            [10] 1557 	pop	hl
   07B4 E5            [11] 1558 	push	hl
   07B5 77            [ 7] 1559 	ld	(hl),a
                           1560 ;src/main.c:319: ++enemy->iter;
   07B6 13            [ 6] 1561 	inc	de
   07B7 4B            [ 4] 1562 	ld	c,e
   07B8 DD 6E FB      [19] 1563 	ld	l,-5 (ix)
   07BB DD 66 FC      [19] 1564 	ld	h,-4 (ix)
   07BE 71            [ 7] 1565 	ld	(hl),c
   07BF 23            [ 6] 1566 	inc	hl
   07C0 72            [ 7] 1567 	ld	(hl),d
   07C1 C3rEBr08      [10] 1568 	jp	00118$
   07C4                    1569 00105$:
                           1570 ;src/main.c:323: enemy->mover = NO;
   07C4 DD 6E F7      [19] 1571 	ld	l,-9 (ix)
   07C7 DD 66 F8      [19] 1572 	ld	h,-8 (ix)
   07CA 36 00         [10] 1573 	ld	(hl),#0x00
                           1574 ;src/main.c:324: enemy->iter = enemy->longitud_camino;
   07CC DD 6E FD      [19] 1575 	ld	l,-3 (ix)
   07CF DD 66 FE      [19] 1576 	ld	h,-2 (ix)
   07D2 4E            [ 7] 1577 	ld	c,(hl)
   07D3 06 00         [ 7] 1578 	ld	b,#0x00
   07D5 DD 6E FB      [19] 1579 	ld	l,-5 (ix)
   07D8 DD 66 FC      [19] 1580 	ld	h,-4 (ix)
   07DB 71            [ 7] 1581 	ld	(hl),c
   07DC 23            [ 6] 1582 	inc	hl
   07DD 70            [ 7] 1583 	ld	(hl),b
                           1584 ;src/main.c:325: enemy->reversePatrol = 1;
   07DE DD 6E F9      [19] 1585 	ld	l,-7 (ix)
   07E1 DD 66 FA      [19] 1586 	ld	h,-6 (ix)
   07E4 36 01         [10] 1587 	ld	(hl),#0x01
   07E6 C3rEBr08      [10] 1588 	jp	00118$
   07E9                    1589 00114$:
                           1590 ;src/main.c:328: if(enemy->iter > 0){
   07E9 AF            [ 4] 1591 	xor	a, a
   07EA BB            [ 4] 1592 	cp	a, e
   07EB 9A            [ 4] 1593 	sbc	a, d
   07EC E2rF1r07      [10] 1594 	jp	PO, 00145$
   07EF EE 80         [ 7] 1595 	xor	a, #0x80
   07F1                    1596 00145$:
   07F1 F2rD1r08      [10] 1597 	jp	P,00111$
                           1598 ;src/main.c:329: if(enemy->iter == enemy->longitud_camino){
   07F4 DD 6E FD      [19] 1599 	ld	l,-3 (ix)
   07F7 DD 66 FE      [19] 1600 	ld	h,-2 (ix)
   07FA 6E            [ 7] 1601 	ld	l,(hl)
   07FB DD 75 FD      [19] 1602 	ld	-3 (ix),l
   07FE DD 36 FE 00   [19] 1603 	ld	-2 (ix),#0x00
   0802 7B            [ 4] 1604 	ld	a,e
   0803 DD 96 FD      [19] 1605 	sub	a, -3 (ix)
   0806 C2r8Dr08      [10] 1606 	jp	NZ,00108$
   0809 7A            [ 4] 1607 	ld	a,d
   080A DD 96 FE      [19] 1608 	sub	a, -2 (ix)
   080D C2r8Dr08      [10] 1609 	jp	NZ,00108$
                           1610 ;src/main.c:330: enemy->mover = SI;
   0810 DD 6E F7      [19] 1611 	ld	l,-9 (ix)
   0813 DD 66 F8      [19] 1612 	ld	h,-8 (ix)
   0816 36 01         [10] 1613 	ld	(hl),#0x01
                           1614 ;src/main.c:331: enemy->iter = enemy->iter - 1;
   0818 DD 6E FB      [19] 1615 	ld	l,-5 (ix)
   081B DD 66 FC      [19] 1616 	ld	h,-4 (ix)
   081E 5E            [ 7] 1617 	ld	e,(hl)
   081F 23            [ 6] 1618 	inc	hl
   0820 56            [ 7] 1619 	ld	d,(hl)
   0821 7B            [ 4] 1620 	ld	a,e
   0822 C6 FF         [ 7] 1621 	add	a,#0xFF
   0824 DD 77 FD      [19] 1622 	ld	-3 (ix),a
   0827 7A            [ 4] 1623 	ld	a,d
   0828 CE FF         [ 7] 1624 	adc	a,#0xFF
   082A DD 77 FE      [19] 1625 	ld	-2 (ix),a
   082D DD 6E FB      [19] 1626 	ld	l,-5 (ix)
   0830 DD 66 FC      [19] 1627 	ld	h,-4 (ix)
   0833 DD 7E FD      [19] 1628 	ld	a,-3 (ix)
   0836 77            [ 7] 1629 	ld	(hl),a
   0837 23            [ 6] 1630 	inc	hl
   0838 DD 7E FE      [19] 1631 	ld	a,-2 (ix)
   083B 77            [ 7] 1632 	ld	(hl),a
                           1633 ;src/main.c:332: enemy->iter = enemy->iter - 2;
   083C DD 5E FD      [19] 1634 	ld	e,-3 (ix)
   083F DD 56 FE      [19] 1635 	ld	d,-2 (ix)
   0842 1B            [ 6] 1636 	dec	de
   0843 1B            [ 6] 1637 	dec	de
   0844 DD 6E FB      [19] 1638 	ld	l,-5 (ix)
   0847 DD 66 FC      [19] 1639 	ld	h,-4 (ix)
   084A 73            [ 7] 1640 	ld	(hl),e
   084B 23            [ 6] 1641 	inc	hl
   084C 72            [ 7] 1642 	ld	(hl),d
                           1643 ;src/main.c:333: enemy->y = enemy->camino[enemy->iter];
   084D DD 6E F5      [19] 1644 	ld	l,-11 (ix)
   0850 DD 66 F6      [19] 1645 	ld	h,-10 (ix)
   0853 19            [11] 1646 	add	hl,de
   0854 5E            [ 7] 1647 	ld	e,(hl)
   0855 E1            [10] 1648 	pop	hl
   0856 E5            [11] 1649 	push	hl
   0857 73            [ 7] 1650 	ld	(hl),e
                           1651 ;src/main.c:334: --enemy->iter;
   0858 DD 7E FD      [19] 1652 	ld	a,-3 (ix)
   085B C6 FD         [ 7] 1653 	add	a,#0xFD
   085D 5F            [ 4] 1654 	ld	e,a
   085E DD 7E FE      [19] 1655 	ld	a,-2 (ix)
   0861 CE FF         [ 7] 1656 	adc	a,#0xFF
   0863 57            [ 4] 1657 	ld	d,a
   0864 DD 6E FB      [19] 1658 	ld	l,-5 (ix)
   0867 DD 66 FC      [19] 1659 	ld	h,-4 (ix)
   086A 73            [ 7] 1660 	ld	(hl),e
   086B 23            [ 6] 1661 	inc	hl
   086C 72            [ 7] 1662 	ld	(hl),d
                           1663 ;src/main.c:335: enemy->x = enemy->camino[enemy->iter];
   086D DD 6E F5      [19] 1664 	ld	l,-11 (ix)
   0870 DD 66 F6      [19] 1665 	ld	h,-10 (ix)
   0873 19            [11] 1666 	add	hl,de
   0874 7E            [ 7] 1667 	ld	a,(hl)
   0875 02            [ 7] 1668 	ld	(bc),a
                           1669 ;src/main.c:336: --enemy->iter;
   0876 DD 7E FD      [19] 1670 	ld	a,-3 (ix)
   0879 C6 FC         [ 7] 1671 	add	a,#0xFC
   087B 4F            [ 4] 1672 	ld	c,a
   087C DD 7E FE      [19] 1673 	ld	a,-2 (ix)
   087F CE FF         [ 7] 1674 	adc	a,#0xFF
   0881 47            [ 4] 1675 	ld	b,a
   0882 DD 6E FB      [19] 1676 	ld	l,-5 (ix)
   0885 DD 66 FC      [19] 1677 	ld	h,-4 (ix)
   0888 71            [ 7] 1678 	ld	(hl),c
   0889 23            [ 6] 1679 	inc	hl
   088A 70            [ 7] 1680 	ld	(hl),b
   088B 18 5E         [12] 1681 	jr	00118$
   088D                    1682 00108$:
                           1683 ;src/main.c:338: enemy->mover = SI;
   088D DD 6E F7      [19] 1684 	ld	l,-9 (ix)
   0890 DD 66 F8      [19] 1685 	ld	h,-8 (ix)
   0893 36 01         [10] 1686 	ld	(hl),#0x01
                           1687 ;src/main.c:339: enemy->y = enemy->camino[enemy->iter];
   0895 DD 6E FB      [19] 1688 	ld	l,-5 (ix)
   0898 DD 66 FC      [19] 1689 	ld	h,-4 (ix)
   089B 5E            [ 7] 1690 	ld	e,(hl)
   089C 23            [ 6] 1691 	inc	hl
   089D 56            [ 7] 1692 	ld	d,(hl)
   089E DD 6E F5      [19] 1693 	ld	l,-11 (ix)
   08A1 DD 66 F6      [19] 1694 	ld	h,-10 (ix)
   08A4 19            [11] 1695 	add	hl,de
   08A5 5E            [ 7] 1696 	ld	e,(hl)
   08A6 E1            [10] 1697 	pop	hl
   08A7 E5            [11] 1698 	push	hl
   08A8 73            [ 7] 1699 	ld	(hl),e
                           1700 ;src/main.c:340: --enemy->iter;
   08A9 DD 6E FB      [19] 1701 	ld	l,-5 (ix)
   08AC DD 66 FC      [19] 1702 	ld	h,-4 (ix)
   08AF 5E            [ 7] 1703 	ld	e,(hl)
   08B0 23            [ 6] 1704 	inc	hl
   08B1 56            [ 7] 1705 	ld	d,(hl)
   08B2 1B            [ 6] 1706 	dec	de
   08B3 DD 6E FB      [19] 1707 	ld	l,-5 (ix)
   08B6 DD 66 FC      [19] 1708 	ld	h,-4 (ix)
   08B9 73            [ 7] 1709 	ld	(hl),e
   08BA 23            [ 6] 1710 	inc	hl
   08BB 72            [ 7] 1711 	ld	(hl),d
                           1712 ;src/main.c:341: enemy->x = enemy->camino[enemy->iter];
   08BC DD 6E F5      [19] 1713 	ld	l,-11 (ix)
   08BF DD 66 F6      [19] 1714 	ld	h,-10 (ix)
   08C2 19            [11] 1715 	add	hl,de
   08C3 7E            [ 7] 1716 	ld	a,(hl)
   08C4 02            [ 7] 1717 	ld	(bc),a
                           1718 ;src/main.c:342: --enemy->iter;
   08C5 1B            [ 6] 1719 	dec	de
   08C6 DD 6E FB      [19] 1720 	ld	l,-5 (ix)
   08C9 DD 66 FC      [19] 1721 	ld	h,-4 (ix)
   08CC 73            [ 7] 1722 	ld	(hl),e
   08CD 23            [ 6] 1723 	inc	hl
   08CE 72            [ 7] 1724 	ld	(hl),d
   08CF 18 1A         [12] 1725 	jr	00118$
   08D1                    1726 00111$:
                           1727 ;src/main.c:346: enemy->mover = NO;
   08D1 DD 6E F7      [19] 1728 	ld	l,-9 (ix)
   08D4 DD 66 F8      [19] 1729 	ld	h,-8 (ix)
   08D7 36 00         [10] 1730 	ld	(hl),#0x00
                           1731 ;src/main.c:347: enemy->iter = 0;
   08D9 DD 6E FB      [19] 1732 	ld	l,-5 (ix)
   08DC DD 66 FC      [19] 1733 	ld	h,-4 (ix)
   08DF AF            [ 4] 1734 	xor	a, a
   08E0 77            [ 7] 1735 	ld	(hl), a
   08E1 23            [ 6] 1736 	inc	hl
   08E2 77            [ 7] 1737 	ld	(hl), a
                           1738 ;src/main.c:348: enemy->reversePatrol = 0;
   08E3 DD 6E F9      [19] 1739 	ld	l,-7 (ix)
   08E6 DD 66 FA      [19] 1740 	ld	h,-6 (ix)
   08E9 36 00         [10] 1741 	ld	(hl),#0x00
   08EB                    1742 00118$:
   08EB DD F9         [10] 1743 	ld	sp, ix
   08ED DD E1         [14] 1744 	pop	ix
   08EF C9            [10] 1745 	ret
                           1746 ;src/main.c:354: void lookFor(TEnemy* enemy){
                           1747 ;	---------------------------------
                           1748 ; Function lookFor
                           1749 ; ---------------------------------
   08F0                    1750 _lookFor::
   08F0 DD E5         [15] 1751 	push	ix
   08F2 DD 21 00 00   [14] 1752 	ld	ix,#0
   08F6 DD 39         [15] 1753 	add	ix,sp
   08F8 21 F9 FF      [10] 1754 	ld	hl,#-7
   08FB 39            [11] 1755 	add	hl,sp
   08FC F9            [ 6] 1756 	ld	sp,hl
                           1757 ;src/main.c:360: i16 difx = abs((i16)(enemy->x - prota.x));
   08FD DD 5E 04      [19] 1758 	ld	e,4 (ix)
   0900 DD 56 05      [19] 1759 	ld	d,5 (ix)
   0903 1A            [ 7] 1760 	ld	a,(de)
   0904 4F            [ 4] 1761 	ld	c,a
   0905 06 00         [ 7] 1762 	ld	b,#0x00
   0907 21r8Cr03      [10] 1763 	ld	hl,#_prota+0
   090A 6E            [ 7] 1764 	ld	l,(hl)
   090B 26 00         [ 7] 1765 	ld	h,#0x00
   090D 79            [ 4] 1766 	ld	a,c
   090E 95            [ 4] 1767 	sub	a, l
   090F 4F            [ 4] 1768 	ld	c,a
   0910 78            [ 4] 1769 	ld	a,b
   0911 9C            [ 4] 1770 	sbc	a, h
   0912 47            [ 4] 1771 	ld	b,a
   0913 D5            [11] 1772 	push	de
   0914 C5            [11] 1773 	push	bc
   0915 CDr00r00      [17] 1774 	call	_abs
   0918 F1            [10] 1775 	pop	af
   0919 D1            [10] 1776 	pop	de
   091A DD 75 FA      [19] 1777 	ld	-6 (ix),l
   091D DD 74 FB      [19] 1778 	ld	-5 (ix),h
                           1779 ;src/main.c:361: i16 dify = abs((i16)(enemy->y - prota.y));
   0920 21 01 00      [10] 1780 	ld	hl,#0x0001
   0923 19            [11] 1781 	add	hl,de
   0924 DD 75 FE      [19] 1782 	ld	-2 (ix),l
   0927 DD 74 FF      [19] 1783 	ld	-1 (ix),h
   092A DD 6E FE      [19] 1784 	ld	l,-2 (ix)
   092D DD 66 FF      [19] 1785 	ld	h,-1 (ix)
   0930 4E            [ 7] 1786 	ld	c,(hl)
   0931 06 00         [ 7] 1787 	ld	b,#0x00
   0933 21r8Dr03      [10] 1788 	ld	hl, #(_prota + 0x0001) + 0
   0936 6E            [ 7] 1789 	ld	l,(hl)
   0937 26 00         [ 7] 1790 	ld	h,#0x00
   0939 79            [ 4] 1791 	ld	a,c
   093A 95            [ 4] 1792 	sub	a, l
   093B 4F            [ 4] 1793 	ld	c,a
   093C 78            [ 4] 1794 	ld	a,b
   093D 9C            [ 4] 1795 	sbc	a, h
   093E 47            [ 4] 1796 	ld	b,a
   093F D5            [11] 1797 	push	de
   0940 C5            [11] 1798 	push	bc
   0941 CDr00r00      [17] 1799 	call	_abs
   0944 F1            [10] 1800 	pop	af
   0945 D1            [10] 1801 	pop	de
                           1802 ;src/main.c:363: dist = difx + dify; // manhattan
   0946 DD 4E FA      [19] 1803 	ld	c,-6 (ix)
   0949 09            [11] 1804 	add	hl, bc
   094A DD 75 F9      [19] 1805 	ld	-7 (ix),l
                           1806 ;src/main.c:364: enemy->seen = NO;
   094D 21 11 00      [10] 1807 	ld	hl,#0x0011
   0950 19            [11] 1808 	add	hl,de
   0951 DD 75 FC      [19] 1809 	ld	-4 (ix),l
   0954 DD 74 FD      [19] 1810 	ld	-3 (ix),h
   0957 DD 6E FC      [19] 1811 	ld	l,-4 (ix)
   095A DD 66 FD      [19] 1812 	ld	h,-3 (ix)
   095D 36 00         [10] 1813 	ld	(hl),#0x00
                           1814 ;src/main.c:365: enemy->in_range = NO;
   095F 21 10 00      [10] 1815 	ld	hl,#0x0010
   0962 19            [11] 1816 	add	hl,de
   0963 4D            [ 4] 1817 	ld	c,l
   0964 44            [ 4] 1818 	ld	b,h
   0965 AF            [ 4] 1819 	xor	a, a
   0966 02            [ 7] 1820 	ld	(bc),a
                           1821 ;src/main.c:367: if(!enemy->seek){
   0967 D5            [11] 1822 	push	de
   0968 FD E1         [14] 1823 	pop	iy
   096A FD 7E 13      [19] 1824 	ld	a,19 (iy)
   096D B7            [ 4] 1825 	or	a, a
   096E C2rF4r09      [10] 1826 	jp	NZ,00111$
                           1827 ;src/main.c:368: if (dist <= 17) {// te detectan los sensores de proximidad
   0971 3E 11         [ 7] 1828 	ld	a,#0x11
   0973 DD 96 F9      [19] 1829 	sub	a, -7 (ix)
   0976 38 13         [12] 1830 	jr	C,00107$
                           1831 ;src/main.c:369: enemy->in_range = 1;
   0978 3E 01         [ 7] 1832 	ld	a,#0x01
   097A 02            [ 7] 1833 	ld	(bc),a
                           1834 ;src/main.c:370: enemy->engage = 1;
   097B 21 15 00      [10] 1835 	ld	hl,#0x0015
   097E 19            [11] 1836 	add	hl,de
   097F 36 01         [10] 1837 	ld	(hl),#0x01
                           1838 ;src/main.c:371: enemy->seen = SI;
   0981 DD 6E FC      [19] 1839 	ld	l,-4 (ix)
   0984 DD 66 FD      [19] 1840 	ld	h,-3 (ix)
   0987 36 01         [10] 1841 	ld	(hl),#0x01
   0989 18 69         [12] 1842 	jr	00111$
   098B                    1843 00107$:
                           1844 ;src/main.c:372: }else if(prota.x > enemy->x - 20 && prota.x < enemy->x + 20
   098B 21r8Cr03      [10] 1845 	ld	hl, #_prota + 0
   098E 4E            [ 7] 1846 	ld	c,(hl)
   098F 1A            [ 7] 1847 	ld	a,(de)
   0990 5F            [ 4] 1848 	ld	e,a
   0991 16 00         [ 7] 1849 	ld	d,#0x00
   0993 7B            [ 4] 1850 	ld	a,e
   0994 C6 EC         [ 7] 1851 	add	a,#0xEC
   0996 6F            [ 4] 1852 	ld	l,a
   0997 7A            [ 4] 1853 	ld	a,d
   0998 CE FF         [ 7] 1854 	adc	a,#0xFF
   099A 67            [ 4] 1855 	ld	h,a
   099B 06 00         [ 7] 1856 	ld	b,#0x00
   099D 7D            [ 4] 1857 	ld	a,l
   099E 91            [ 4] 1858 	sub	a, c
   099F 7C            [ 4] 1859 	ld	a,h
   09A0 98            [ 4] 1860 	sbc	a, b
   09A1 E2rA6r09      [10] 1861 	jp	PO, 00137$
   09A4 EE 80         [ 7] 1862 	xor	a, #0x80
   09A6                    1863 00137$:
   09A6 F2rF4r09      [10] 1864 	jp	P,00111$
   09A9 21 14 00      [10] 1865 	ld	hl,#0x0014
   09AC 19            [11] 1866 	add	hl,de
   09AD 79            [ 4] 1867 	ld	a,c
   09AE 95            [ 4] 1868 	sub	a, l
   09AF 78            [ 4] 1869 	ld	a,b
   09B0 9C            [ 4] 1870 	sbc	a, h
   09B1 E2rB6r09      [10] 1871 	jp	PO, 00138$
   09B4 EE 80         [ 7] 1872 	xor	a, #0x80
   09B6                    1873 00138$:
   09B6 F2rF4r09      [10] 1874 	jp	P,00111$
                           1875 ;src/main.c:373: && prota.y > enemy->y - 20*2 && prota.y < enemy->y + 20*2){
   09B9 21r8Dr03      [10] 1876 	ld	hl, #(_prota + 0x0001) + 0
   09BC 4E            [ 7] 1877 	ld	c,(hl)
   09BD DD 6E FE      [19] 1878 	ld	l,-2 (ix)
   09C0 DD 66 FF      [19] 1879 	ld	h,-1 (ix)
   09C3 5E            [ 7] 1880 	ld	e,(hl)
   09C4 16 00         [ 7] 1881 	ld	d,#0x00
   09C6 7B            [ 4] 1882 	ld	a,e
   09C7 C6 D8         [ 7] 1883 	add	a,#0xD8
   09C9 6F            [ 4] 1884 	ld	l,a
   09CA 7A            [ 4] 1885 	ld	a,d
   09CB CE FF         [ 7] 1886 	adc	a,#0xFF
   09CD 67            [ 4] 1887 	ld	h,a
   09CE 06 00         [ 7] 1888 	ld	b,#0x00
   09D0 7D            [ 4] 1889 	ld	a,l
   09D1 91            [ 4] 1890 	sub	a, c
   09D2 7C            [ 4] 1891 	ld	a,h
   09D3 98            [ 4] 1892 	sbc	a, b
   09D4 E2rD9r09      [10] 1893 	jp	PO, 00139$
   09D7 EE 80         [ 7] 1894 	xor	a, #0x80
   09D9                    1895 00139$:
   09D9 F2rF4r09      [10] 1896 	jp	P,00111$
   09DC 21 28 00      [10] 1897 	ld	hl,#0x0028
   09DF 19            [11] 1898 	add	hl,de
   09E0 79            [ 4] 1899 	ld	a,c
   09E1 95            [ 4] 1900 	sub	a, l
   09E2 78            [ 4] 1901 	ld	a,b
   09E3 9C            [ 4] 1902 	sbc	a, h
   09E4 E2rE9r09      [10] 1903 	jp	PO, 00140$
   09E7 EE 80         [ 7] 1904 	xor	a, #0x80
   09E9                    1905 00140$:
   09E9 F2rF4r09      [10] 1906 	jp	P,00111$
                           1907 ;src/main.c:374: enemy->seen = SI;
   09EC DD 6E FC      [19] 1908 	ld	l,-4 (ix)
   09EF DD 66 FD      [19] 1909 	ld	h,-3 (ix)
   09F2 36 01         [10] 1910 	ld	(hl),#0x01
   09F4                    1911 00111$:
   09F4 DD F9         [10] 1912 	ld	sp, ix
   09F6 DD E1         [14] 1913 	pop	ix
   09F8 C9            [10] 1914 	ret
                           1915 ;src/main.c:379: void moverEnemigoSeek(TEnemy* actual){
                           1916 ;	---------------------------------
                           1917 ; Function moverEnemigoSeek
                           1918 ; ---------------------------------
   09F9                    1919 _moverEnemigoSeek::
   09F9 DD E5         [15] 1920 	push	ix
   09FB DD 21 00 00   [14] 1921 	ld	ix,#0
   09FF DD 39         [15] 1922 	add	ix,sp
   0A01 21 F6 FF      [10] 1923 	ld	hl,#-10
   0A04 39            [11] 1924 	add	hl,sp
   0A05 F9            [ 6] 1925 	ld	sp,hl
                           1926 ;src/main.c:381: if(!actual->muerto){
   0A06 DD 4E 04      [19] 1927 	ld	c,4 (ix)
   0A09 DD 46 05      [19] 1928 	ld	b,5 (ix)
   0A0C C5            [11] 1929 	push	bc
   0A0D FD E1         [14] 1930 	pop	iy
   0A0F FD 7E 08      [19] 1931 	ld	a, 8 (iy)
   0A12 B7            [ 4] 1932 	or	a, a
   0A13 C2rA6r0B      [10] 1933 	jp	NZ,00114$
                           1934 ;src/main.c:384: if(actual->iter < actual->longitud_camino){
   0A16 21 0D 00      [10] 1935 	ld	hl,#0x000D
   0A19 09            [11] 1936 	add	hl,bc
   0A1A DD 75 FE      [19] 1937 	ld	-2 (ix),l
   0A1D DD 74 FF      [19] 1938 	ld	-1 (ix),h
   0A20 DD 6E FE      [19] 1939 	ld	l,-2 (ix)
   0A23 DD 66 FF      [19] 1940 	ld	h,-1 (ix)
   0A26 7E            [ 7] 1941 	ld	a,(hl)
   0A27 DD 77 FC      [19] 1942 	ld	-4 (ix),a
   0A2A 23            [ 6] 1943 	inc	hl
   0A2B 7E            [ 7] 1944 	ld	a,(hl)
   0A2C DD 77 FD      [19] 1945 	ld	-3 (ix),a
   0A2F 69            [ 4] 1946 	ld	l, c
   0A30 60            [ 4] 1947 	ld	h, b
   0A31 11 E2 00      [10] 1948 	ld	de, #0x00E2
   0A34 19            [11] 1949 	add	hl, de
   0A35 5E            [ 7] 1950 	ld	e,(hl)
   0A36 16 00         [ 7] 1951 	ld	d,#0x00
                           1952 ;src/main.c:393: actual->y = actual->camino[actual->iter];
   0A38 21 01 00      [10] 1953 	ld	hl,#0x0001
   0A3B 09            [11] 1954 	add	hl,bc
   0A3C DD 75 FA      [19] 1955 	ld	-6 (ix),l
   0A3F DD 74 FB      [19] 1956 	ld	-5 (ix),h
                           1957 ;src/main.c:384: if(actual->iter < actual->longitud_camino){
   0A42 DD 7E FC      [19] 1958 	ld	a,-4 (ix)
   0A45 93            [ 4] 1959 	sub	a, e
   0A46 DD 7E FD      [19] 1960 	ld	a,-3 (ix)
   0A49 9A            [ 4] 1961 	sbc	a, d
   0A4A E2r4Fr0A      [10] 1962 	jp	PO, 00136$
   0A4D EE 80         [ 7] 1963 	xor	a, #0x80
   0A4F                    1964 00136$:
   0A4F F2rE3r0A      [10] 1965 	jp	P,00110$
                           1966 ;src/main.c:389: actual->mover = SI;
   0A52 21 06 00      [10] 1967 	ld	hl,#0x0006
   0A55 09            [11] 1968 	add	hl,bc
                           1969 ;src/main.c:391: actual->x = actual->camino[actual->iter];
   0A56 79            [ 4] 1970 	ld	a,c
   0A57 C6 1A         [ 7] 1971 	add	a, #0x1A
   0A59 5F            [ 4] 1972 	ld	e,a
   0A5A 78            [ 4] 1973 	ld	a,b
   0A5B CE 00         [ 7] 1974 	adc	a, #0x00
   0A5D 57            [ 4] 1975 	ld	d,a
                           1976 ;src/main.c:387: if(actual->iter == 0){
   0A5E DD 7E FD      [19] 1977 	ld	a,-3 (ix)
   0A61 DD B6 FC      [19] 1978 	or	a,-4 (ix)
   0A64 20 44         [12] 1979 	jr	NZ,00102$
                           1980 ;src/main.c:389: actual->mover = SI;
   0A66 36 01         [10] 1981 	ld	(hl),#0x01
                           1982 ;src/main.c:390: actual->iter = 2;
   0A68 DD 6E FE      [19] 1983 	ld	l,-2 (ix)
   0A6B DD 66 FF      [19] 1984 	ld	h,-1 (ix)
   0A6E 36 02         [10] 1985 	ld	(hl),#0x02
   0A70 23            [ 6] 1986 	inc	hl
   0A71 36 00         [10] 1987 	ld	(hl),#0x00
                           1988 ;src/main.c:391: actual->x = actual->camino[actual->iter];
   0A73 DD 6E FE      [19] 1989 	ld	l,-2 (ix)
   0A76 DD 66 FF      [19] 1990 	ld	h,-1 (ix)
   0A79 7E            [ 7] 1991 	ld	a, (hl)
   0A7A 23            [ 6] 1992 	inc	hl
   0A7B 66            [ 7] 1993 	ld	h,(hl)
   0A7C 6F            [ 4] 1994 	ld	l,a
   0A7D 19            [11] 1995 	add	hl,de
   0A7E 7E            [ 7] 1996 	ld	a,(hl)
   0A7F 02            [ 7] 1997 	ld	(bc),a
                           1998 ;src/main.c:392: ++actual->iter;
   0A80 DD 6E FE      [19] 1999 	ld	l,-2 (ix)
   0A83 DD 66 FF      [19] 2000 	ld	h,-1 (ix)
   0A86 4E            [ 7] 2001 	ld	c,(hl)
   0A87 23            [ 6] 2002 	inc	hl
   0A88 46            [ 7] 2003 	ld	b,(hl)
   0A89 03            [ 6] 2004 	inc	bc
   0A8A DD 6E FE      [19] 2005 	ld	l,-2 (ix)
   0A8D DD 66 FF      [19] 2006 	ld	h,-1 (ix)
   0A90 71            [ 7] 2007 	ld	(hl),c
   0A91 23            [ 6] 2008 	inc	hl
   0A92 70            [ 7] 2009 	ld	(hl),b
                           2010 ;src/main.c:393: actual->y = actual->camino[actual->iter];
   0A93 EB            [ 4] 2011 	ex	de,hl
   0A94 09            [11] 2012 	add	hl,bc
   0A95 5E            [ 7] 2013 	ld	e,(hl)
   0A96 DD 6E FA      [19] 2014 	ld	l,-6 (ix)
   0A99 DD 66 FB      [19] 2015 	ld	h,-5 (ix)
   0A9C 73            [ 7] 2016 	ld	(hl),e
                           2017 ;src/main.c:394: ++actual->iter;
   0A9D 03            [ 6] 2018 	inc	bc
   0A9E DD 6E FE      [19] 2019 	ld	l,-2 (ix)
   0AA1 DD 66 FF      [19] 2020 	ld	h,-1 (ix)
   0AA4 71            [ 7] 2021 	ld	(hl),c
   0AA5 23            [ 6] 2022 	inc	hl
   0AA6 70            [ 7] 2023 	ld	(hl),b
   0AA7 C3rA6r0B      [10] 2024 	jp	00114$
   0AAA                    2025 00102$:
                           2026 ;src/main.c:397: actual->mover = SI;
   0AAA 36 01         [10] 2027 	ld	(hl),#0x01
                           2028 ;src/main.c:398: actual->x = actual->camino[actual->iter];
   0AAC DD 6E FE      [19] 2029 	ld	l,-2 (ix)
   0AAF DD 66 FF      [19] 2030 	ld	h,-1 (ix)
   0AB2 7E            [ 7] 2031 	ld	a, (hl)
   0AB3 23            [ 6] 2032 	inc	hl
   0AB4 66            [ 7] 2033 	ld	h,(hl)
   0AB5 6F            [ 4] 2034 	ld	l,a
   0AB6 19            [11] 2035 	add	hl,de
   0AB7 7E            [ 7] 2036 	ld	a,(hl)
   0AB8 02            [ 7] 2037 	ld	(bc),a
                           2038 ;src/main.c:399: ++actual->iter;
   0AB9 DD 6E FE      [19] 2039 	ld	l,-2 (ix)
   0ABC DD 66 FF      [19] 2040 	ld	h,-1 (ix)
   0ABF 4E            [ 7] 2041 	ld	c,(hl)
   0AC0 23            [ 6] 2042 	inc	hl
   0AC1 46            [ 7] 2043 	ld	b,(hl)
   0AC2 03            [ 6] 2044 	inc	bc
   0AC3 DD 6E FE      [19] 2045 	ld	l,-2 (ix)
   0AC6 DD 66 FF      [19] 2046 	ld	h,-1 (ix)
   0AC9 71            [ 7] 2047 	ld	(hl),c
   0ACA 23            [ 6] 2048 	inc	hl
   0ACB 70            [ 7] 2049 	ld	(hl),b
                           2050 ;src/main.c:400: actual->y = actual->camino[actual->iter];
   0ACC EB            [ 4] 2051 	ex	de,hl
   0ACD 09            [11] 2052 	add	hl,bc
   0ACE 5E            [ 7] 2053 	ld	e,(hl)
   0ACF DD 6E FA      [19] 2054 	ld	l,-6 (ix)
   0AD2 DD 66 FB      [19] 2055 	ld	h,-5 (ix)
   0AD5 73            [ 7] 2056 	ld	(hl),e
                           2057 ;src/main.c:401: ++actual->iter;
   0AD6 03            [ 6] 2058 	inc	bc
   0AD7 DD 6E FE      [19] 2059 	ld	l,-2 (ix)
   0ADA DD 66 FF      [19] 2060 	ld	h,-1 (ix)
   0ADD 71            [ 7] 2061 	ld	(hl),c
   0ADE 23            [ 6] 2062 	inc	hl
   0ADF 70            [ 7] 2063 	ld	(hl),b
   0AE0 C3rA6r0B      [10] 2064 	jp	00114$
   0AE3                    2065 00110$:
                           2066 ;src/main.c:407: actual->seek = 0;
   0AE3 21 13 00      [10] 2067 	ld	hl,#0x0013
   0AE6 09            [11] 2068 	add	hl,bc
   0AE7 DD 75 FC      [19] 2069 	ld	-4 (ix),l
   0AEA DD 74 FD      [19] 2070 	ld	-3 (ix),h
   0AED DD 6E FC      [19] 2071 	ld	l,-4 (ix)
   0AF0 DD 66 FD      [19] 2072 	ld	h,-3 (ix)
   0AF3 36 00         [10] 2073 	ld	(hl),#0x00
                           2074 ;src/main.c:408: lookFor(actual);
   0AF5 C5            [11] 2075 	push	bc
   0AF6 C5            [11] 2076 	push	bc
   0AF7 CDrF0r08      [17] 2077 	call	_lookFor
   0AFA F1            [10] 2078 	pop	af
   0AFB C1            [10] 2079 	pop	bc
                           2080 ;src/main.c:409: if(!actual->seen){
   0AFC 69            [ 4] 2081 	ld	l, c
   0AFD 60            [ 4] 2082 	ld	h, b
   0AFE 11 11 00      [10] 2083 	ld	de, #0x0011
   0B01 19            [11] 2084 	add	hl, de
   0B02 7E            [ 7] 2085 	ld	a,(hl)
   0B03 DD 77 F9      [19] 2086 	ld	-7 (ix),a
                           2087 ;src/main.c:410: actual->patrolling = 1;
   0B06 21 0A 00      [10] 2088 	ld	hl,#0x000A
   0B09 09            [11] 2089 	add	hl,bc
   0B0A DD 75 F7      [19] 2090 	ld	-9 (ix),l
   0B0D DD 74 F8      [19] 2091 	ld	-8 (ix),h
                           2092 ;src/main.c:409: if(!actual->seen){
   0B10 DD 7E F9      [19] 2093 	ld	a,-7 (ix)
   0B13 B7            [ 4] 2094 	or	a, a
   0B14 20 3C         [12] 2095 	jr	NZ,00107$
                           2096 ;src/main.c:410: actual->patrolling = 1;
   0B16 DD 6E F7      [19] 2097 	ld	l,-9 (ix)
   0B19 DD 66 F8      [19] 2098 	ld	h,-8 (ix)
   0B1C 36 01         [10] 2099 	ld	(hl),#0x01
                           2100 ;src/main.c:411: pathFinding(actual->x, actual->y, actual->p_seek_x, actual->p_seek_y, actual, mapa);
   0B1E C5            [11] 2101 	push	bc
   0B1F FD E1         [14] 2102 	pop	iy
   0B21 FD 7E 18      [19] 2103 	ld	a,24 (iy)
   0B24 DD 77 F9      [19] 2104 	ld	-7 (ix),a
   0B27 C5            [11] 2105 	push	bc
   0B28 FD E1         [14] 2106 	pop	iy
   0B2A FD 56 17      [19] 2107 	ld	d,23 (iy)
   0B2D DD 6E FA      [19] 2108 	ld	l,-6 (ix)
   0B30 DD 66 FB      [19] 2109 	ld	h,-5 (ix)
   0B33 5E            [ 7] 2110 	ld	e,(hl)
   0B34 0A            [ 7] 2111 	ld	a,(bc)
   0B35 DD 77 F6      [19] 2112 	ld	-10 (ix),a
   0B38 2Ar00r00      [16] 2113 	ld	hl,(_mapa)
   0B3B E5            [11] 2114 	push	hl
   0B3C C5            [11] 2115 	push	bc
   0B3D DD 7E F9      [19] 2116 	ld	a,-7 (ix)
   0B40 F5            [11] 2117 	push	af
   0B41 33            [ 6] 2118 	inc	sp
   0B42 D5            [11] 2119 	push	de
   0B43 DD 7E F6      [19] 2120 	ld	a,-10 (ix)
   0B46 F5            [11] 2121 	push	af
   0B47 33            [ 6] 2122 	inc	sp
   0B48 CDr00r00      [17] 2123 	call	_pathFinding
   0B4B 21 08 00      [10] 2124 	ld	hl,#8
   0B4E 39            [11] 2125 	add	hl,sp
   0B4F F9            [ 6] 2126 	ld	sp,hl
   0B50 18 4A         [12] 2127 	jr	00108$
   0B52                    2128 00107$:
                           2129 ;src/main.c:413: actual->patrolling = 0;
   0B52 DD 6E F7      [19] 2130 	ld	l,-9 (ix)
   0B55 DD 66 F8      [19] 2131 	ld	h,-8 (ix)
   0B58 36 00         [10] 2132 	ld	(hl),#0x00
                           2133 ;src/main.c:414: if(!actual->engage){
   0B5A C5            [11] 2134 	push	bc
   0B5B FD E1         [14] 2135 	pop	iy
   0B5D FD 7E 15      [19] 2136 	ld	a,21 (iy)
   0B60 B7            [ 4] 2137 	or	a, a
   0B61 20 39         [12] 2138 	jr	NZ,00108$
                           2139 ;src/main.c:415: actual->seek = 1;
   0B63 DD 6E FC      [19] 2140 	ld	l,-4 (ix)
   0B66 DD 66 FD      [19] 2141 	ld	h,-3 (ix)
   0B69 36 01         [10] 2142 	ld	(hl),#0x01
                           2143 ;src/main.c:416: pathFinding(actual->x, actual->y, prota.x, prota.y, actual, mapa);
   0B6B 3Ar8Dr03      [13] 2144 	ld	a,(#_prota + 1)
   0B6E DD 77 F6      [19] 2145 	ld	-10 (ix),a
   0B71 21r8Cr03      [10] 2146 	ld	hl, #_prota + 0
   0B74 5E            [ 7] 2147 	ld	e,(hl)
   0B75 DD 6E FA      [19] 2148 	ld	l,-6 (ix)
   0B78 DD 66 FB      [19] 2149 	ld	h,-5 (ix)
   0B7B 56            [ 7] 2150 	ld	d,(hl)
   0B7C 0A            [ 7] 2151 	ld	a,(bc)
   0B7D DD 77 F7      [19] 2152 	ld	-9 (ix),a
   0B80 2Ar00r00      [16] 2153 	ld	hl,(_mapa)
   0B83 E5            [11] 2154 	push	hl
   0B84 C5            [11] 2155 	push	bc
   0B85 DD 7E F6      [19] 2156 	ld	a,-10 (ix)
   0B88 F5            [11] 2157 	push	af
   0B89 33            [ 6] 2158 	inc	sp
   0B8A 7B            [ 4] 2159 	ld	a,e
   0B8B F5            [11] 2160 	push	af
   0B8C 33            [ 6] 2161 	inc	sp
   0B8D D5            [11] 2162 	push	de
   0B8E 33            [ 6] 2163 	inc	sp
   0B8F DD 7E F7      [19] 2164 	ld	a,-9 (ix)
   0B92 F5            [11] 2165 	push	af
   0B93 33            [ 6] 2166 	inc	sp
   0B94 CDr00r00      [17] 2167 	call	_pathFinding
   0B97 21 08 00      [10] 2168 	ld	hl,#8
   0B9A 39            [11] 2169 	add	hl,sp
   0B9B F9            [ 6] 2170 	ld	sp,hl
   0B9C                    2171 00108$:
                           2172 ;src/main.c:419: actual->iter = 0;
   0B9C DD 6E FE      [19] 2173 	ld	l,-2 (ix)
   0B9F DD 66 FF      [19] 2174 	ld	h,-1 (ix)
   0BA2 AF            [ 4] 2175 	xor	a, a
   0BA3 77            [ 7] 2176 	ld	(hl), a
   0BA4 23            [ 6] 2177 	inc	hl
   0BA5 77            [ 7] 2178 	ld	(hl), a
   0BA6                    2179 00114$:
   0BA6 DD F9         [10] 2180 	ld	sp, ix
   0BA8 DD E1         [14] 2181 	pop	ix
   0BAA C9            [10] 2182 	ret
                           2183 ;src/main.c:425: void engage(TEnemy *enemy, u8 dx, u8 dy) {
                           2184 ;	---------------------------------
                           2185 ; Function engage
                           2186 ; ---------------------------------
   0BAB                    2187 _engage::
   0BAB DD E5         [15] 2188 	push	ix
   0BAD DD 21 00 00   [14] 2189 	ld	ix,#0
   0BB1 DD 39         [15] 2190 	add	ix,sp
   0BB3 21 F0 FF      [10] 2191 	ld	hl,#-16
   0BB6 39            [11] 2192 	add	hl,sp
   0BB7 F9            [ 6] 2193 	ld	sp,hl
                           2194 ;src/main.c:426: u8 difx = abs(enemy->x - prota.x); // calculo distancia para mantener una dist
   0BB8 DD 7E 04      [19] 2195 	ld	a,4 (ix)
   0BBB DD 77 F4      [19] 2196 	ld	-12 (ix),a
   0BBE DD 7E 05      [19] 2197 	ld	a,5 (ix)
   0BC1 DD 77 F5      [19] 2198 	ld	-11 (ix),a
   0BC4 DD 6E F4      [19] 2199 	ld	l,-12 (ix)
   0BC7 DD 66 F5      [19] 2200 	ld	h,-11 (ix)
   0BCA 4E            [ 7] 2201 	ld	c,(hl)
   0BCB 06 00         [ 7] 2202 	ld	b,#0x00
   0BCD 21r8Cr03      [10] 2203 	ld	hl,#_prota+0
   0BD0 5E            [ 7] 2204 	ld	e,(hl)
   0BD1 16 00         [ 7] 2205 	ld	d,#0x00
   0BD3 79            [ 4] 2206 	ld	a,c
   0BD4 93            [ 4] 2207 	sub	a, e
   0BD5 4F            [ 4] 2208 	ld	c,a
   0BD6 78            [ 4] 2209 	ld	a,b
   0BD7 9A            [ 4] 2210 	sbc	a, d
   0BD8 47            [ 4] 2211 	ld	b,a
   0BD9 C5            [11] 2212 	push	bc
   0BDA CDr00r00      [17] 2213 	call	_abs
   0BDD F1            [10] 2214 	pop	af
   0BDE 4D            [ 4] 2215 	ld	c,l
                           2216 ;src/main.c:427: u8 dify = abs(enemy->y - prota.y);
   0BDF DD 7E F4      [19] 2217 	ld	a,-12 (ix)
   0BE2 C6 01         [ 7] 2218 	add	a, #0x01
   0BE4 DD 77 F6      [19] 2219 	ld	-10 (ix),a
   0BE7 DD 7E F5      [19] 2220 	ld	a,-11 (ix)
   0BEA CE 00         [ 7] 2221 	adc	a, #0x00
   0BEC DD 77 F7      [19] 2222 	ld	-9 (ix),a
   0BEF DD 6E F6      [19] 2223 	ld	l,-10 (ix)
   0BF2 DD 66 F7      [19] 2224 	ld	h,-9 (ix)
   0BF5 5E            [ 7] 2225 	ld	e,(hl)
   0BF6 16 00         [ 7] 2226 	ld	d,#0x00
   0BF8 21r8Dr03      [10] 2227 	ld	hl, #_prota + 1
   0BFB 6E            [ 7] 2228 	ld	l,(hl)
   0BFC 26 00         [ 7] 2229 	ld	h,#0x00
   0BFE 7B            [ 4] 2230 	ld	a,e
   0BFF 95            [ 4] 2231 	sub	a, l
   0C00 5F            [ 4] 2232 	ld	e,a
   0C01 7A            [ 4] 2233 	ld	a,d
   0C02 9C            [ 4] 2234 	sbc	a, h
   0C03 57            [ 4] 2235 	ld	d,a
   0C04 C5            [11] 2236 	push	bc
   0C05 D5            [11] 2237 	push	de
   0C06 CDr00r00      [17] 2238 	call	_abs
   0C09 F1            [10] 2239 	pop	af
   0C0A C1            [10] 2240 	pop	bc
                           2241 ;src/main.c:428: u8 dist = difx + dify; // manhattan
   0C0B 09            [11] 2242 	add	hl, bc
   0C0C DD 75 F0      [19] 2243 	ld	-16 (ix),l
                           2244 ;src/main.c:430: u8 movX = 0;
   0C0F DD 36 F3 00   [19] 2245 	ld	-13 (ix),#0x00
                           2246 ;src/main.c:431: u8 movY = 0;
   0C13 DD 36 F2 00   [19] 2247 	ld	-14 (ix),#0x00
                           2248 ;src/main.c:432: u8 distConstraint = 25;
   0C17 DD 36 F1 19   [19] 2249 	ld	-15 (ix),#0x19
                           2250 ;src/main.c:433: enemy->mover = NO;
   0C1B DD 7E F4      [19] 2251 	ld	a,-12 (ix)
   0C1E C6 06         [ 7] 2252 	add	a, #0x06
   0C20 DD 77 F8      [19] 2253 	ld	-8 (ix),a
   0C23 DD 7E F5      [19] 2254 	ld	a,-11 (ix)
   0C26 CE 00         [ 7] 2255 	adc	a, #0x00
   0C28 DD 77 F9      [19] 2256 	ld	-7 (ix),a
   0C2B DD 6E F8      [19] 2257 	ld	l,-8 (ix)
   0C2E DD 66 F9      [19] 2258 	ld	h,-7 (ix)
   0C31 36 00         [10] 2259 	ld	(hl),#0x00
                           2260 ;src/main.c:443: enemy->didDamage = 1;
   0C33 DD 7E F4      [19] 2261 	ld	a,-12 (ix)
   0C36 C6 16         [ 7] 2262 	add	a, #0x16
   0C38 4F            [ 4] 2263 	ld	c,a
   0C39 DD 7E F5      [19] 2264 	ld	a,-11 (ix)
   0C3C CE 00         [ 7] 2265 	adc	a, #0x00
   0C3E 47            [ 4] 2266 	ld	b,a
                           2267 ;src/main.c:435: if (dist < 20) {
   0C3F DD 7E F0      [19] 2268 	ld	a,-16 (ix)
   0C42 D6 14         [ 7] 2269 	sub	a, #0x14
   0C44 30 3B         [12] 2270 	jr	NC,00107$
                           2271 ;src/main.c:436: vidas--;
   0C46 21rA3r03      [10] 2272 	ld	hl, #_vidas+0
   0C49 35            [11] 2273 	dec	(hl)
                           2274 ;src/main.c:437: if(vidas % 20 == 0){
   0C4A C5            [11] 2275 	push	bc
   0C4B 3E 14         [ 7] 2276 	ld	a,#0x14
   0C4D F5            [11] 2277 	push	af
   0C4E 33            [ 6] 2278 	inc	sp
   0C4F 3ArA3r03      [13] 2279 	ld	a,(_vidas)
   0C52 F5            [11] 2280 	push	af
   0C53 33            [ 6] 2281 	inc	sp
   0C54 CDr00r00      [17] 2282 	call	__moduchar
   0C57 F1            [10] 2283 	pop	af
   0C58 C1            [10] 2284 	pop	bc
   0C59 7D            [ 4] 2285 	ld	a,l
   0C5A B7            [ 4] 2286 	or	a, a
   0C5B 20 21         [12] 2287 	jr	NZ,00105$
                           2288 ;src/main.c:438: if (vidas == 0) {
   0C5D 3ArA3r03      [13] 2289 	ld	a,(#_vidas + 0)
   0C60 B7            [ 4] 2290 	or	a, a
   0C61 20 10         [12] 2291 	jr	NZ,00102$
                           2292 ;src/main.c:439: menuFin(puntuacion);
   0C63 FD 21r03r00   [14] 2293 	ld	iy,#_puntuacion
   0C67 FD 6E 00      [19] 2294 	ld	l,0 (iy)
   0C6A 26 00         [ 7] 2295 	ld	h,#0x00
   0C6C C5            [11] 2296 	push	bc
   0C6D CDr00r00      [17] 2297 	call	_menuFin
   0C70 C1            [10] 2298 	pop	bc
   0C71 18 0B         [12] 2299 	jr	00105$
   0C73                    2300 00102$:
                           2301 ;src/main.c:441: modificarVidas(vidas);
   0C73 C5            [11] 2302 	push	bc
   0C74 3ArA3r03      [13] 2303 	ld	a,(_vidas)
   0C77 F5            [11] 2304 	push	af
   0C78 33            [ 6] 2305 	inc	sp
   0C79 CDr00r00      [17] 2306 	call	_modificarVidas
   0C7C 33            [ 6] 2307 	inc	sp
   0C7D C1            [10] 2308 	pop	bc
   0C7E                    2309 00105$:
                           2310 ;src/main.c:443: enemy->didDamage = 1;
   0C7E 3E 01         [ 7] 2311 	ld	a,#0x01
   0C80 02            [ 7] 2312 	ld	(bc),a
   0C81                    2313 00107$:
                           2314 ;src/main.c:445: if (!enemy->didDamage) {
   0C81 0A            [ 7] 2315 	ld	a,(bc)
   0C82 B7            [ 4] 2316 	or	a, a
   0C83 C2rB9r13      [10] 2317 	jp	NZ,00208$
                           2318 ;src/main.c:446: if (enemy->y == dy || enemy->y == dy + 1 || enemy->y == dy - 1) { // alineado en el eje x
   0C86 DD 6E F6      [19] 2319 	ld	l,-10 (ix)
   0C89 DD 66 F7      [19] 2320 	ld	h,-9 (ix)
   0C8C 4E            [ 7] 2321 	ld	c,(hl)
                           2322 ;src/main.c:426: u8 difx = abs(enemy->x - prota.x); // calculo distancia para mantener una dist
   0C8D DD 6E F4      [19] 2323 	ld	l,-12 (ix)
   0C90 DD 66 F5      [19] 2324 	ld	h,-11 (ix)
   0C93 7E            [ 7] 2325 	ld	a,(hl)
                           2326 ;src/main.c:459: if(*getTilePtr(mapa, enemy->x + G_ENEMY_W, enemy->y) <= 2
   0C94 DD 77 FA      [19] 2327 	ld	-6 (ix), a
   0C97 C6 04         [ 7] 2328 	add	a, #0x04
   0C99 DD 77 FB      [19] 2329 	ld	-5 (ix),a
                           2330 ;src/main.c:446: if (enemy->y == dy || enemy->y == dy + 1 || enemy->y == dy - 1) { // alineado en el eje x
   0C9C DD 7E 07      [19] 2331 	ld	a,7 (ix)
   0C9F 91            [ 4] 2332 	sub	a, c
   0CA0 28 35         [12] 2333 	jr	Z,00201$
   0CA2 DD 5E 07      [19] 2334 	ld	e,7 (ix)
   0CA5 16 00         [ 7] 2335 	ld	d,#0x00
   0CA7 21 01 00      [10] 2336 	ld	hl,#0x0001
   0CAA 19            [11] 2337 	add	hl,de
   0CAB DD 75 FC      [19] 2338 	ld	-4 (ix),l
   0CAE DD 74 FD      [19] 2339 	ld	-3 (ix),h
   0CB1 DD 71 FE      [19] 2340 	ld	-2 (ix),c
   0CB4 DD 36 FF 00   [19] 2341 	ld	-1 (ix),#0x00
   0CB8 DD 7E FC      [19] 2342 	ld	a,-4 (ix)
   0CBB DD 96 FE      [19] 2343 	sub	a, -2 (ix)
   0CBE 20 08         [12] 2344 	jr	NZ,00447$
   0CC0 DD 7E FD      [19] 2345 	ld	a,-3 (ix)
   0CC3 DD 96 FF      [19] 2346 	sub	a, -1 (ix)
   0CC6 28 0F         [12] 2347 	jr	Z,00201$
   0CC8                    2348 00447$:
   0CC8 1B            [ 6] 2349 	dec	de
   0CC9 DD 7E FE      [19] 2350 	ld	a,-2 (ix)
   0CCC 93            [ 4] 2351 	sub	a, e
   0CCD C2rE4r0D      [10] 2352 	jp	NZ,00202$
   0CD0 DD 7E FF      [19] 2353 	ld	a,-1 (ix)
   0CD3 92            [ 4] 2354 	sub	a, d
   0CD4 C2rE4r0D      [10] 2355 	jp	NZ,00202$
   0CD7                    2356 00201$:
                           2357 ;src/main.c:447: if (dx < enemy->x) { // izquierda
   0CD7 DD 7E 06      [19] 2358 	ld	a,6 (ix)
   0CDA DD 96 FA      [19] 2359 	sub	a, -6 (ix)
   0CDD D2r60r0D      [10] 2360 	jp	NC,00121$
                           2361 ;src/main.c:448: if (dist > 11) {
   0CE0 3E 0B         [ 7] 2362 	ld	a,#0x0B
   0CE2 DD 96 F0      [19] 2363 	sub	a, -16 (ix)
   0CE5 D2rB9r13      [10] 2364 	jp	NC,00208$
                           2365 ;src/main.c:449: if(*getTilePtr(mapa, enemy->x, enemy->y) <= 2
   0CE8 79            [ 4] 2366 	ld	a,c
   0CE9 F5            [11] 2367 	push	af
   0CEA 33            [ 6] 2368 	inc	sp
   0CEB DD 7E FA      [19] 2369 	ld	a,-6 (ix)
   0CEE F5            [11] 2370 	push	af
   0CEF 33            [ 6] 2371 	inc	sp
   0CF0 2Ar00r00      [16] 2372 	ld	hl,(_mapa)
   0CF3 E5            [11] 2373 	push	hl
   0CF4 CDr00r00      [17] 2374 	call	_getTilePtr
   0CF7 F1            [10] 2375 	pop	af
   0CF8 F1            [10] 2376 	pop	af
   0CF9 4E            [ 7] 2377 	ld	c,(hl)
   0CFA 3E 02         [ 7] 2378 	ld	a,#0x02
   0CFC 91            [ 4] 2379 	sub	a, c
   0CFD DArB9r13      [10] 2380 	jp	C,00208$
                           2381 ;src/main.c:450: && *getTilePtr(mapa, enemy->x, enemy->y + G_ENEMY_H/2) <= 2
   0D00 DD 6E F6      [19] 2382 	ld	l,-10 (ix)
   0D03 DD 66 F7      [19] 2383 	ld	h,-9 (ix)
   0D06 7E            [ 7] 2384 	ld	a,(hl)
   0D07 C6 0B         [ 7] 2385 	add	a, #0x0B
   0D09 57            [ 4] 2386 	ld	d,a
   0D0A DD 6E F4      [19] 2387 	ld	l,-12 (ix)
   0D0D DD 66 F5      [19] 2388 	ld	h,-11 (ix)
   0D10 46            [ 7] 2389 	ld	b,(hl)
   0D11 D5            [11] 2390 	push	de
   0D12 33            [ 6] 2391 	inc	sp
   0D13 C5            [11] 2392 	push	bc
   0D14 33            [ 6] 2393 	inc	sp
   0D15 2Ar00r00      [16] 2394 	ld	hl,(_mapa)
   0D18 E5            [11] 2395 	push	hl
   0D19 CDr00r00      [17] 2396 	call	_getTilePtr
   0D1C F1            [10] 2397 	pop	af
   0D1D F1            [10] 2398 	pop	af
   0D1E 4E            [ 7] 2399 	ld	c,(hl)
   0D1F 3E 02         [ 7] 2400 	ld	a,#0x02
   0D21 91            [ 4] 2401 	sub	a, c
   0D22 DArB9r13      [10] 2402 	jp	C,00208$
                           2403 ;src/main.c:451: && *getTilePtr(mapa, enemy->x, enemy->y + G_ENEMY_H) <= 2) {
   0D25 DD 6E F6      [19] 2404 	ld	l,-10 (ix)
   0D28 DD 66 F7      [19] 2405 	ld	h,-9 (ix)
   0D2B 7E            [ 7] 2406 	ld	a,(hl)
   0D2C C6 16         [ 7] 2407 	add	a, #0x16
   0D2E 57            [ 4] 2408 	ld	d,a
   0D2F DD 6E F4      [19] 2409 	ld	l,-12 (ix)
   0D32 DD 66 F5      [19] 2410 	ld	h,-11 (ix)
   0D35 46            [ 7] 2411 	ld	b,(hl)
   0D36 D5            [11] 2412 	push	de
   0D37 33            [ 6] 2413 	inc	sp
   0D38 C5            [11] 2414 	push	bc
   0D39 33            [ 6] 2415 	inc	sp
   0D3A 2Ar00r00      [16] 2416 	ld	hl,(_mapa)
   0D3D E5            [11] 2417 	push	hl
   0D3E CDr00r00      [17] 2418 	call	_getTilePtr
   0D41 F1            [10] 2419 	pop	af
   0D42 F1            [10] 2420 	pop	af
   0D43 4E            [ 7] 2421 	ld	c,(hl)
   0D44 3E 02         [ 7] 2422 	ld	a,#0x02
   0D46 91            [ 4] 2423 	sub	a, c
   0D47 DArB9r13      [10] 2424 	jp	C,00208$
                           2425 ;src/main.c:452: moverEnemigoIzquierda(enemy);
   0D4A DD 6E F4      [19] 2426 	ld	l,-12 (ix)
   0D4D DD 66 F5      [19] 2427 	ld	h,-11 (ix)
   0D50 E5            [11] 2428 	push	hl
   0D51 CDr95r06      [17] 2429 	call	_moverEnemigoIzquierda
   0D54 F1            [10] 2430 	pop	af
                           2431 ;src/main.c:454: enemy->mover = SI;
   0D55 DD 6E F8      [19] 2432 	ld	l,-8 (ix)
   0D58 DD 66 F9      [19] 2433 	ld	h,-7 (ix)
   0D5B 36 01         [10] 2434 	ld	(hl),#0x01
   0D5D C3rB9r13      [10] 2435 	jp	00208$
   0D60                    2436 00121$:
                           2437 ;src/main.c:458: if (dist > G_ENEMY_W + 3) {
   0D60 3E 07         [ 7] 2438 	ld	a,#0x07
   0D62 DD 96 F0      [19] 2439 	sub	a, -16 (ix)
   0D65 D2rB9r13      [10] 2440 	jp	NC,00208$
                           2441 ;src/main.c:459: if(*getTilePtr(mapa, enemy->x + G_ENEMY_W, enemy->y) <= 2
   0D68 79            [ 4] 2442 	ld	a,c
   0D69 F5            [11] 2443 	push	af
   0D6A 33            [ 6] 2444 	inc	sp
   0D6B DD 7E FB      [19] 2445 	ld	a,-5 (ix)
   0D6E F5            [11] 2446 	push	af
   0D6F 33            [ 6] 2447 	inc	sp
   0D70 2Ar00r00      [16] 2448 	ld	hl,(_mapa)
   0D73 E5            [11] 2449 	push	hl
   0D74 CDr00r00      [17] 2450 	call	_getTilePtr
   0D77 F1            [10] 2451 	pop	af
   0D78 F1            [10] 2452 	pop	af
   0D79 4E            [ 7] 2453 	ld	c,(hl)
   0D7A 3E 02         [ 7] 2454 	ld	a,#0x02
   0D7C 91            [ 4] 2455 	sub	a, c
   0D7D DArB9r13      [10] 2456 	jp	C,00208$
                           2457 ;src/main.c:460: && *getTilePtr(mapa, enemy->x + G_ENEMY_W, enemy->y + G_ENEMY_H/2) <= 2
   0D80 DD 6E F6      [19] 2458 	ld	l,-10 (ix)
   0D83 DD 66 F7      [19] 2459 	ld	h,-9 (ix)
   0D86 7E            [ 7] 2460 	ld	a,(hl)
   0D87 C6 0B         [ 7] 2461 	add	a, #0x0B
   0D89 47            [ 4] 2462 	ld	b,a
   0D8A DD 6E F4      [19] 2463 	ld	l,-12 (ix)
   0D8D DD 66 F5      [19] 2464 	ld	h,-11 (ix)
   0D90 7E            [ 7] 2465 	ld	a,(hl)
   0D91 C6 04         [ 7] 2466 	add	a, #0x04
   0D93 C5            [11] 2467 	push	bc
   0D94 33            [ 6] 2468 	inc	sp
   0D95 F5            [11] 2469 	push	af
   0D96 33            [ 6] 2470 	inc	sp
   0D97 2Ar00r00      [16] 2471 	ld	hl,(_mapa)
   0D9A E5            [11] 2472 	push	hl
   0D9B CDr00r00      [17] 2473 	call	_getTilePtr
   0D9E F1            [10] 2474 	pop	af
   0D9F F1            [10] 2475 	pop	af
   0DA0 4E            [ 7] 2476 	ld	c,(hl)
   0DA1 3E 02         [ 7] 2477 	ld	a,#0x02
   0DA3 91            [ 4] 2478 	sub	a, c
   0DA4 DArB9r13      [10] 2479 	jp	C,00208$
                           2480 ;src/main.c:461: && *getTilePtr(mapa, enemy->x + G_ENEMY_W, enemy->y + G_ENEMY_H) <= 2) {
   0DA7 DD 6E F6      [19] 2481 	ld	l,-10 (ix)
   0DAA DD 66 F7      [19] 2482 	ld	h,-9 (ix)
   0DAD 7E            [ 7] 2483 	ld	a,(hl)
   0DAE C6 16         [ 7] 2484 	add	a, #0x16
   0DB0 47            [ 4] 2485 	ld	b,a
   0DB1 DD 6E F4      [19] 2486 	ld	l,-12 (ix)
   0DB4 DD 66 F5      [19] 2487 	ld	h,-11 (ix)
   0DB7 7E            [ 7] 2488 	ld	a,(hl)
   0DB8 C6 04         [ 7] 2489 	add	a, #0x04
   0DBA C5            [11] 2490 	push	bc
   0DBB 33            [ 6] 2491 	inc	sp
   0DBC F5            [11] 2492 	push	af
   0DBD 33            [ 6] 2493 	inc	sp
   0DBE 2Ar00r00      [16] 2494 	ld	hl,(_mapa)
   0DC1 E5            [11] 2495 	push	hl
   0DC2 CDr00r00      [17] 2496 	call	_getTilePtr
   0DC5 F1            [10] 2497 	pop	af
   0DC6 F1            [10] 2498 	pop	af
   0DC7 4E            [ 7] 2499 	ld	c,(hl)
   0DC8 3E 02         [ 7] 2500 	ld	a,#0x02
   0DCA 91            [ 4] 2501 	sub	a, c
   0DCB DArB9r13      [10] 2502 	jp	C,00208$
                           2503 ;src/main.c:462: moverEnemigoDerecha(enemy);
   0DCE DD 6E F4      [19] 2504 	ld	l,-12 (ix)
   0DD1 DD 66 F5      [19] 2505 	ld	h,-11 (ix)
   0DD4 E5            [11] 2506 	push	hl
   0DD5 CDr85r06      [17] 2507 	call	_moverEnemigoDerecha
   0DD8 F1            [10] 2508 	pop	af
                           2509 ;src/main.c:464: enemy->mover = SI;
   0DD9 DD 6E F8      [19] 2510 	ld	l,-8 (ix)
   0DDC DD 66 F9      [19] 2511 	ld	h,-7 (ix)
   0DDF 36 01         [10] 2512 	ld	(hl),#0x01
   0DE1 C3rB9r13      [10] 2513 	jp	00208$
   0DE4                    2514 00202$:
                           2515 ;src/main.c:469: else if (enemy->x == dx) {
   0DE4 DD 7E FA      [19] 2516 	ld	a,-6 (ix)
   0DE7 DD 96 06      [19] 2517 	sub	a, 6 (ix)
   0DEA C2rFFr0E      [10] 2518 	jp	NZ,00199$
                           2519 ;src/main.c:470: if (dy < enemy->y) {
   0DED DD 7E 07      [19] 2520 	ld	a,7 (ix)
   0DF0 91            [ 4] 2521 	sub	a, c
   0DF1 D2r78r0E      [10] 2522 	jp	NC,00136$
                           2523 ;src/main.c:471: if (dist > G_HERO_H + 5) {
   0DF4 3E 1B         [ 7] 2524 	ld	a,#0x1B
   0DF6 DD 96 F0      [19] 2525 	sub	a, -16 (ix)
   0DF9 D2rB9r13      [10] 2526 	jp	NC,00208$
                           2527 ;src/main.c:472: if(*getTilePtr(mapa, enemy->x, enemy->y - 2) <= 2
   0DFC 41            [ 4] 2528 	ld	b,c
   0DFD 05            [ 4] 2529 	dec	b
   0DFE 05            [ 4] 2530 	dec	b
   0DFF C5            [11] 2531 	push	bc
   0E00 33            [ 6] 2532 	inc	sp
   0E01 DD 7E FA      [19] 2533 	ld	a,-6 (ix)
   0E04 F5            [11] 2534 	push	af
   0E05 33            [ 6] 2535 	inc	sp
   0E06 2Ar00r00      [16] 2536 	ld	hl,(_mapa)
   0E09 E5            [11] 2537 	push	hl
   0E0A CDr00r00      [17] 2538 	call	_getTilePtr
   0E0D F1            [10] 2539 	pop	af
   0E0E F1            [10] 2540 	pop	af
   0E0F 4E            [ 7] 2541 	ld	c,(hl)
   0E10 3E 02         [ 7] 2542 	ld	a,#0x02
   0E12 91            [ 4] 2543 	sub	a, c
   0E13 DArB9r13      [10] 2544 	jp	C,00208$
                           2545 ;src/main.c:473: && *getTilePtr(mapa, enemy->x + G_ENEMY_W / 2, enemy->y - 2) <= 2
   0E16 DD 6E F6      [19] 2546 	ld	l,-10 (ix)
   0E19 DD 66 F7      [19] 2547 	ld	h,-9 (ix)
   0E1C 56            [ 7] 2548 	ld	d,(hl)
   0E1D 15            [ 4] 2549 	dec	d
   0E1E 15            [ 4] 2550 	dec	d
   0E1F DD 6E F4      [19] 2551 	ld	l,-12 (ix)
   0E22 DD 66 F5      [19] 2552 	ld	h,-11 (ix)
   0E25 46            [ 7] 2553 	ld	b,(hl)
   0E26 04            [ 4] 2554 	inc	b
   0E27 04            [ 4] 2555 	inc	b
   0E28 D5            [11] 2556 	push	de
   0E29 33            [ 6] 2557 	inc	sp
   0E2A C5            [11] 2558 	push	bc
   0E2B 33            [ 6] 2559 	inc	sp
   0E2C 2Ar00r00      [16] 2560 	ld	hl,(_mapa)
   0E2F E5            [11] 2561 	push	hl
   0E30 CDr00r00      [17] 2562 	call	_getTilePtr
   0E33 F1            [10] 2563 	pop	af
   0E34 F1            [10] 2564 	pop	af
   0E35 4E            [ 7] 2565 	ld	c,(hl)
   0E36 3E 02         [ 7] 2566 	ld	a,#0x02
   0E38 91            [ 4] 2567 	sub	a, c
   0E39 DArB9r13      [10] 2568 	jp	C,00208$
                           2569 ;src/main.c:474: && *getTilePtr(mapa, enemy->x + G_ENEMY_W, enemy->y - 2) <= 2) {
   0E3C DD 6E F6      [19] 2570 	ld	l,-10 (ix)
   0E3F DD 66 F7      [19] 2571 	ld	h,-9 (ix)
   0E42 46            [ 7] 2572 	ld	b,(hl)
   0E43 05            [ 4] 2573 	dec	b
   0E44 05            [ 4] 2574 	dec	b
   0E45 DD 6E F4      [19] 2575 	ld	l,-12 (ix)
   0E48 DD 66 F5      [19] 2576 	ld	h,-11 (ix)
   0E4B 7E            [ 7] 2577 	ld	a,(hl)
   0E4C C6 04         [ 7] 2578 	add	a, #0x04
   0E4E C5            [11] 2579 	push	bc
   0E4F 33            [ 6] 2580 	inc	sp
   0E50 F5            [11] 2581 	push	af
   0E51 33            [ 6] 2582 	inc	sp
   0E52 2Ar00r00      [16] 2583 	ld	hl,(_mapa)
   0E55 E5            [11] 2584 	push	hl
   0E56 CDr00r00      [17] 2585 	call	_getTilePtr
   0E59 F1            [10] 2586 	pop	af
   0E5A F1            [10] 2587 	pop	af
   0E5B 4E            [ 7] 2588 	ld	c,(hl)
   0E5C 3E 02         [ 7] 2589 	ld	a,#0x02
   0E5E 91            [ 4] 2590 	sub	a, c
   0E5F DArB9r13      [10] 2591 	jp	C,00208$
                           2592 ;src/main.c:475: moverEnemigoArriba(enemy);
   0E62 DD 6E F4      [19] 2593 	ld	l,-12 (ix)
   0E65 DD 66 F5      [19] 2594 	ld	h,-11 (ix)
   0E68 E5            [11] 2595 	push	hl
   0E69 CDr47r06      [17] 2596 	call	_moverEnemigoArriba
   0E6C F1            [10] 2597 	pop	af
                           2598 ;src/main.c:477: enemy->mover = SI;
   0E6D DD 6E F8      [19] 2599 	ld	l,-8 (ix)
   0E70 DD 66 F9      [19] 2600 	ld	h,-7 (ix)
   0E73 36 01         [10] 2601 	ld	(hl),#0x01
   0E75 C3rB9r13      [10] 2602 	jp	00208$
   0E78                    2603 00136$:
                           2604 ;src/main.c:481: if(dist > G_ENEMY_H + 7) {
   0E78 3E 1D         [ 7] 2605 	ld	a,#0x1D
   0E7A DD 96 F0      [19] 2606 	sub	a, -16 (ix)
   0E7D D2rB9r13      [10] 2607 	jp	NC,00208$
                           2608 ;src/main.c:482: if(*getTilePtr(mapa, enemy->x, enemy->y + G_ENEMY_H + 2) <= 2
   0E80 79            [ 4] 2609 	ld	a,c
   0E81 C6 18         [ 7] 2610 	add	a, #0x18
   0E83 47            [ 4] 2611 	ld	b,a
   0E84 C5            [11] 2612 	push	bc
   0E85 33            [ 6] 2613 	inc	sp
   0E86 DD 7E FA      [19] 2614 	ld	a,-6 (ix)
   0E89 F5            [11] 2615 	push	af
   0E8A 33            [ 6] 2616 	inc	sp
   0E8B 2Ar00r00      [16] 2617 	ld	hl,(_mapa)
   0E8E E5            [11] 2618 	push	hl
   0E8F CDr00r00      [17] 2619 	call	_getTilePtr
   0E92 F1            [10] 2620 	pop	af
   0E93 F1            [10] 2621 	pop	af
   0E94 4E            [ 7] 2622 	ld	c,(hl)
   0E95 3E 02         [ 7] 2623 	ld	a,#0x02
   0E97 91            [ 4] 2624 	sub	a, c
   0E98 DArB9r13      [10] 2625 	jp	C,00208$
                           2626 ;src/main.c:483: && *getTilePtr(mapa, enemy->x + G_ENEMY_W / 2, enemy->y + G_ENEMY_H + 2) <= 2
   0E9B DD 6E F6      [19] 2627 	ld	l,-10 (ix)
   0E9E DD 66 F7      [19] 2628 	ld	h,-9 (ix)
   0EA1 7E            [ 7] 2629 	ld	a,(hl)
   0EA2 C6 18         [ 7] 2630 	add	a, #0x18
   0EA4 57            [ 4] 2631 	ld	d,a
   0EA5 DD 6E F4      [19] 2632 	ld	l,-12 (ix)
   0EA8 DD 66 F5      [19] 2633 	ld	h,-11 (ix)
   0EAB 46            [ 7] 2634 	ld	b,(hl)
   0EAC 04            [ 4] 2635 	inc	b
   0EAD 04            [ 4] 2636 	inc	b
   0EAE D5            [11] 2637 	push	de
   0EAF 33            [ 6] 2638 	inc	sp
   0EB0 C5            [11] 2639 	push	bc
   0EB1 33            [ 6] 2640 	inc	sp
   0EB2 2Ar00r00      [16] 2641 	ld	hl,(_mapa)
   0EB5 E5            [11] 2642 	push	hl
   0EB6 CDr00r00      [17] 2643 	call	_getTilePtr
   0EB9 F1            [10] 2644 	pop	af
   0EBA F1            [10] 2645 	pop	af
   0EBB 4E            [ 7] 2646 	ld	c,(hl)
   0EBC 3E 02         [ 7] 2647 	ld	a,#0x02
   0EBE 91            [ 4] 2648 	sub	a, c
   0EBF DArB9r13      [10] 2649 	jp	C,00208$
                           2650 ;src/main.c:484: && *getTilePtr(mapa, enemy->x + G_ENEMY_W, enemy->y + G_ENEMY_H + 2) <= 2) {
   0EC2 DD 6E F6      [19] 2651 	ld	l,-10 (ix)
   0EC5 DD 66 F7      [19] 2652 	ld	h,-9 (ix)
   0EC8 7E            [ 7] 2653 	ld	a,(hl)
   0EC9 C6 18         [ 7] 2654 	add	a, #0x18
   0ECB 47            [ 4] 2655 	ld	b,a
   0ECC DD 6E F4      [19] 2656 	ld	l,-12 (ix)
   0ECF DD 66 F5      [19] 2657 	ld	h,-11 (ix)
   0ED2 7E            [ 7] 2658 	ld	a,(hl)
   0ED3 C6 04         [ 7] 2659 	add	a, #0x04
   0ED5 C5            [11] 2660 	push	bc
   0ED6 33            [ 6] 2661 	inc	sp
   0ED7 F5            [11] 2662 	push	af
   0ED8 33            [ 6] 2663 	inc	sp
   0ED9 2Ar00r00      [16] 2664 	ld	hl,(_mapa)
   0EDC E5            [11] 2665 	push	hl
   0EDD CDr00r00      [17] 2666 	call	_getTilePtr
   0EE0 F1            [10] 2667 	pop	af
   0EE1 F1            [10] 2668 	pop	af
   0EE2 4E            [ 7] 2669 	ld	c,(hl)
   0EE3 3E 02         [ 7] 2670 	ld	a,#0x02
   0EE5 91            [ 4] 2671 	sub	a, c
   0EE6 DArB9r13      [10] 2672 	jp	C,00208$
                           2673 ;src/main.c:485: moverEnemigoAbajo(enemy);
   0EE9 DD 6E F4      [19] 2674 	ld	l,-12 (ix)
   0EEC DD 66 F5      [19] 2675 	ld	h,-11 (ix)
   0EEF E5            [11] 2676 	push	hl
   0EF0 CDr66r06      [17] 2677 	call	_moverEnemigoAbajo
   0EF3 F1            [10] 2678 	pop	af
                           2679 ;src/main.c:487: enemy->mover = SI;
   0EF4 DD 6E F8      [19] 2680 	ld	l,-8 (ix)
   0EF7 DD 66 F9      [19] 2681 	ld	h,-7 (ix)
   0EFA 36 01         [10] 2682 	ld	(hl),#0x01
   0EFC C3rB9r13      [10] 2683 	jp	00208$
   0EFF                    2684 00199$:
                           2685 ;src/main.c:493: if (!prota.mover) distConstraint = 20; // ajuste en parado
   0EFF 3Ar92r03      [13] 2686 	ld	a, (#_prota + 6)
   0F02 B7            [ 4] 2687 	or	a, a
   0F03 20 04         [12] 2688 	jr	NZ,00139$
   0F05 DD 36 F1 14   [19] 2689 	ld	-15 (ix),#0x14
   0F09                    2690 00139$:
                           2691 ;src/main.c:495: if (dist > distConstraint) {
   0F09 DD 7E F1      [19] 2692 	ld	a,-15 (ix)
   0F0C DD 96 F0      [19] 2693 	sub	a, -16 (ix)
   0F0F D2rB9r13      [10] 2694 	jp	NC,00208$
                           2695 ;src/main.c:496: if (dx + 1 < enemy->x) {
   0F12 DD 5E 06      [19] 2696 	ld	e,6 (ix)
   0F15 16 00         [ 7] 2697 	ld	d,#0x00
   0F17 13            [ 6] 2698 	inc	de
   0F18 DD 7E FA      [19] 2699 	ld	a,-6 (ix)
   0F1B DD 77 FE      [19] 2700 	ld	-2 (ix),a
   0F1E DD 36 FF 00   [19] 2701 	ld	-1 (ix),#0x00
   0F22 7B            [ 4] 2702 	ld	a,e
   0F23 DD 96 FE      [19] 2703 	sub	a, -2 (ix)
   0F26 7A            [ 4] 2704 	ld	a,d
   0F27 DD 9E FF      [19] 2705 	sbc	a, -1 (ix)
   0F2A E2r2Fr0F      [10] 2706 	jp	PO, 00452$
   0F2D EE 80         [ 7] 2707 	xor	a, #0x80
   0F2F                    2708 00452$:
   0F2F F2rAEr0F      [10] 2709 	jp	P,00151$
                           2710 ;src/main.c:497: if(*getTilePtr(mapa, enemy->x, enemy->y) <= 2
   0F32 79            [ 4] 2711 	ld	a,c
   0F33 F5            [11] 2712 	push	af
   0F34 33            [ 6] 2713 	inc	sp
   0F35 DD 7E FA      [19] 2714 	ld	a,-6 (ix)
   0F38 F5            [11] 2715 	push	af
   0F39 33            [ 6] 2716 	inc	sp
   0F3A 2Ar00r00      [16] 2717 	ld	hl,(_mapa)
   0F3D E5            [11] 2718 	push	hl
   0F3E CDr00r00      [17] 2719 	call	_getTilePtr
   0F41 F1            [10] 2720 	pop	af
   0F42 F1            [10] 2721 	pop	af
   0F43 4E            [ 7] 2722 	ld	c,(hl)
   0F44 3E 02         [ 7] 2723 	ld	a,#0x02
   0F46 91            [ 4] 2724 	sub	a, c
   0F47 DAr38r10      [10] 2725 	jp	C,00152$
                           2726 ;src/main.c:498: && *getTilePtr(mapa, enemy->x, enemy->y + G_ENEMY_H/2) <= 2
   0F4A DD 6E F6      [19] 2727 	ld	l,-10 (ix)
   0F4D DD 66 F7      [19] 2728 	ld	h,-9 (ix)
   0F50 7E            [ 7] 2729 	ld	a,(hl)
   0F51 C6 0B         [ 7] 2730 	add	a, #0x0B
   0F53 57            [ 4] 2731 	ld	d,a
   0F54 DD 6E F4      [19] 2732 	ld	l,-12 (ix)
   0F57 DD 66 F5      [19] 2733 	ld	h,-11 (ix)
   0F5A 46            [ 7] 2734 	ld	b,(hl)
   0F5B D5            [11] 2735 	push	de
   0F5C 33            [ 6] 2736 	inc	sp
   0F5D C5            [11] 2737 	push	bc
   0F5E 33            [ 6] 2738 	inc	sp
   0F5F 2Ar00r00      [16] 2739 	ld	hl,(_mapa)
   0F62 E5            [11] 2740 	push	hl
   0F63 CDr00r00      [17] 2741 	call	_getTilePtr
   0F66 F1            [10] 2742 	pop	af
   0F67 F1            [10] 2743 	pop	af
   0F68 4E            [ 7] 2744 	ld	c,(hl)
   0F69 3E 02         [ 7] 2745 	ld	a,#0x02
   0F6B 91            [ 4] 2746 	sub	a, c
   0F6C DAr38r10      [10] 2747 	jp	C,00152$
                           2748 ;src/main.c:499: && *getTilePtr(mapa, enemy->x, enemy->y + G_ENEMY_H) <= 2) {
   0F6F DD 6E F6      [19] 2749 	ld	l,-10 (ix)
   0F72 DD 66 F7      [19] 2750 	ld	h,-9 (ix)
   0F75 7E            [ 7] 2751 	ld	a,(hl)
   0F76 C6 16         [ 7] 2752 	add	a, #0x16
   0F78 57            [ 4] 2753 	ld	d,a
   0F79 DD 6E F4      [19] 2754 	ld	l,-12 (ix)
   0F7C DD 66 F5      [19] 2755 	ld	h,-11 (ix)
   0F7F 46            [ 7] 2756 	ld	b,(hl)
   0F80 D5            [11] 2757 	push	de
   0F81 33            [ 6] 2758 	inc	sp
   0F82 C5            [11] 2759 	push	bc
   0F83 33            [ 6] 2760 	inc	sp
   0F84 2Ar00r00      [16] 2761 	ld	hl,(_mapa)
   0F87 E5            [11] 2762 	push	hl
   0F88 CDr00r00      [17] 2763 	call	_getTilePtr
   0F8B F1            [10] 2764 	pop	af
   0F8C F1            [10] 2765 	pop	af
   0F8D 4E            [ 7] 2766 	ld	c,(hl)
   0F8E 3E 02         [ 7] 2767 	ld	a,#0x02
   0F90 91            [ 4] 2768 	sub	a, c
   0F91 DAr38r10      [10] 2769 	jp	C,00152$
                           2770 ;src/main.c:500: moverEnemigoIzquierda(enemy);
   0F94 DD 6E F4      [19] 2771 	ld	l,-12 (ix)
   0F97 DD 66 F5      [19] 2772 	ld	h,-11 (ix)
   0F9A E5            [11] 2773 	push	hl
   0F9B CDr95r06      [17] 2774 	call	_moverEnemigoIzquierda
   0F9E F1            [10] 2775 	pop	af
                           2776 ;src/main.c:501: movX = 1;
   0F9F DD 36 F3 01   [19] 2777 	ld	-13 (ix),#0x01
                           2778 ;src/main.c:502: enemy->mover = SI;
   0FA3 DD 6E F8      [19] 2779 	ld	l,-8 (ix)
   0FA6 DD 66 F9      [19] 2780 	ld	h,-7 (ix)
   0FA9 36 01         [10] 2781 	ld	(hl),#0x01
   0FAB C3r38r10      [10] 2782 	jp	00152$
   0FAE                    2783 00151$:
                           2784 ;src/main.c:504: } else if (dx + 1 > enemy->x){
   0FAE DD 7E FE      [19] 2785 	ld	a,-2 (ix)
   0FB1 93            [ 4] 2786 	sub	a, e
   0FB2 DD 7E FF      [19] 2787 	ld	a,-1 (ix)
   0FB5 9A            [ 4] 2788 	sbc	a, d
   0FB6 E2rBBr0F      [10] 2789 	jp	PO, 00453$
   0FB9 EE 80         [ 7] 2790 	xor	a, #0x80
   0FBB                    2791 00453$:
   0FBB F2r38r10      [10] 2792 	jp	P,00152$
                           2793 ;src/main.c:505: if(*getTilePtr(mapa, enemy->x + G_ENEMY_W, enemy->y) <= 2
   0FBE 79            [ 4] 2794 	ld	a,c
   0FBF F5            [11] 2795 	push	af
   0FC0 33            [ 6] 2796 	inc	sp
   0FC1 DD 7E FB      [19] 2797 	ld	a,-5 (ix)
   0FC4 F5            [11] 2798 	push	af
   0FC5 33            [ 6] 2799 	inc	sp
   0FC6 2Ar00r00      [16] 2800 	ld	hl,(_mapa)
   0FC9 E5            [11] 2801 	push	hl
   0FCA CDr00r00      [17] 2802 	call	_getTilePtr
   0FCD F1            [10] 2803 	pop	af
   0FCE F1            [10] 2804 	pop	af
   0FCF 4E            [ 7] 2805 	ld	c,(hl)
   0FD0 3E 02         [ 7] 2806 	ld	a,#0x02
   0FD2 91            [ 4] 2807 	sub	a, c
   0FD3 38 63         [12] 2808 	jr	C,00152$
                           2809 ;src/main.c:506: && *getTilePtr(mapa, enemy->x + G_ENEMY_W, enemy->y + G_ENEMY_H/2) <= 2
   0FD5 DD 6E F6      [19] 2810 	ld	l,-10 (ix)
   0FD8 DD 66 F7      [19] 2811 	ld	h,-9 (ix)
   0FDB 7E            [ 7] 2812 	ld	a,(hl)
   0FDC C6 0B         [ 7] 2813 	add	a, #0x0B
   0FDE 47            [ 4] 2814 	ld	b,a
   0FDF DD 6E F4      [19] 2815 	ld	l,-12 (ix)
   0FE2 DD 66 F5      [19] 2816 	ld	h,-11 (ix)
   0FE5 7E            [ 7] 2817 	ld	a,(hl)
   0FE6 C6 04         [ 7] 2818 	add	a, #0x04
   0FE8 C5            [11] 2819 	push	bc
   0FE9 33            [ 6] 2820 	inc	sp
   0FEA F5            [11] 2821 	push	af
   0FEB 33            [ 6] 2822 	inc	sp
   0FEC 2Ar00r00      [16] 2823 	ld	hl,(_mapa)
   0FEF E5            [11] 2824 	push	hl
   0FF0 CDr00r00      [17] 2825 	call	_getTilePtr
   0FF3 F1            [10] 2826 	pop	af
   0FF4 F1            [10] 2827 	pop	af
   0FF5 4E            [ 7] 2828 	ld	c,(hl)
   0FF6 3E 02         [ 7] 2829 	ld	a,#0x02
   0FF8 91            [ 4] 2830 	sub	a, c
   0FF9 38 3D         [12] 2831 	jr	C,00152$
                           2832 ;src/main.c:507: && *getTilePtr(mapa, enemy->x + G_ENEMY_W, enemy->y + G_ENEMY_H) <= 2) {
   0FFB DD 6E F6      [19] 2833 	ld	l,-10 (ix)
   0FFE DD 66 F7      [19] 2834 	ld	h,-9 (ix)
   1001 7E            [ 7] 2835 	ld	a,(hl)
   1002 C6 16         [ 7] 2836 	add	a, #0x16
   1004 47            [ 4] 2837 	ld	b,a
   1005 DD 6E F4      [19] 2838 	ld	l,-12 (ix)
   1008 DD 66 F5      [19] 2839 	ld	h,-11 (ix)
   100B 7E            [ 7] 2840 	ld	a,(hl)
   100C C6 04         [ 7] 2841 	add	a, #0x04
   100E C5            [11] 2842 	push	bc
   100F 33            [ 6] 2843 	inc	sp
   1010 F5            [11] 2844 	push	af
   1011 33            [ 6] 2845 	inc	sp
   1012 2Ar00r00      [16] 2846 	ld	hl,(_mapa)
   1015 E5            [11] 2847 	push	hl
   1016 CDr00r00      [17] 2848 	call	_getTilePtr
   1019 F1            [10] 2849 	pop	af
   101A F1            [10] 2850 	pop	af
   101B 4E            [ 7] 2851 	ld	c,(hl)
   101C 3E 02         [ 7] 2852 	ld	a,#0x02
   101E 91            [ 4] 2853 	sub	a, c
   101F 38 17         [12] 2854 	jr	C,00152$
                           2855 ;src/main.c:508: moverEnemigoDerecha(enemy);
   1021 DD 6E F4      [19] 2856 	ld	l,-12 (ix)
   1024 DD 66 F5      [19] 2857 	ld	h,-11 (ix)
   1027 E5            [11] 2858 	push	hl
   1028 CDr85r06      [17] 2859 	call	_moverEnemigoDerecha
   102B F1            [10] 2860 	pop	af
                           2861 ;src/main.c:509: movX = 1;
   102C DD 36 F3 01   [19] 2862 	ld	-13 (ix),#0x01
                           2863 ;src/main.c:510: enemy->mover = SI;
   1030 DD 6E F8      [19] 2864 	ld	l,-8 (ix)
   1033 DD 66 F9      [19] 2865 	ld	h,-7 (ix)
   1036 36 01         [10] 2866 	ld	(hl),#0x01
   1038                    2867 00152$:
                           2868 ;src/main.c:513: if (dy < enemy->y) {
   1038 DD 6E F6      [19] 2869 	ld	l,-10 (ix)
   103B DD 66 F7      [19] 2870 	ld	h,-9 (ix)
   103E 7E            [ 7] 2871 	ld	a,(hl)
   103F DD 77 FE      [19] 2872 	ld	-2 (ix),a
                           2873 ;src/main.c:426: u8 difx = abs(enemy->x - prota.x); // calculo distancia para mantener una dist
   1042 DD 6E F4      [19] 2874 	ld	l,-12 (ix)
   1045 DD 66 F5      [19] 2875 	ld	h,-11 (ix)
   1048 7E            [ 7] 2876 	ld	a,(hl)
   1049 DD 77 FC      [19] 2877 	ld	-4 (ix),a
                           2878 ;src/main.c:513: if (dy < enemy->y) {
   104C DD 7E 07      [19] 2879 	ld	a,7 (ix)
   104F DD 96 FE      [19] 2880 	sub	a, -2 (ix)
   1052 D2rD7r10      [10] 2881 	jp	NC,00162$
                           2882 ;src/main.c:514: if(*getTilePtr(mapa, enemy->x, enemy->y - 2) <= 2
   1055 DD 46 FE      [19] 2883 	ld	b,-2 (ix)
   1058 05            [ 4] 2884 	dec	b
   1059 05            [ 4] 2885 	dec	b
   105A C5            [11] 2886 	push	bc
   105B 33            [ 6] 2887 	inc	sp
   105C DD 7E FC      [19] 2888 	ld	a,-4 (ix)
   105F F5            [11] 2889 	push	af
   1060 33            [ 6] 2890 	inc	sp
   1061 2Ar00r00      [16] 2891 	ld	hl,(_mapa)
   1064 E5            [11] 2892 	push	hl
   1065 CDr00r00      [17] 2893 	call	_getTilePtr
   1068 F1            [10] 2894 	pop	af
   1069 F1            [10] 2895 	pop	af
   106A 4E            [ 7] 2896 	ld	c,(hl)
   106B 3E 02         [ 7] 2897 	ld	a,#0x02
   106D 91            [ 4] 2898 	sub	a, c
   106E DAr56r11      [10] 2899 	jp	C,00163$
                           2900 ;src/main.c:515: && *getTilePtr(mapa, enemy->x + G_ENEMY_W / 2, enemy->y - 2) <= 2
   1071 DD 6E F6      [19] 2901 	ld	l,-10 (ix)
   1074 DD 66 F7      [19] 2902 	ld	h,-9 (ix)
   1077 56            [ 7] 2903 	ld	d,(hl)
   1078 15            [ 4] 2904 	dec	d
   1079 15            [ 4] 2905 	dec	d
   107A DD 6E F4      [19] 2906 	ld	l,-12 (ix)
   107D DD 66 F5      [19] 2907 	ld	h,-11 (ix)
   1080 46            [ 7] 2908 	ld	b,(hl)
   1081 04            [ 4] 2909 	inc	b
   1082 04            [ 4] 2910 	inc	b
   1083 D5            [11] 2911 	push	de
   1084 33            [ 6] 2912 	inc	sp
   1085 C5            [11] 2913 	push	bc
   1086 33            [ 6] 2914 	inc	sp
   1087 2Ar00r00      [16] 2915 	ld	hl,(_mapa)
   108A E5            [11] 2916 	push	hl
   108B CDr00r00      [17] 2917 	call	_getTilePtr
   108E F1            [10] 2918 	pop	af
   108F F1            [10] 2919 	pop	af
   1090 4E            [ 7] 2920 	ld	c,(hl)
   1091 3E 02         [ 7] 2921 	ld	a,#0x02
   1093 91            [ 4] 2922 	sub	a, c
   1094 DAr56r11      [10] 2923 	jp	C,00163$
                           2924 ;src/main.c:516: && *getTilePtr(mapa, enemy->x + G_ENEMY_W, enemy->y - 2) <= 2) {
   1097 DD 6E F6      [19] 2925 	ld	l,-10 (ix)
   109A DD 66 F7      [19] 2926 	ld	h,-9 (ix)
   109D 46            [ 7] 2927 	ld	b,(hl)
   109E 05            [ 4] 2928 	dec	b
   109F 05            [ 4] 2929 	dec	b
   10A0 DD 6E F4      [19] 2930 	ld	l,-12 (ix)
   10A3 DD 66 F5      [19] 2931 	ld	h,-11 (ix)
   10A6 7E            [ 7] 2932 	ld	a,(hl)
   10A7 C6 04         [ 7] 2933 	add	a, #0x04
   10A9 C5            [11] 2934 	push	bc
   10AA 33            [ 6] 2935 	inc	sp
   10AB F5            [11] 2936 	push	af
   10AC 33            [ 6] 2937 	inc	sp
   10AD 2Ar00r00      [16] 2938 	ld	hl,(_mapa)
   10B0 E5            [11] 2939 	push	hl
   10B1 CDr00r00      [17] 2940 	call	_getTilePtr
   10B4 F1            [10] 2941 	pop	af
   10B5 F1            [10] 2942 	pop	af
   10B6 4E            [ 7] 2943 	ld	c,(hl)
   10B7 3E 02         [ 7] 2944 	ld	a,#0x02
   10B9 91            [ 4] 2945 	sub	a, c
   10BA DAr56r11      [10] 2946 	jp	C,00163$
                           2947 ;src/main.c:517: moverEnemigoArriba(enemy);
   10BD DD 6E F4      [19] 2948 	ld	l,-12 (ix)
   10C0 DD 66 F5      [19] 2949 	ld	h,-11 (ix)
   10C3 E5            [11] 2950 	push	hl
   10C4 CDr47r06      [17] 2951 	call	_moverEnemigoArriba
   10C7 F1            [10] 2952 	pop	af
                           2953 ;src/main.c:518: movY = 1;
   10C8 DD 36 F2 01   [19] 2954 	ld	-14 (ix),#0x01
                           2955 ;src/main.c:519: enemy->mover = SI;
   10CC DD 6E F8      [19] 2956 	ld	l,-8 (ix)
   10CF DD 66 F9      [19] 2957 	ld	h,-7 (ix)
   10D2 36 01         [10] 2958 	ld	(hl),#0x01
   10D4 C3r56r11      [10] 2959 	jp	00163$
   10D7                    2960 00162$:
                           2961 ;src/main.c:522: if(*getTilePtr(mapa, enemy->x, enemy->y + G_ENEMY_H + 2) <= 2
   10D7 DD 7E FE      [19] 2962 	ld	a,-2 (ix)
   10DA C6 18         [ 7] 2963 	add	a, #0x18
   10DC 47            [ 4] 2964 	ld	b,a
   10DD C5            [11] 2965 	push	bc
   10DE 33            [ 6] 2966 	inc	sp
   10DF DD 7E FC      [19] 2967 	ld	a,-4 (ix)
   10E2 F5            [11] 2968 	push	af
   10E3 33            [ 6] 2969 	inc	sp
   10E4 2Ar00r00      [16] 2970 	ld	hl,(_mapa)
   10E7 E5            [11] 2971 	push	hl
   10E8 CDr00r00      [17] 2972 	call	_getTilePtr
   10EB F1            [10] 2973 	pop	af
   10EC F1            [10] 2974 	pop	af
   10ED 4E            [ 7] 2975 	ld	c,(hl)
   10EE 3E 02         [ 7] 2976 	ld	a,#0x02
   10F0 91            [ 4] 2977 	sub	a, c
   10F1 38 63         [12] 2978 	jr	C,00163$
                           2979 ;src/main.c:523: && *getTilePtr(mapa, enemy->x + G_ENEMY_W / 2, enemy->y + G_ENEMY_H + 2) <= 2
   10F3 DD 6E F6      [19] 2980 	ld	l,-10 (ix)
   10F6 DD 66 F7      [19] 2981 	ld	h,-9 (ix)
   10F9 7E            [ 7] 2982 	ld	a,(hl)
   10FA C6 18         [ 7] 2983 	add	a, #0x18
   10FC 57            [ 4] 2984 	ld	d,a
   10FD DD 6E F4      [19] 2985 	ld	l,-12 (ix)
   1100 DD 66 F5      [19] 2986 	ld	h,-11 (ix)
   1103 46            [ 7] 2987 	ld	b,(hl)
   1104 04            [ 4] 2988 	inc	b
   1105 04            [ 4] 2989 	inc	b
   1106 D5            [11] 2990 	push	de
   1107 33            [ 6] 2991 	inc	sp
   1108 C5            [11] 2992 	push	bc
   1109 33            [ 6] 2993 	inc	sp
   110A 2Ar00r00      [16] 2994 	ld	hl,(_mapa)
   110D E5            [11] 2995 	push	hl
   110E CDr00r00      [17] 2996 	call	_getTilePtr
   1111 F1            [10] 2997 	pop	af
   1112 F1            [10] 2998 	pop	af
   1113 4E            [ 7] 2999 	ld	c,(hl)
   1114 3E 02         [ 7] 3000 	ld	a,#0x02
   1116 91            [ 4] 3001 	sub	a, c
   1117 38 3D         [12] 3002 	jr	C,00163$
                           3003 ;src/main.c:524: && *getTilePtr(mapa, enemy->x + G_ENEMY_W, enemy->y + G_ENEMY_H + 2) <= 2) {
   1119 DD 6E F6      [19] 3004 	ld	l,-10 (ix)
   111C DD 66 F7      [19] 3005 	ld	h,-9 (ix)
   111F 7E            [ 7] 3006 	ld	a,(hl)
   1120 C6 18         [ 7] 3007 	add	a, #0x18
   1122 47            [ 4] 3008 	ld	b,a
   1123 DD 6E F4      [19] 3009 	ld	l,-12 (ix)
   1126 DD 66 F5      [19] 3010 	ld	h,-11 (ix)
   1129 7E            [ 7] 3011 	ld	a,(hl)
   112A C6 04         [ 7] 3012 	add	a, #0x04
   112C C5            [11] 3013 	push	bc
   112D 33            [ 6] 3014 	inc	sp
   112E F5            [11] 3015 	push	af
   112F 33            [ 6] 3016 	inc	sp
   1130 2Ar00r00      [16] 3017 	ld	hl,(_mapa)
   1133 E5            [11] 3018 	push	hl
   1134 CDr00r00      [17] 3019 	call	_getTilePtr
   1137 F1            [10] 3020 	pop	af
   1138 F1            [10] 3021 	pop	af
   1139 4E            [ 7] 3022 	ld	c,(hl)
   113A 3E 02         [ 7] 3023 	ld	a,#0x02
   113C 91            [ 4] 3024 	sub	a, c
   113D 38 17         [12] 3025 	jr	C,00163$
                           3026 ;src/main.c:525: moverEnemigoAbajo(enemy);
   113F DD 6E F4      [19] 3027 	ld	l,-12 (ix)
   1142 DD 66 F5      [19] 3028 	ld	h,-11 (ix)
   1145 E5            [11] 3029 	push	hl
   1146 CDr66r06      [17] 3030 	call	_moverEnemigoAbajo
   1149 F1            [10] 3031 	pop	af
                           3032 ;src/main.c:526: movY = 1;
   114A DD 36 F2 01   [19] 3033 	ld	-14 (ix),#0x01
                           3034 ;src/main.c:527: enemy->mover = SI;
   114E DD 6E F8      [19] 3035 	ld	l,-8 (ix)
   1151 DD 66 F9      [19] 3036 	ld	h,-7 (ix)
   1154 36 01         [10] 3037 	ld	(hl),#0x01
   1156                    3038 00163$:
                           3039 ;src/main.c:530: if (!enemy->mover) {
   1156 DD 6E F8      [19] 3040 	ld	l,-8 (ix)
   1159 DD 66 F9      [19] 3041 	ld	h,-7 (ix)
   115C 7E            [ 7] 3042 	ld	a,(hl)
   115D B7            [ 4] 3043 	or	a, a
   115E C2rB9r13      [10] 3044 	jp	NZ,00208$
                           3045 ;src/main.c:531: if (!movX) {
   1161 DD 7E F3      [19] 3046 	ld	a,-13 (ix)
   1164 B7            [ 4] 3047 	or	a, a
   1165 C2r8Er12      [10] 3048 	jp	NZ,00178$
                           3049 ;src/main.c:532: if (enemy->y > (ORIGEN_MAPA_Y + ALTO_MAPA/2)) {
   1168 DD 6E F6      [19] 3050 	ld	l,-10 (ix)
   116B DD 66 F7      [19] 3051 	ld	h,-9 (ix)
   116E 5E            [ 7] 3052 	ld	e,(hl)
                           3053 ;src/main.c:426: u8 difx = abs(enemy->x - prota.x); // calculo distancia para mantener una dist
   116F DD 6E F4      [19] 3054 	ld	l,-12 (ix)
   1172 DD 66 F5      [19] 3055 	ld	h,-11 (ix)
   1175 4E            [ 7] 3056 	ld	c,(hl)
                           3057 ;src/main.c:532: if (enemy->y > (ORIGEN_MAPA_Y + ALTO_MAPA/2)) {
   1176 3E 70         [ 7] 3058 	ld	a,#0x70
   1178 93            [ 4] 3059 	sub	a, e
   1179 D2r09r12      [10] 3060 	jp	NC,00175$
                           3061 ;src/main.c:533: if(*getTilePtr(mapa, enemy->x, enemy->y + G_ENEMY_H + 2) <= 2
   117C 7B            [ 4] 3062 	ld	a,e
   117D C6 18         [ 7] 3063 	add	a, #0x18
   117F 47            [ 4] 3064 	ld	b,a
   1180 C5            [11] 3065 	push	bc
   1181 2Ar00r00      [16] 3066 	ld	hl,(_mapa)
   1184 E5            [11] 3067 	push	hl
   1185 CDr00r00      [17] 3068 	call	_getTilePtr
   1188 F1            [10] 3069 	pop	af
   1189 F1            [10] 3070 	pop	af
   118A 4E            [ 7] 3071 	ld	c,(hl)
   118B 3E 02         [ 7] 3072 	ld	a,#0x02
   118D 91            [ 4] 3073 	sub	a, c
   118E 38 63         [12] 3074 	jr	C,00165$
                           3075 ;src/main.c:534: && *getTilePtr(mapa, enemy->x + G_ENEMY_W / 2, enemy->y + G_ENEMY_H + 2) <= 2
   1190 DD 6E F6      [19] 3076 	ld	l,-10 (ix)
   1193 DD 66 F7      [19] 3077 	ld	h,-9 (ix)
   1196 7E            [ 7] 3078 	ld	a,(hl)
   1197 C6 18         [ 7] 3079 	add	a, #0x18
   1199 57            [ 4] 3080 	ld	d,a
   119A DD 6E F4      [19] 3081 	ld	l,-12 (ix)
   119D DD 66 F5      [19] 3082 	ld	h,-11 (ix)
   11A0 4E            [ 7] 3083 	ld	c,(hl)
   11A1 41            [ 4] 3084 	ld	b,c
   11A2 04            [ 4] 3085 	inc	b
   11A3 04            [ 4] 3086 	inc	b
   11A4 D5            [11] 3087 	push	de
   11A5 33            [ 6] 3088 	inc	sp
   11A6 C5            [11] 3089 	push	bc
   11A7 33            [ 6] 3090 	inc	sp
   11A8 2Ar00r00      [16] 3091 	ld	hl,(_mapa)
   11AB E5            [11] 3092 	push	hl
   11AC CDr00r00      [17] 3093 	call	_getTilePtr
   11AF F1            [10] 3094 	pop	af
   11B0 F1            [10] 3095 	pop	af
   11B1 4E            [ 7] 3096 	ld	c,(hl)
   11B2 3E 02         [ 7] 3097 	ld	a,#0x02
   11B4 91            [ 4] 3098 	sub	a, c
   11B5 38 3C         [12] 3099 	jr	C,00165$
                           3100 ;src/main.c:535: && *getTilePtr(mapa, enemy->x + G_ENEMY_W, enemy->y + G_ENEMY_H + 2) <= 2) {
   11B7 DD 6E F6      [19] 3101 	ld	l,-10 (ix)
   11BA DD 66 F7      [19] 3102 	ld	h,-9 (ix)
   11BD 7E            [ 7] 3103 	ld	a,(hl)
   11BE C6 18         [ 7] 3104 	add	a, #0x18
   11C0 47            [ 4] 3105 	ld	b,a
   11C1 DD 6E F4      [19] 3106 	ld	l,-12 (ix)
   11C4 DD 66 F5      [19] 3107 	ld	h,-11 (ix)
   11C7 7E            [ 7] 3108 	ld	a,(hl)
   11C8 C6 04         [ 7] 3109 	add	a, #0x04
   11CA C5            [11] 3110 	push	bc
   11CB 33            [ 6] 3111 	inc	sp
   11CC F5            [11] 3112 	push	af
   11CD 33            [ 6] 3113 	inc	sp
   11CE 2Ar00r00      [16] 3114 	ld	hl,(_mapa)
   11D1 E5            [11] 3115 	push	hl
   11D2 CDr00r00      [17] 3116 	call	_getTilePtr
   11D5 F1            [10] 3117 	pop	af
   11D6 F1            [10] 3118 	pop	af
   11D7 4E            [ 7] 3119 	ld	c,(hl)
   11D8 3E 02         [ 7] 3120 	ld	a,#0x02
   11DA 91            [ 4] 3121 	sub	a, c
   11DB 38 16         [12] 3122 	jr	C,00165$
                           3123 ;src/main.c:536: moverEnemigoAbajo(enemy);
   11DD DD 6E F4      [19] 3124 	ld	l,-12 (ix)
   11E0 DD 66 F5      [19] 3125 	ld	h,-11 (ix)
   11E3 E5            [11] 3126 	push	hl
   11E4 CDr66r06      [17] 3127 	call	_moverEnemigoAbajo
   11E7 F1            [10] 3128 	pop	af
                           3129 ;src/main.c:537: enemy->mover = SI;
   11E8 DD 6E F8      [19] 3130 	ld	l,-8 (ix)
   11EB DD 66 F9      [19] 3131 	ld	h,-7 (ix)
   11EE 36 01         [10] 3132 	ld	(hl),#0x01
   11F0 C3r8Er12      [10] 3133 	jp	00178$
   11F3                    3134 00165$:
                           3135 ;src/main.c:539: moverEnemigoArriba(enemy);
   11F3 DD 6E F4      [19] 3136 	ld	l,-12 (ix)
   11F6 DD 66 F5      [19] 3137 	ld	h,-11 (ix)
   11F9 E5            [11] 3138 	push	hl
   11FA CDr47r06      [17] 3139 	call	_moverEnemigoArriba
   11FD F1            [10] 3140 	pop	af
                           3141 ;src/main.c:540: enemy->mover = SI;
   11FE DD 6E F8      [19] 3142 	ld	l,-8 (ix)
   1201 DD 66 F9      [19] 3143 	ld	h,-7 (ix)
   1204 36 01         [10] 3144 	ld	(hl),#0x01
   1206 C3r8Er12      [10] 3145 	jp	00178$
   1209                    3146 00175$:
                           3147 ;src/main.c:543: if(*getTilePtr(mapa, enemy->x, enemy->y - 2) <= 2
   1209 43            [ 4] 3148 	ld	b,e
   120A 05            [ 4] 3149 	dec	b
   120B 05            [ 4] 3150 	dec	b
   120C C5            [11] 3151 	push	bc
   120D 2Ar00r00      [16] 3152 	ld	hl,(_mapa)
   1210 E5            [11] 3153 	push	hl
   1211 CDr00r00      [17] 3154 	call	_getTilePtr
   1214 F1            [10] 3155 	pop	af
   1215 F1            [10] 3156 	pop	af
   1216 4E            [ 7] 3157 	ld	c,(hl)
   1217 3E 02         [ 7] 3158 	ld	a,#0x02
   1219 91            [ 4] 3159 	sub	a, c
   121A 38 5F         [12] 3160 	jr	C,00170$
                           3161 ;src/main.c:544: && *getTilePtr(mapa, enemy->x + G_ENEMY_W / 2, enemy->y - 2) <= 2
   121C DD 6E F6      [19] 3162 	ld	l,-10 (ix)
   121F DD 66 F7      [19] 3163 	ld	h,-9 (ix)
   1222 56            [ 7] 3164 	ld	d,(hl)
   1223 15            [ 4] 3165 	dec	d
   1224 15            [ 4] 3166 	dec	d
   1225 DD 6E F4      [19] 3167 	ld	l,-12 (ix)
   1228 DD 66 F5      [19] 3168 	ld	h,-11 (ix)
   122B 46            [ 7] 3169 	ld	b,(hl)
   122C 04            [ 4] 3170 	inc	b
   122D 04            [ 4] 3171 	inc	b
   122E D5            [11] 3172 	push	de
   122F 33            [ 6] 3173 	inc	sp
   1230 C5            [11] 3174 	push	bc
   1231 33            [ 6] 3175 	inc	sp
   1232 2Ar00r00      [16] 3176 	ld	hl,(_mapa)
   1235 E5            [11] 3177 	push	hl
   1236 CDr00r00      [17] 3178 	call	_getTilePtr
   1239 F1            [10] 3179 	pop	af
   123A F1            [10] 3180 	pop	af
   123B 4E            [ 7] 3181 	ld	c,(hl)
   123C 3E 02         [ 7] 3182 	ld	a,#0x02
   123E 91            [ 4] 3183 	sub	a, c
   123F 38 3A         [12] 3184 	jr	C,00170$
                           3185 ;src/main.c:545: && *getTilePtr(mapa, enemy->x + G_ENEMY_W, enemy->y - 2) <= 2) {
   1241 DD 6E F6      [19] 3186 	ld	l,-10 (ix)
   1244 DD 66 F7      [19] 3187 	ld	h,-9 (ix)
   1247 46            [ 7] 3188 	ld	b,(hl)
   1248 05            [ 4] 3189 	dec	b
   1249 05            [ 4] 3190 	dec	b
   124A DD 6E F4      [19] 3191 	ld	l,-12 (ix)
   124D DD 66 F5      [19] 3192 	ld	h,-11 (ix)
   1250 7E            [ 7] 3193 	ld	a,(hl)
   1251 C6 04         [ 7] 3194 	add	a, #0x04
   1253 C5            [11] 3195 	push	bc
   1254 33            [ 6] 3196 	inc	sp
   1255 F5            [11] 3197 	push	af
   1256 33            [ 6] 3198 	inc	sp
   1257 2Ar00r00      [16] 3199 	ld	hl,(_mapa)
   125A E5            [11] 3200 	push	hl
   125B CDr00r00      [17] 3201 	call	_getTilePtr
   125E F1            [10] 3202 	pop	af
   125F F1            [10] 3203 	pop	af
   1260 4E            [ 7] 3204 	ld	c,(hl)
   1261 3E 02         [ 7] 3205 	ld	a,#0x02
   1263 91            [ 4] 3206 	sub	a, c
   1264 38 15         [12] 3207 	jr	C,00170$
                           3208 ;src/main.c:546: moverEnemigoArriba(enemy);
   1266 DD 6E F4      [19] 3209 	ld	l,-12 (ix)
   1269 DD 66 F5      [19] 3210 	ld	h,-11 (ix)
   126C E5            [11] 3211 	push	hl
   126D CDr47r06      [17] 3212 	call	_moverEnemigoArriba
   1270 F1            [10] 3213 	pop	af
                           3214 ;src/main.c:547: enemy->mover = SI;
   1271 DD 6E F8      [19] 3215 	ld	l,-8 (ix)
   1274 DD 66 F9      [19] 3216 	ld	h,-7 (ix)
   1277 36 01         [10] 3217 	ld	(hl),#0x01
   1279 18 13         [12] 3218 	jr	00178$
   127B                    3219 00170$:
                           3220 ;src/main.c:549: moverEnemigoAbajo(enemy);
   127B DD 6E F4      [19] 3221 	ld	l,-12 (ix)
   127E DD 66 F5      [19] 3222 	ld	h,-11 (ix)
   1281 E5            [11] 3223 	push	hl
   1282 CDr66r06      [17] 3224 	call	_moverEnemigoAbajo
   1285 F1            [10] 3225 	pop	af
                           3226 ;src/main.c:550: enemy->mover = SI;
   1286 DD 6E F8      [19] 3227 	ld	l,-8 (ix)
   1289 DD 66 F9      [19] 3228 	ld	h,-7 (ix)
   128C 36 01         [10] 3229 	ld	(hl),#0x01
   128E                    3230 00178$:
                           3231 ;src/main.c:555: if (!movY) {
   128E DD 7E F2      [19] 3232 	ld	a,-14 (ix)
   1291 B7            [ 4] 3233 	or	a, a
   1292 C2rB9r13      [10] 3234 	jp	NZ,00208$
                           3235 ;src/main.c:556: if (enemy->x < ANCHO_PANTALLA/2) {
   1295 DD 6E F4      [19] 3236 	ld	l,-12 (ix)
   1298 DD 66 F5      [19] 3237 	ld	h,-11 (ix)
   129B 4E            [ 7] 3238 	ld	c,(hl)
                           3239 ;src/main.c:427: u8 dify = abs(enemy->y - prota.y);
   129C DD 6E F6      [19] 3240 	ld	l,-10 (ix)
   129F DD 66 F7      [19] 3241 	ld	h,-9 (ix)
   12A2 56            [ 7] 3242 	ld	d,(hl)
                           3243 ;src/main.c:556: if (enemy->x < ANCHO_PANTALLA/2) {
   12A3 79            [ 4] 3244 	ld	a,c
   12A4 D6 28         [ 7] 3245 	sub	a, #0x28
   12A6 D2r2Fr13      [10] 3246 	jp	NC,00190$
                           3247 ;src/main.c:557: if(*getTilePtr(mapa, enemy->x, enemy->y) <= 2
   12A9 D5            [11] 3248 	push	de
   12AA 33            [ 6] 3249 	inc	sp
   12AB 79            [ 4] 3250 	ld	a,c
   12AC F5            [11] 3251 	push	af
   12AD 33            [ 6] 3252 	inc	sp
   12AE 2Ar00r00      [16] 3253 	ld	hl,(_mapa)
   12B1 E5            [11] 3254 	push	hl
   12B2 CDr00r00      [17] 3255 	call	_getTilePtr
   12B5 F1            [10] 3256 	pop	af
   12B6 F1            [10] 3257 	pop	af
   12B7 4E            [ 7] 3258 	ld	c,(hl)
   12B8 3E 02         [ 7] 3259 	ld	a,#0x02
   12BA 91            [ 4] 3260 	sub	a, c
   12BB 38 5C         [12] 3261 	jr	C,00180$
                           3262 ;src/main.c:558: && *getTilePtr(mapa, enemy->x, enemy->y + G_ENEMY_H/2) <= 2
   12BD DD 6E F6      [19] 3263 	ld	l,-10 (ix)
   12C0 DD 66 F7      [19] 3264 	ld	h,-9 (ix)
   12C3 7E            [ 7] 3265 	ld	a,(hl)
   12C4 C6 0B         [ 7] 3266 	add	a, #0x0B
   12C6 DD 6E F4      [19] 3267 	ld	l,-12 (ix)
   12C9 DD 66 F5      [19] 3268 	ld	h,-11 (ix)
   12CC 46            [ 7] 3269 	ld	b,(hl)
   12CD F5            [11] 3270 	push	af
   12CE 33            [ 6] 3271 	inc	sp
   12CF C5            [11] 3272 	push	bc
   12D0 33            [ 6] 3273 	inc	sp
   12D1 2Ar00r00      [16] 3274 	ld	hl,(_mapa)
   12D4 E5            [11] 3275 	push	hl
   12D5 CDr00r00      [17] 3276 	call	_getTilePtr
   12D8 F1            [10] 3277 	pop	af
   12D9 F1            [10] 3278 	pop	af
   12DA 4E            [ 7] 3279 	ld	c,(hl)
   12DB 3E 02         [ 7] 3280 	ld	a,#0x02
   12DD 91            [ 4] 3281 	sub	a, c
   12DE 38 39         [12] 3282 	jr	C,00180$
                           3283 ;src/main.c:559: && *getTilePtr(mapa, enemy->x, enemy->y + G_ENEMY_H) <= 2) {
   12E0 DD 6E F6      [19] 3284 	ld	l,-10 (ix)
   12E3 DD 66 F7      [19] 3285 	ld	h,-9 (ix)
   12E6 7E            [ 7] 3286 	ld	a,(hl)
   12E7 C6 16         [ 7] 3287 	add	a, #0x16
   12E9 DD 6E F4      [19] 3288 	ld	l,-12 (ix)
   12EC DD 66 F5      [19] 3289 	ld	h,-11 (ix)
   12EF 46            [ 7] 3290 	ld	b,(hl)
   12F0 F5            [11] 3291 	push	af
   12F1 33            [ 6] 3292 	inc	sp
   12F2 C5            [11] 3293 	push	bc
   12F3 33            [ 6] 3294 	inc	sp
   12F4 2Ar00r00      [16] 3295 	ld	hl,(_mapa)
   12F7 E5            [11] 3296 	push	hl
   12F8 CDr00r00      [17] 3297 	call	_getTilePtr
   12FB F1            [10] 3298 	pop	af
   12FC F1            [10] 3299 	pop	af
   12FD 4E            [ 7] 3300 	ld	c,(hl)
   12FE 3E 02         [ 7] 3301 	ld	a,#0x02
   1300 91            [ 4] 3302 	sub	a, c
   1301 38 16         [12] 3303 	jr	C,00180$
                           3304 ;src/main.c:560: moverEnemigoIzquierda(enemy);
   1303 DD 6E F4      [19] 3305 	ld	l,-12 (ix)
   1306 DD 66 F5      [19] 3306 	ld	h,-11 (ix)
   1309 E5            [11] 3307 	push	hl
   130A CDr95r06      [17] 3308 	call	_moverEnemigoIzquierda
   130D F1            [10] 3309 	pop	af
                           3310 ;src/main.c:561: enemy->mover = SI;
   130E DD 6E F8      [19] 3311 	ld	l,-8 (ix)
   1311 DD 66 F9      [19] 3312 	ld	h,-7 (ix)
   1314 36 01         [10] 3313 	ld	(hl),#0x01
   1316 C3rB9r13      [10] 3314 	jp	00208$
   1319                    3315 00180$:
                           3316 ;src/main.c:563: moverEnemigoDerecha(enemy);
   1319 DD 6E F4      [19] 3317 	ld	l,-12 (ix)
   131C DD 66 F5      [19] 3318 	ld	h,-11 (ix)
   131F E5            [11] 3319 	push	hl
   1320 CDr85r06      [17] 3320 	call	_moverEnemigoDerecha
   1323 F1            [10] 3321 	pop	af
                           3322 ;src/main.c:564: enemy->mover = SI;
   1324 DD 6E F8      [19] 3323 	ld	l,-8 (ix)
   1327 DD 66 F9      [19] 3324 	ld	h,-7 (ix)
   132A 36 01         [10] 3325 	ld	(hl),#0x01
   132C C3rB9r13      [10] 3326 	jp	00208$
   132F                    3327 00190$:
                           3328 ;src/main.c:567: if(*getTilePtr(mapa, enemy->x + G_ENEMY_W, enemy->y) <= 2
   132F 79            [ 4] 3329 	ld	a,c
   1330 C6 04         [ 7] 3330 	add	a, #0x04
   1332 D5            [11] 3331 	push	de
   1333 33            [ 6] 3332 	inc	sp
   1334 F5            [11] 3333 	push	af
   1335 33            [ 6] 3334 	inc	sp
   1336 2Ar00r00      [16] 3335 	ld	hl,(_mapa)
   1339 E5            [11] 3336 	push	hl
   133A CDr00r00      [17] 3337 	call	_getTilePtr
   133D F1            [10] 3338 	pop	af
   133E F1            [10] 3339 	pop	af
   133F 4E            [ 7] 3340 	ld	c,(hl)
   1340 3E 02         [ 7] 3341 	ld	a,#0x02
   1342 91            [ 4] 3342 	sub	a, c
   1343 38 61         [12] 3343 	jr	C,00185$
                           3344 ;src/main.c:568: && *getTilePtr(mapa, enemy->x + G_ENEMY_W, enemy->y + G_ENEMY_H/2) <= 2
   1345 DD 6E F6      [19] 3345 	ld	l,-10 (ix)
   1348 DD 66 F7      [19] 3346 	ld	h,-9 (ix)
   134B 7E            [ 7] 3347 	ld	a,(hl)
   134C C6 0B         [ 7] 3348 	add	a, #0x0B
   134E 47            [ 4] 3349 	ld	b,a
   134F DD 6E F4      [19] 3350 	ld	l,-12 (ix)
   1352 DD 66 F5      [19] 3351 	ld	h,-11 (ix)
   1355 7E            [ 7] 3352 	ld	a,(hl)
   1356 C6 04         [ 7] 3353 	add	a, #0x04
   1358 C5            [11] 3354 	push	bc
   1359 33            [ 6] 3355 	inc	sp
   135A F5            [11] 3356 	push	af
   135B 33            [ 6] 3357 	inc	sp
   135C 2Ar00r00      [16] 3358 	ld	hl,(_mapa)
   135F E5            [11] 3359 	push	hl
   1360 CDr00r00      [17] 3360 	call	_getTilePtr
   1363 F1            [10] 3361 	pop	af
   1364 F1            [10] 3362 	pop	af
   1365 4E            [ 7] 3363 	ld	c,(hl)
   1366 3E 02         [ 7] 3364 	ld	a,#0x02
   1368 91            [ 4] 3365 	sub	a, c
   1369 38 3B         [12] 3366 	jr	C,00185$
                           3367 ;src/main.c:569: && *getTilePtr(mapa, enemy->x + G_ENEMY_W, enemy->y + G_ENEMY_H) <= 2) {
   136B DD 6E F6      [19] 3368 	ld	l,-10 (ix)
   136E DD 66 F7      [19] 3369 	ld	h,-9 (ix)
   1371 7E            [ 7] 3370 	ld	a,(hl)
   1372 C6 16         [ 7] 3371 	add	a, #0x16
   1374 47            [ 4] 3372 	ld	b,a
   1375 DD 6E F4      [19] 3373 	ld	l,-12 (ix)
   1378 DD 66 F5      [19] 3374 	ld	h,-11 (ix)
   137B 7E            [ 7] 3375 	ld	a,(hl)
   137C C6 04         [ 7] 3376 	add	a, #0x04
   137E C5            [11] 3377 	push	bc
   137F 33            [ 6] 3378 	inc	sp
   1380 F5            [11] 3379 	push	af
   1381 33            [ 6] 3380 	inc	sp
   1382 2Ar00r00      [16] 3381 	ld	hl,(_mapa)
   1385 E5            [11] 3382 	push	hl
   1386 CDr00r00      [17] 3383 	call	_getTilePtr
   1389 F1            [10] 3384 	pop	af
   138A F1            [10] 3385 	pop	af
   138B 4E            [ 7] 3386 	ld	c,(hl)
   138C 3E 02         [ 7] 3387 	ld	a,#0x02
   138E 91            [ 4] 3388 	sub	a, c
   138F 38 15         [12] 3389 	jr	C,00185$
                           3390 ;src/main.c:570: moverEnemigoDerecha(enemy);
   1391 DD 6E F4      [19] 3391 	ld	l,-12 (ix)
   1394 DD 66 F5      [19] 3392 	ld	h,-11 (ix)
   1397 E5            [11] 3393 	push	hl
   1398 CDr85r06      [17] 3394 	call	_moverEnemigoDerecha
   139B F1            [10] 3395 	pop	af
                           3396 ;src/main.c:571: enemy->mover = SI;
   139C DD 6E F8      [19] 3397 	ld	l,-8 (ix)
   139F DD 66 F9      [19] 3398 	ld	h,-7 (ix)
   13A2 36 01         [10] 3399 	ld	(hl),#0x01
   13A4 18 13         [12] 3400 	jr	00208$
   13A6                    3401 00185$:
                           3402 ;src/main.c:574: moverEnemigoIzquierda(enemy);
   13A6 DD 6E F4      [19] 3403 	ld	l,-12 (ix)
   13A9 DD 66 F5      [19] 3404 	ld	h,-11 (ix)
   13AC E5            [11] 3405 	push	hl
   13AD CDr95r06      [17] 3406 	call	_moverEnemigoIzquierda
   13B0 F1            [10] 3407 	pop	af
                           3408 ;src/main.c:575: enemy->mover = SI;
   13B1 DD 6E F8      [19] 3409 	ld	l,-8 (ix)
   13B4 DD 66 F9      [19] 3410 	ld	h,-7 (ix)
   13B7 36 01         [10] 3411 	ld	(hl),#0x01
   13B9                    3412 00208$:
   13B9 DD F9         [10] 3413 	ld	sp, ix
   13BB DD E1         [14] 3414 	pop	ix
   13BD C9            [10] 3415 	ret
                           3416 ;src/main.c:585: void updateEnemy(TEnemy* actual) { // maquina de estados
                           3417 ;	---------------------------------
                           3418 ; Function updateEnemy
                           3419 ; ---------------------------------
   13BE                    3420 _updateEnemy::
   13BE DD E5         [15] 3421 	push	ix
   13C0 DD 21 00 00   [14] 3422 	ld	ix,#0
   13C4 DD 39         [15] 3423 	add	ix,sp
   13C6 21 F4 FF      [10] 3424 	ld	hl,#-12
   13C9 39            [11] 3425 	add	hl,sp
   13CA F9            [ 6] 3426 	ld	sp,hl
                           3427 ;src/main.c:592: if (actual->engage) { // prioridad a la persecucion, nunca te deja
   13CB DD 4E 04      [19] 3428 	ld	c,4 (ix)
   13CE DD 46 05      [19] 3429 	ld	b,5 (ix)
   13D1 21 15 00      [10] 3430 	ld	hl,#0x0015
   13D4 09            [11] 3431 	add	hl,bc
   13D5 DD 75 FB      [19] 3432 	ld	-5 (ix),l
   13D8 DD 74 FC      [19] 3433 	ld	-4 (ix),h
   13DB DD 6E FB      [19] 3434 	ld	l,-5 (ix)
   13DE DD 66 FC      [19] 3435 	ld	h,-4 (ix)
   13E1 7E            [ 7] 3436 	ld	a,(hl)
   13E2 B7            [ 4] 3437 	or	a, a
   13E3 28 19         [12] 3438 	jr	Z,00115$
                           3439 ;src/main.c:593: enemy->patrolling = 0;
   13E5 21r0Ar00      [10] 3440 	ld	hl,#(_enemy + 0x000a)
   13E8 36 00         [10] 3441 	ld	(hl),#0x00
                           3442 ;src/main.c:594: engage(actual, prota.x, prota.y);
   13EA 3Ar8Dr03      [13] 3443 	ld	a, (#_prota + 1)
   13ED 21r8Cr03      [10] 3444 	ld	hl, #_prota + 0
   13F0 56            [ 7] 3445 	ld	d,(hl)
   13F1 F5            [11] 3446 	push	af
   13F2 33            [ 6] 3447 	inc	sp
   13F3 D5            [11] 3448 	push	de
   13F4 33            [ 6] 3449 	inc	sp
   13F5 C5            [11] 3450 	push	bc
   13F6 CDrABr0B      [17] 3451 	call	_engage
   13F9 F1            [10] 3452 	pop	af
   13FA F1            [10] 3453 	pop	af
   13FB C3r15r15      [10] 3454 	jp	00117$
   13FE                    3455 00115$:
                           3456 ;src/main.c:596: lookFor(actual); // actualiza si el enemigo tiene el prota al alcance o lo ha visto
   13FE C5            [11] 3457 	push	bc
   13FF C5            [11] 3458 	push	bc
   1400 CDrF0r08      [17] 3459 	call	_lookFor
   1403 F1            [10] 3460 	pop	af
   1404 C1            [10] 3461 	pop	bc
                           3462 ;src/main.c:602: actual->patrolling = 0;
   1405 21 0A 00      [10] 3463 	ld	hl,#0x000A
   1408 09            [11] 3464 	add	hl,bc
   1409 E3            [19] 3465 	ex	(sp), hl
                           3466 ;src/main.c:597: if (actual->patrolling) {
   140A E1            [10] 3467 	pop	hl
   140B E5            [11] 3468 	push	hl
   140C 6E            [ 7] 3469 	ld	l,(hl)
                           3470 ;src/main.c:600: if (actual->in_range) {
   140D 79            [ 4] 3471 	ld	a,c
   140E C6 10         [ 7] 3472 	add	a, #0x10
   1410 5F            [ 4] 3473 	ld	e,a
   1411 78            [ 4] 3474 	ld	a,b
   1412 CE 00         [ 7] 3475 	adc	a, #0x00
   1414 57            [ 4] 3476 	ld	d,a
                           3477 ;src/main.c:608: actual->seek = 1;
   1415 79            [ 4] 3478 	ld	a,c
   1416 C6 13         [ 7] 3479 	add	a, #0x13
   1418 DD 77 FD      [19] 3480 	ld	-3 (ix),a
   141B 78            [ 4] 3481 	ld	a,b
   141C CE 00         [ 7] 3482 	adc	a, #0x00
   141E DD 77 FE      [19] 3483 	ld	-2 (ix),a
                           3484 ;src/main.c:597: if (actual->patrolling) {
   1421 7D            [ 4] 3485 	ld	a,l
   1422 B7            [ 4] 3486 	or	a, a
   1423 CArDDr14      [10] 3487 	jp	Z,00112$
                           3488 ;src/main.c:599: moverEnemigoPatrol(actual);
   1426 C5            [11] 3489 	push	bc
   1427 D5            [11] 3490 	push	de
   1428 C5            [11] 3491 	push	bc
   1429 CDrA7r06      [17] 3492 	call	_moverEnemigoPatrol
   142C F1            [10] 3493 	pop	af
   142D D1            [10] 3494 	pop	de
   142E C1            [10] 3495 	pop	bc
                           3496 ;src/main.c:600: if (actual->in_range) {
   142F 1A            [ 7] 3497 	ld	a,(de)
   1430 B7            [ 4] 3498 	or	a, a
   1431 28 20         [12] 3499 	jr	Z,00104$
                           3500 ;src/main.c:601: engage(actual, prota.x, prota.y);
   1433 3Ar8Dr03      [13] 3501 	ld	a, (#_prota + 1)
   1436 21r8Cr03      [10] 3502 	ld	hl, #_prota + 0
   1439 56            [ 7] 3503 	ld	d,(hl)
   143A F5            [11] 3504 	push	af
   143B 33            [ 6] 3505 	inc	sp
   143C D5            [11] 3506 	push	de
   143D 33            [ 6] 3507 	inc	sp
   143E C5            [11] 3508 	push	bc
   143F CDrABr0B      [17] 3509 	call	_engage
   1442 F1            [10] 3510 	pop	af
   1443 F1            [10] 3511 	pop	af
                           3512 ;src/main.c:602: actual->patrolling = 0;
   1444 E1            [10] 3513 	pop	hl
   1445 E5            [11] 3514 	push	hl
   1446 36 00         [10] 3515 	ld	(hl),#0x00
                           3516 ;src/main.c:603: actual->engage = 1;
   1448 DD 6E FB      [19] 3517 	ld	l,-5 (ix)
   144B DD 66 FC      [19] 3518 	ld	h,-4 (ix)
   144E 36 01         [10] 3519 	ld	(hl),#0x01
   1450 C3r15r15      [10] 3520 	jp	00117$
   1453                    3521 00104$:
                           3522 ;src/main.c:604: } else if (actual->seen) {
   1453 21 11 00      [10] 3523 	ld	hl,#0x0011
   1456 09            [11] 3524 	add	hl,bc
   1457 DD 75 F6      [19] 3525 	ld	-10 (ix),l
   145A DD 74 F7      [19] 3526 	ld	-9 (ix),h
   145D DD 6E F6      [19] 3527 	ld	l,-10 (ix)
   1460 DD 66 F7      [19] 3528 	ld	h,-9 (ix)
   1463 7E            [ 7] 3529 	ld	a,(hl)
   1464 B7            [ 4] 3530 	or	a, a
   1465 CAr15r15      [10] 3531 	jp	Z,00117$
                           3532 ;src/main.c:605: pathFinding(actual->x, actual->y, prota.x , prota.y, actual, mapa);
   1468 3Ar8Dr03      [13] 3533 	ld	a,(#_prota + 1)
   146B DD 77 F8      [19] 3534 	ld	-8 (ix),a
   146E 21r8Cr03      [10] 3535 	ld	hl, #_prota + 0
   1471 5E            [ 7] 3536 	ld	e,(hl)
   1472 21 01 00      [10] 3537 	ld	hl,#0x0001
   1475 09            [11] 3538 	add	hl,bc
   1476 DD 75 F9      [19] 3539 	ld	-7 (ix),l
   1479 DD 74 FA      [19] 3540 	ld	-6 (ix),h
   147C DD 6E F9      [19] 3541 	ld	l,-7 (ix)
   147F DD 66 FA      [19] 3542 	ld	h,-6 (ix)
   1482 56            [ 7] 3543 	ld	d,(hl)
   1483 0A            [ 7] 3544 	ld	a,(bc)
   1484 DD 77 FF      [19] 3545 	ld	-1 (ix),a
   1487 C5            [11] 3546 	push	bc
   1488 2Ar00r00      [16] 3547 	ld	hl,(_mapa)
   148B E5            [11] 3548 	push	hl
   148C C5            [11] 3549 	push	bc
   148D DD 7E F8      [19] 3550 	ld	a,-8 (ix)
   1490 F5            [11] 3551 	push	af
   1491 33            [ 6] 3552 	inc	sp
   1492 7B            [ 4] 3553 	ld	a,e
   1493 F5            [11] 3554 	push	af
   1494 33            [ 6] 3555 	inc	sp
   1495 D5            [11] 3556 	push	de
   1496 33            [ 6] 3557 	inc	sp
   1497 DD 7E FF      [19] 3558 	ld	a,-1 (ix)
   149A F5            [11] 3559 	push	af
   149B 33            [ 6] 3560 	inc	sp
   149C CDr00r00      [17] 3561 	call	_pathFinding
   149F 21 08 00      [10] 3562 	ld	hl,#8
   14A2 39            [11] 3563 	add	hl,sp
   14A3 F9            [ 6] 3564 	ld	sp,hl
   14A4 C1            [10] 3565 	pop	bc
                           3566 ;src/main.c:606: actual->p_seek_x = actual->x;
   14A5 21 17 00      [10] 3567 	ld	hl,#0x0017
   14A8 09            [11] 3568 	add	hl,bc
   14A9 EB            [ 4] 3569 	ex	de,hl
   14AA 0A            [ 7] 3570 	ld	a,(bc)
   14AB 12            [ 7] 3571 	ld	(de),a
                           3572 ;src/main.c:607: actual->p_seek_y = actual->y;
   14AC 21 18 00      [10] 3573 	ld	hl,#0x0018
   14AF 09            [11] 3574 	add	hl,bc
   14B0 EB            [ 4] 3575 	ex	de,hl
   14B1 DD 6E F9      [19] 3576 	ld	l,-7 (ix)
   14B4 DD 66 FA      [19] 3577 	ld	h,-6 (ix)
   14B7 7E            [ 7] 3578 	ld	a,(hl)
   14B8 12            [ 7] 3579 	ld	(de),a
                           3580 ;src/main.c:608: actual->seek = 1;
   14B9 DD 6E FD      [19] 3581 	ld	l,-3 (ix)
   14BC DD 66 FE      [19] 3582 	ld	h,-2 (ix)
   14BF 36 01         [10] 3583 	ld	(hl),#0x01
                           3584 ;src/main.c:609: actual->iter=0;
   14C1 21 0D 00      [10] 3585 	ld	hl,#0x000D
   14C4 09            [11] 3586 	add	hl,bc
   14C5 AF            [ 4] 3587 	xor	a, a
   14C6 77            [ 7] 3588 	ld	(hl), a
   14C7 23            [ 6] 3589 	inc	hl
   14C8 77            [ 7] 3590 	ld	(hl), a
                           3591 ;src/main.c:610: actual->reversePatrol = NO;
   14C9 21 0B 00      [10] 3592 	ld	hl,#0x000B
   14CC 09            [11] 3593 	add	hl,bc
   14CD 36 00         [10] 3594 	ld	(hl),#0x00
                           3595 ;src/main.c:611: actual->patrolling = 0;
   14CF E1            [10] 3596 	pop	hl
   14D0 E5            [11] 3597 	push	hl
   14D1 36 00         [10] 3598 	ld	(hl),#0x00
                           3599 ;src/main.c:612: actual->seen = 0;
   14D3 DD 6E F6      [19] 3600 	ld	l,-10 (ix)
   14D6 DD 66 F7      [19] 3601 	ld	h,-9 (ix)
   14D9 36 00         [10] 3602 	ld	(hl),#0x00
   14DB 18 38         [12] 3603 	jr	00117$
   14DD                    3604 00112$:
                           3605 ;src/main.c:614: } else if (actual->seek) {
   14DD DD 6E FD      [19] 3606 	ld	l,-3 (ix)
   14E0 DD 66 FE      [19] 3607 	ld	h,-2 (ix)
   14E3 7E            [ 7] 3608 	ld	a,(hl)
   14E4 B7            [ 4] 3609 	or	a, a
   14E5 28 2E         [12] 3610 	jr	Z,00117$
                           3611 ;src/main.c:615: moverEnemigoSeek(actual);
   14E7 C5            [11] 3612 	push	bc
   14E8 D5            [11] 3613 	push	de
   14E9 C5            [11] 3614 	push	bc
   14EA CDrF9r09      [17] 3615 	call	_moverEnemigoSeek
   14ED F1            [10] 3616 	pop	af
   14EE D1            [10] 3617 	pop	de
   14EF C1            [10] 3618 	pop	bc
                           3619 ;src/main.c:616: if (actual->in_range) {
   14F0 1A            [ 7] 3620 	ld	a,(de)
   14F1 B7            [ 4] 3621 	or	a, a
   14F2 28 21         [12] 3622 	jr	Z,00117$
                           3623 ;src/main.c:617: engage(actual, prota.x, prota.y);
   14F4 3Ar8Dr03      [13] 3624 	ld	a, (#_prota + 1)
   14F7 21r8Cr03      [10] 3625 	ld	hl, #_prota + 0
   14FA 56            [ 7] 3626 	ld	d,(hl)
   14FB F5            [11] 3627 	push	af
   14FC 33            [ 6] 3628 	inc	sp
   14FD D5            [11] 3629 	push	de
   14FE 33            [ 6] 3630 	inc	sp
   14FF C5            [11] 3631 	push	bc
   1500 CDrABr0B      [17] 3632 	call	_engage
   1503 F1            [10] 3633 	pop	af
   1504 F1            [10] 3634 	pop	af
                           3635 ;src/main.c:618: actual->seek = 0;
   1505 DD 6E FD      [19] 3636 	ld	l,-3 (ix)
   1508 DD 66 FE      [19] 3637 	ld	h,-2 (ix)
   150B 36 00         [10] 3638 	ld	(hl),#0x00
                           3639 ;src/main.c:619: actual->engage = 1;
   150D DD 6E FB      [19] 3640 	ld	l,-5 (ix)
   1510 DD 66 FC      [19] 3641 	ld	h,-4 (ix)
   1513 36 01         [10] 3642 	ld	(hl),#0x01
                           3643 ;src/main.c:620: } else if (actual->seen) {
   1515                    3644 00117$:
   1515 DD F9         [10] 3645 	ld	sp, ix
   1517 DD E1         [14] 3646 	pop	ix
   1519 C9            [10] 3647 	ret
                           3648 ;src/main.c:627: void inicializarEnemy() {
                           3649 ;	---------------------------------
                           3650 ; Function inicializarEnemy
                           3651 ; ---------------------------------
   151A                    3652 _inicializarEnemy::
   151A DD E5         [15] 3653 	push	ix
   151C DD 21 00 00   [14] 3654 	ld	ix,#0
   1520 DD 39         [15] 3655 	add	ix,sp
   1522 21 F9 FF      [10] 3656 	ld	hl,#-7
   1525 39            [11] 3657 	add	hl,sp
   1526 F9            [ 6] 3658 	ld	sp,hl
                           3659 ;src/main.c:628: u8 i = 2 + num_mapa; //sacar distinto numero dependiendo del mapa
   1527 3Ar02r00      [13] 3660 	ld	a,(#_num_mapa + 0)
   152A C6 02         [ 7] 3661 	add	a, #0x02
   152C DD 77 FF      [19] 3662 	ld	-1 (ix),a
                           3663 ;src/main.c:638: actual = enemy;
   152F 11r00r00      [10] 3664 	ld	de,#_enemy+0
                           3665 ;src/main.c:639: while(i){
   1532                    3666 00101$:
   1532 DD 7E FF      [19] 3667 	ld	a,-1 (ix)
   1535 B7            [ 4] 3668 	or	a, a
   1536 CAr3Ar16      [10] 3669 	jp	Z,00104$
                           3670 ;src/main.c:640: --i;
   1539 DD 35 FF      [23] 3671 	dec	-1 (ix)
                           3672 ;src/main.c:641: actual->x = actual->px = spawnX[i];
   153C 4B            [ 4] 3673 	ld	c, e
   153D 42            [ 4] 3674 	ld	b, d
   153E 03            [ 6] 3675 	inc	bc
   153F 03            [ 6] 3676 	inc	bc
   1540 3Er1C         [ 7] 3677 	ld	a,#<(_spawnX)
   1542 DD 86 FF      [19] 3678 	add	a, -1 (ix)
   1545 DD 77 FD      [19] 3679 	ld	-3 (ix),a
   1548 3Es00         [ 7] 3680 	ld	a,#>(_spawnX)
   154A CE 00         [ 7] 3681 	adc	a, #0x00
   154C DD 77 FE      [19] 3682 	ld	-2 (ix),a
   154F DD 6E FD      [19] 3683 	ld	l,-3 (ix)
   1552 DD 66 FE      [19] 3684 	ld	h,-2 (ix)
   1555 7E            [ 7] 3685 	ld	a,(hl)
   1556 02            [ 7] 3686 	ld	(bc),a
   1557 12            [ 7] 3687 	ld	(de),a
                           3688 ;src/main.c:642: actual->y = actual->py = spawnY[i];
   1558 D5            [11] 3689 	push	de
   1559 FD E1         [14] 3690 	pop	iy
   155B FD 23         [10] 3691 	inc	iy
   155D 4B            [ 4] 3692 	ld	c, e
   155E 42            [ 4] 3693 	ld	b, d
   155F 03            [ 6] 3694 	inc	bc
   1560 03            [ 6] 3695 	inc	bc
   1561 03            [ 6] 3696 	inc	bc
   1562 3Er20         [ 7] 3697 	ld	a,#<(_spawnY)
   1564 DD 86 FF      [19] 3698 	add	a, -1 (ix)
   1567 DD 77 FB      [19] 3699 	ld	-5 (ix),a
   156A 3Es00         [ 7] 3700 	ld	a,#>(_spawnY)
   156C CE 00         [ 7] 3701 	adc	a, #0x00
   156E DD 77 FC      [19] 3702 	ld	-4 (ix),a
   1571 DD 6E FB      [19] 3703 	ld	l,-5 (ix)
   1574 DD 66 FC      [19] 3704 	ld	h,-4 (ix)
   1577 7E            [ 7] 3705 	ld	a,(hl)
   1578 02            [ 7] 3706 	ld	(bc),a
   1579 FD 77 00      [19] 3707 	ld	0 (iy), a
                           3708 ;src/main.c:643: actual->mover  = NO;
   157C 21 06 00      [10] 3709 	ld	hl,#0x0006
   157F 19            [11] 3710 	add	hl,de
   1580 36 00         [10] 3711 	ld	(hl),#0x00
                           3712 ;src/main.c:644: actual->mira   = M_abajo;
   1582 21 07 00      [10] 3713 	ld	hl,#0x0007
   1585 19            [11] 3714 	add	hl,de
   1586 36 03         [10] 3715 	ld	(hl),#0x03
                           3716 ;src/main.c:645: actual->sprite = g_enemy;
   1588 21 04 00      [10] 3717 	ld	hl,#0x0004
   158B 19            [11] 3718 	add	hl,de
   158C 36r00         [10] 3719 	ld	(hl),#<(_g_enemy)
   158E 23            [ 6] 3720 	inc	hl
   158F 36s00         [10] 3721 	ld	(hl),#>(_g_enemy)
                           3722 ;src/main.c:646: actual->muerto = NO;
   1591 21 08 00      [10] 3723 	ld	hl,#0x0008
   1594 19            [11] 3724 	add	hl,de
   1595 36 00         [10] 3725 	ld	(hl),#0x00
                           3726 ;src/main.c:647: actual->muertes = 0;
   1597 21 09 00      [10] 3727 	ld	hl,#0x0009
   159A 19            [11] 3728 	add	hl,de
   159B 36 00         [10] 3729 	ld	(hl),#0x00
                           3730 ;src/main.c:648: actual->patrolling = SI;
   159D 21 0A 00      [10] 3731 	ld	hl,#0x000A
   15A0 19            [11] 3732 	add	hl,de
   15A1 36 01         [10] 3733 	ld	(hl),#0x01
                           3734 ;src/main.c:649: actual->reversePatrol = NO;
   15A3 21 0B 00      [10] 3735 	ld	hl,#0x000B
   15A6 19            [11] 3736 	add	hl,de
   15A7 36 00         [10] 3737 	ld	(hl),#0x00
                           3738 ;src/main.c:650: actual->didDamage = 0;
   15A9 21 16 00      [10] 3739 	ld	hl,#0x0016
   15AC 19            [11] 3740 	add	hl,de
   15AD 36 00         [10] 3741 	ld	(hl),#0x00
                           3742 ;src/main.c:651: actual->iter = 0;
   15AF 21 0D 00      [10] 3743 	ld	hl,#0x000D
   15B2 19            [11] 3744 	add	hl,de
   15B3 AF            [ 4] 3745 	xor	a, a
   15B4 77            [ 7] 3746 	ld	(hl), a
   15B5 23            [ 6] 3747 	inc	hl
   15B6 77            [ 7] 3748 	ld	(hl), a
                           3749 ;src/main.c:652: actual->lastIter = 0;
   15B7 21 0F 00      [10] 3750 	ld	hl,#0x000F
   15BA 19            [11] 3751 	add	hl,de
   15BB 36 00         [10] 3752 	ld	(hl),#0x00
                           3753 ;src/main.c:653: actual->seen = 0;
   15BD 21 11 00      [10] 3754 	ld	hl,#0x0011
   15C0 19            [11] 3755 	add	hl,de
   15C1 36 00         [10] 3756 	ld	(hl),#0x00
                           3757 ;src/main.c:654: actual->found = 0;
   15C3 21 12 00      [10] 3758 	ld	hl,#0x0012
   15C6 19            [11] 3759 	add	hl,de
   15C7 36 00         [10] 3760 	ld	(hl),#0x00
                           3761 ;src/main.c:655: actual->engage = 0;
   15C9 21 15 00      [10] 3762 	ld	hl,#0x0015
   15CC 19            [11] 3763 	add	hl,de
   15CD 36 00         [10] 3764 	ld	(hl),#0x00
                           3765 ;src/main.c:656: actual->xplot = NO;
   15CF 21 19 00      [10] 3766 	ld	hl,#0x0019
   15D2 19            [11] 3767 	add	hl,de
   15D3 36 00         [10] 3768 	ld	(hl),#0x00
                           3769 ;src/main.c:657: pathFinding( spawnX[i],  spawnY[i], patrolX[num_mapa + 1][i], patrolY[num_mapa + 1][i], actual, mapa); // calculo rutas de patrulla
   15D5 21r02r00      [10] 3770 	ld	hl,#_num_mapa + 0
   15D8 4E            [ 7] 3771 	ld	c, (hl)
   15D9 0C            [ 4] 3772 	inc	c
   15DA 06 00         [ 7] 3773 	ld	b,#0x00
   15DC 69            [ 4] 3774 	ld	l, c
   15DD 60            [ 4] 3775 	ld	h, b
   15DE 29            [11] 3776 	add	hl, hl
   15DF 29            [11] 3777 	add	hl, hl
   15E0 09            [11] 3778 	add	hl, bc
   15E1 4D            [ 4] 3779 	ld	c,l
   15E2 44            [ 4] 3780 	ld	b,h
   15E3 21r38r00      [10] 3781 	ld	hl,#_patrolY
   15E6 09            [11] 3782 	add	hl,bc
   15E7 7D            [ 4] 3783 	ld	a,l
   15E8 DD 86 FF      [19] 3784 	add	a, -1 (ix)
   15EB 6F            [ 4] 3785 	ld	l,a
   15EC 7C            [ 4] 3786 	ld	a,h
   15ED CE 00         [ 7] 3787 	adc	a, #0x00
   15EF 67            [ 4] 3788 	ld	h,a
   15F0 7E            [ 7] 3789 	ld	a,(hl)
   15F1 DD 77 FA      [19] 3790 	ld	-6 (ix),a
   15F4 21r24r00      [10] 3791 	ld	hl,#_patrolX
   15F7 09            [11] 3792 	add	hl,bc
   15F8 DD 4E FF      [19] 3793 	ld	c,-1 (ix)
   15FB 06 00         [ 7] 3794 	ld	b,#0x00
   15FD 09            [11] 3795 	add	hl,bc
   15FE 7E            [ 7] 3796 	ld	a,(hl)
   15FF DD 77 F9      [19] 3797 	ld	-7 (ix),a
   1602 DD 6E FB      [19] 3798 	ld	l,-5 (ix)
   1605 DD 66 FC      [19] 3799 	ld	h,-4 (ix)
   1608 4E            [ 7] 3800 	ld	c,(hl)
   1609 DD 6E FD      [19] 3801 	ld	l,-3 (ix)
   160C DD 66 FE      [19] 3802 	ld	h,-2 (ix)
   160F 46            [ 7] 3803 	ld	b,(hl)
   1610 D5            [11] 3804 	push	de
   1611 2Ar00r00      [16] 3805 	ld	hl,(_mapa)
   1614 E5            [11] 3806 	push	hl
   1615 D5            [11] 3807 	push	de
   1616 DD 66 FA      [19] 3808 	ld	h,-6 (ix)
   1619 DD 6E F9      [19] 3809 	ld	l,-7 (ix)
   161C E5            [11] 3810 	push	hl
   161D 79            [ 4] 3811 	ld	a,c
   161E F5            [11] 3812 	push	af
   161F 33            [ 6] 3813 	inc	sp
   1620 C5            [11] 3814 	push	bc
   1621 33            [ 6] 3815 	inc	sp
   1622 CDr00r00      [17] 3816 	call	_pathFinding
   1625 21 08 00      [10] 3817 	ld	hl,#8
   1628 39            [11] 3818 	add	hl,sp
   1629 F9            [ 6] 3819 	ld	sp,hl
   162A D1            [10] 3820 	pop	de
                           3821 ;src/main.c:658: dibujarEnemigo(actual);
   162B D5            [11] 3822 	push	de
   162C D5            [11] 3823 	push	de
   162D CDrD2r02      [17] 3824 	call	_dibujarEnemigo
   1630 F1            [10] 3825 	pop	af
   1631 D1            [10] 3826 	pop	de
                           3827 ;src/main.c:659: ++actual;
   1632 21 E3 00      [10] 3828 	ld	hl,#0x00E3
   1635 19            [11] 3829 	add	hl,de
   1636 EB            [ 4] 3830 	ex	de,hl
   1637 C3r32r15      [10] 3831 	jp	00101$
   163A                    3832 00104$:
   163A DD F9         [10] 3833 	ld	sp, ix
   163C DD E1         [14] 3834 	pop	ix
   163E C9            [10] 3835 	ret
                           3836 ;src/main.c:663: void avanzarMapa() {
                           3837 ;	---------------------------------
                           3838 ; Function avanzarMapa
                           3839 ; ---------------------------------
   163F                    3840 _avanzarMapa::
                           3841 ;src/main.c:664: if(num_mapa < NUM_MAPAS -1) {
   163F 3Ar02r00      [13] 3842 	ld	a,(#_num_mapa + 0)
   1642 D6 02         [ 7] 3843 	sub	a, #0x02
   1644 30 34         [12] 3844 	jr	NC,00102$
                           3845 ;src/main.c:665: mapa = mapas[++num_mapa];
   1646 01r16r00      [10] 3846 	ld	bc,#_mapas+0
   1649 21r02r00      [10] 3847 	ld	hl, #_num_mapa+0
   164C 34            [11] 3848 	inc	(hl)
   164D FD 21r02r00   [14] 3849 	ld	iy,#_num_mapa
   1651 FD 6E 00      [19] 3850 	ld	l,0 (iy)
   1654 26 00         [ 7] 3851 	ld	h,#0x00
   1656 29            [11] 3852 	add	hl, hl
   1657 09            [11] 3853 	add	hl,bc
   1658 7E            [ 7] 3854 	ld	a,(hl)
   1659 FD 21r00r00   [14] 3855 	ld	iy,#_mapa
   165D FD 77 00      [19] 3856 	ld	0 (iy),a
   1660 23            [ 6] 3857 	inc	hl
   1661 7E            [ 7] 3858 	ld	a,(hl)
   1662 32r01r00      [13] 3859 	ld	(#_mapa + 1),a
                           3860 ;src/main.c:666: prota.x = prota.px = 2;
   1665 21r8Er03      [10] 3861 	ld	hl,#(_prota + 0x0002)
   1668 36 02         [10] 3862 	ld	(hl),#0x02
   166A 21r8Cr03      [10] 3863 	ld	hl,#_prota
   166D 36 02         [10] 3864 	ld	(hl),#0x02
                           3865 ;src/main.c:667: prota.mover = SI;
   166F 21r92r03      [10] 3866 	ld	hl,#(_prota + 0x0006)
   1672 36 01         [10] 3867 	ld	(hl),#0x01
                           3868 ;src/main.c:668: dibujarMapa();
   1674 CDr00r00      [17] 3869 	call	_dibujarMapa
                           3870 ;src/main.c:669: inicializarEnemy();
   1677 C3r1Ar15      [10] 3871 	jp  _inicializarEnemy
   167A                    3872 00102$:
                           3873 ;src/main.c:672: menuFin(puntuacion);
   167A FD 21r03r00   [14] 3874 	ld	iy,#_puntuacion
   167E FD 6E 00      [19] 3875 	ld	l,0 (iy)
   1681 26 00         [ 7] 3876 	ld	h,#0x00
   1683 C3r00r00      [10] 3877 	jp  _menuFin
                           3878 ;src/main.c:676: void moverIzquierda() {
                           3879 ;	---------------------------------
                           3880 ; Function moverIzquierda
                           3881 ; ---------------------------------
   1686                    3882 _moverIzquierda::
                           3883 ;src/main.c:677: prota.mira = M_izquierda;
   1686 01r8Cr03      [10] 3884 	ld	bc,#_prota+0
   1689 21r93r03      [10] 3885 	ld	hl,#(_prota + 0x0007)
   168C 36 01         [10] 3886 	ld	(hl),#0x01
                           3887 ;src/main.c:678: if (!checkCollision(M_izquierda)) {
   168E C5            [11] 3888 	push	bc
   168F 3E 01         [ 7] 3889 	ld	a,#0x01
   1691 F5            [11] 3890 	push	af
   1692 33            [ 6] 3891 	inc	sp
   1693 CDr61r01      [17] 3892 	call	_checkCollision
   1696 33            [ 6] 3893 	inc	sp
   1697 C1            [10] 3894 	pop	bc
   1698 7D            [ 4] 3895 	ld	a,l
   1699 B7            [ 4] 3896 	or	a, a
   169A C0            [11] 3897 	ret	NZ
                           3898 ;src/main.c:679: prota.x--;
   169B 0A            [ 7] 3899 	ld	a,(bc)
   169C C6 FF         [ 7] 3900 	add	a,#0xFF
   169E 02            [ 7] 3901 	ld	(bc),a
                           3902 ;src/main.c:680: prota.mover = SI;
   169F 21r92r03      [10] 3903 	ld	hl,#(_prota + 0x0006)
   16A2 36 01         [10] 3904 	ld	(hl),#0x01
                           3905 ;src/main.c:681: prota.sprite = g_hero_left;
   16A4 21r00r00      [10] 3906 	ld	hl,#_g_hero_left
   16A7 22r90r03      [16] 3907 	ld	((_prota + 0x0004)), hl
   16AA C9            [10] 3908 	ret
                           3909 ;src/main.c:685: void moverDerecha() {
                           3910 ;	---------------------------------
                           3911 ; Function moverDerecha
                           3912 ; ---------------------------------
   16AB                    3913 _moverDerecha::
                           3914 ;src/main.c:686: prota.mira = M_derecha;
   16AB 21r93r03      [10] 3915 	ld	hl,#(_prota + 0x0007)
   16AE 36 00         [10] 3916 	ld	(hl),#0x00
                           3917 ;src/main.c:687: if (!checkCollision(M_derecha) && ( prota.x + G_HERO_W < 80)) {
   16B0 AF            [ 4] 3918 	xor	a, a
   16B1 F5            [11] 3919 	push	af
   16B2 33            [ 6] 3920 	inc	sp
   16B3 CDr61r01      [17] 3921 	call	_checkCollision
   16B6 33            [ 6] 3922 	inc	sp
   16B7 45            [ 4] 3923 	ld	b,l
   16B8 21r8Cr03      [10] 3924 	ld	hl, #_prota + 0
   16BB 4E            [ 7] 3925 	ld	c,(hl)
   16BC 59            [ 4] 3926 	ld	e,c
   16BD 16 00         [ 7] 3927 	ld	d,#0x00
   16BF 21 07 00      [10] 3928 	ld	hl,#0x0007
   16C2 19            [11] 3929 	add	hl,de
   16C3 11 50 80      [10] 3930 	ld	de, #0x8050
   16C6 29            [11] 3931 	add	hl, hl
   16C7 3F            [ 4] 3932 	ccf
   16C8 CB 1C         [ 8] 3933 	rr	h
   16CA CB 1D         [ 8] 3934 	rr	l
   16CC ED 52         [15] 3935 	sbc	hl, de
   16CE 3E 00         [ 7] 3936 	ld	a,#0x00
   16D0 17            [ 4] 3937 	rla
   16D1 5F            [ 4] 3938 	ld	e,a
   16D2 78            [ 4] 3939 	ld	a,b
   16D3 B7            [ 4] 3940 	or	a,a
   16D4 20 14         [12] 3941 	jr	NZ,00104$
   16D6 B3            [ 4] 3942 	or	a,e
   16D7 28 11         [12] 3943 	jr	Z,00104$
                           3944 ;src/main.c:688: prota.x++;
   16D9 0C            [ 4] 3945 	inc	c
   16DA 21r8Cr03      [10] 3946 	ld	hl,#_prota
   16DD 71            [ 7] 3947 	ld	(hl),c
                           3948 ;src/main.c:689: prota.mover = SI;
   16DE 21r92r03      [10] 3949 	ld	hl,#(_prota + 0x0006)
   16E1 36 01         [10] 3950 	ld	(hl),#0x01
                           3951 ;src/main.c:690: prota.sprite = g_hero;
   16E3 21r00r00      [10] 3952 	ld	hl,#_g_hero
   16E6 22r90r03      [16] 3953 	ld	((_prota + 0x0004)), hl
   16E9 C9            [10] 3954 	ret
   16EA                    3955 00104$:
                           3956 ;src/main.c:691: }else if( prota.x + G_HERO_W >= 80){
   16EA 7B            [ 4] 3957 	ld	a,e
   16EB B7            [ 4] 3958 	or	a, a
   16EC C0            [11] 3959 	ret	NZ
                           3960 ;src/main.c:692: avanzarMapa();
   16ED C3r3Fr16      [10] 3961 	jp  _avanzarMapa
                           3962 ;src/main.c:696: void moverArriba() {
                           3963 ;	---------------------------------
                           3964 ; Function moverArriba
                           3965 ; ---------------------------------
   16F0                    3966 _moverArriba::
                           3967 ;src/main.c:697: prota.mira = M_arriba;
   16F0 21r93r03      [10] 3968 	ld	hl,#(_prota + 0x0007)
   16F3 36 02         [10] 3969 	ld	(hl),#0x02
                           3970 ;src/main.c:698: if (!checkCollision(M_arriba)) {
   16F5 3E 02         [ 7] 3971 	ld	a,#0x02
   16F7 F5            [11] 3972 	push	af
   16F8 33            [ 6] 3973 	inc	sp
   16F9 CDr61r01      [17] 3974 	call	_checkCollision
   16FC 33            [ 6] 3975 	inc	sp
   16FD 7D            [ 4] 3976 	ld	a,l
   16FE B7            [ 4] 3977 	or	a, a
   16FF C0            [11] 3978 	ret	NZ
                           3979 ;src/main.c:699: prota.y--;
   1700 21r8Dr03      [10] 3980 	ld	hl,#_prota + 1
   1703 4E            [ 7] 3981 	ld	c,(hl)
   1704 0D            [ 4] 3982 	dec	c
   1705 71            [ 7] 3983 	ld	(hl),c
                           3984 ;src/main.c:700: prota.y--;
   1706 0D            [ 4] 3985 	dec	c
   1707 71            [ 7] 3986 	ld	(hl),c
                           3987 ;src/main.c:701: prota.mover  = SI;
   1708 21r92r03      [10] 3988 	ld	hl,#(_prota + 0x0006)
   170B 36 01         [10] 3989 	ld	(hl),#0x01
                           3990 ;src/main.c:702: prota.sprite = g_hero_up;
   170D 21r00r00      [10] 3991 	ld	hl,#_g_hero_up
   1710 22r90r03      [16] 3992 	ld	((_prota + 0x0004)), hl
   1713 C9            [10] 3993 	ret
                           3994 ;src/main.c:706: void moverAbajo() {
                           3995 ;	---------------------------------
                           3996 ; Function moverAbajo
                           3997 ; ---------------------------------
   1714                    3998 _moverAbajo::
                           3999 ;src/main.c:707: prota.mira = M_abajo;
   1714 21r93r03      [10] 4000 	ld	hl,#(_prota + 0x0007)
   1717 36 03         [10] 4001 	ld	(hl),#0x03
                           4002 ;src/main.c:708: if (!checkCollision(M_abajo) ) {
   1719 3E 03         [ 7] 4003 	ld	a,#0x03
   171B F5            [11] 4004 	push	af
   171C 33            [ 6] 4005 	inc	sp
   171D CDr61r01      [17] 4006 	call	_checkCollision
   1720 33            [ 6] 4007 	inc	sp
   1721 7D            [ 4] 4008 	ld	a,l
   1722 B7            [ 4] 4009 	or	a, a
   1723 C0            [11] 4010 	ret	NZ
                           4011 ;src/main.c:709: prota.y++;
   1724 01r8Dr03      [10] 4012 	ld	bc,#_prota + 1
   1727 0A            [ 7] 4013 	ld	a,(bc)
   1728 3C            [ 4] 4014 	inc	a
   1729 02            [ 7] 4015 	ld	(bc),a
                           4016 ;src/main.c:710: prota.y++;
   172A 3C            [ 4] 4017 	inc	a
   172B 02            [ 7] 4018 	ld	(bc),a
                           4019 ;src/main.c:711: prota.mover  = SI;
   172C 21r92r03      [10] 4020 	ld	hl,#(_prota + 0x0006)
   172F 36 01         [10] 4021 	ld	(hl),#0x01
                           4022 ;src/main.c:712: prota.sprite = g_hero_down;
   1731 21r00r00      [10] 4023 	ld	hl,#_g_hero_down
   1734 22r90r03      [16] 4024 	ld	((_prota + 0x0004)), hl
   1737 C9            [10] 4025 	ret
                           4026 ;src/main.c:719: void intHandler() {
                           4027 ;	---------------------------------
                           4028 ; Function intHandler
                           4029 ; ---------------------------------
   1738                    4030 _intHandler::
                           4031 ;src/main.c:720: if (++i == 6) {
   1738 21rA4r03      [10] 4032 	ld	hl, #_i+0
   173B 34            [11] 4033 	inc	(hl)
   173C 3ArA4r03      [13] 4034 	ld	a,(#_i + 0)
   173F D6 06         [ 7] 4035 	sub	a, #0x06
   1741 C0            [11] 4036 	ret	NZ
                           4037 ;src/main.c:721: play();
   1742 CDr00r00      [17] 4038 	call	_play
                           4039 ;src/main.c:722: i=0;
   1745 21rA4r03      [10] 4040 	ld	hl,#_i + 0
   1748 36 00         [10] 4041 	ld	(hl), #0x00
   174A C9            [10] 4042 	ret
                           4043 ;src/main.c:726: void inicializarCPC() {
                           4044 ;	---------------------------------
                           4045 ; Function inicializarCPC
                           4046 ; ---------------------------------
   174B                    4047 _inicializarCPC::
                           4048 ;src/main.c:727: cpct_disableFirmware();
   174B CDr00r00      [17] 4049 	call	_cpct_disableFirmware
                           4050 ;src/main.c:728: cpct_setVideoMode(0);
   174E 2E 00         [ 7] 4051 	ld	l,#0x00
   1750 CDr00r00      [17] 4052 	call	_cpct_setVideoMode
                           4053 ;src/main.c:729: cpct_setBorder(HW_BLACK);
   1753 21 10 14      [10] 4054 	ld	hl,#0x1410
   1756 E5            [11] 4055 	push	hl
   1757 CDr00r00      [17] 4056 	call	_cpct_setPALColour
                           4057 ;src/main.c:730: cpct_setPalette(g_palette, 16);
   175A 21 10 00      [10] 4058 	ld	hl,#0x0010
   175D E5            [11] 4059 	push	hl
   175E 21r00r00      [10] 4060 	ld	hl,#_g_palette
   1761 E5            [11] 4061 	push	hl
   1762 CDr00r00      [17] 4062 	call	_cpct_setPalette
                           4063 ;src/main.c:731: cpct_akp_musicInit(g_song);
   1765 21r00r00      [10] 4064 	ld	hl,#_g_song
   1768 E5            [11] 4065 	push	hl
   1769 CDr00r00      [17] 4066 	call	_cpct_akp_musicInit
   176C F1            [10] 4067 	pop	af
                           4068 ;src/main.c:732: cpct_setInterruptHandler(intHandler);
   176D 21r38r17      [10] 4069 	ld	hl,#_intHandler
   1770 CDr00r00      [17] 4070 	call	_cpct_setInterruptHandler
   1773 C9            [10] 4071 	ret
                           4072 ;src/main.c:735: void inicializarJuego() {
                           4073 ;	---------------------------------
                           4074 ; Function inicializarJuego
                           4075 ; ---------------------------------
   1774                    4076 _inicializarJuego::
                           4077 ;src/main.c:736: cambio = 0;
   1774 21rA0r03      [10] 4078 	ld	hl,#_cambio + 0
   1777 36 00         [10] 4079 	ld	(hl), #0x00
                           4080 ;src/main.c:737: timer = 0;
   1779 21 00 00      [10] 4081 	ld	hl,#0x0000
   177C 22rA1r03      [16] 4082 	ld	(_timer),hl
                           4083 ;src/main.c:738: parpadeo = 0;
   177F 21r9Fr03      [10] 4084 	ld	hl,#_parpadeo + 0
   1782 36 00         [10] 4085 	ld	(hl), #0x00
                           4086 ;src/main.c:740: num_mapa = 0;
   1784 21r02r00      [10] 4087 	ld	hl,#_num_mapa + 0
   1787 36 00         [10] 4088 	ld	(hl), #0x00
                           4089 ;src/main.c:741: mapa = mapas[num_mapa];
   1789 21r16r00      [10] 4090 	ld	hl, #_mapas + 0
   178C 7E            [ 7] 4091 	ld	a,(hl)
   178D FD 21r00r00   [14] 4092 	ld	iy,#_mapa
   1791 FD 77 00      [19] 4093 	ld	0 (iy),a
   1794 23            [ 6] 4094 	inc	hl
   1795 7E            [ 7] 4095 	ld	a,(hl)
   1796 32r01r00      [13] 4096 	ld	(#_mapa + 1),a
                           4097 ;src/main.c:742: cpct_etm_setTileset2x4(g_tileset);
   1799 21r00r00      [10] 4098 	ld	hl,#_g_tileset
   179C CDr00r00      [17] 4099 	call	_cpct_etm_setTileset2x4
                           4100 ;src/main.c:744: dibujarMapa();
   179F CDr00r00      [17] 4101 	call	_dibujarMapa
                           4102 ;src/main.c:747: barraPuntuacionInicial();
   17A2 CDr00r00      [17] 4103 	call	_barraPuntuacionInicial
                           4104 ;src/main.c:750: prota.x = prota.px = 4;
   17A5 21r8Er03      [10] 4105 	ld	hl,#(_prota + 0x0002)
   17A8 36 04         [10] 4106 	ld	(hl),#0x04
   17AA 21r8Cr03      [10] 4107 	ld	hl,#_prota
   17AD 36 04         [10] 4108 	ld	(hl),#0x04
                           4109 ;src/main.c:751: prota.y = prota.py = 80 + ORIGEN_MAPA_Y;
   17AF 21r8Fr03      [10] 4110 	ld	hl,#(_prota + 0x0003)
   17B2 36 68         [10] 4111 	ld	(hl),#0x68
   17B4 21r8Dr03      [10] 4112 	ld	hl,#(_prota + 0x0001)
   17B7 36 68         [10] 4113 	ld	(hl),#0x68
                           4114 ;src/main.c:752: prota.mover  = NO;
   17B9 21r92r03      [10] 4115 	ld	hl,#(_prota + 0x0006)
   17BC 36 00         [10] 4116 	ld	(hl),#0x00
                           4117 ;src/main.c:753: prota.mira=M_derecha;
   17BE 21r93r03      [10] 4118 	ld	hl,#(_prota + 0x0007)
   17C1 36 00         [10] 4119 	ld	(hl),#0x00
                           4120 ;src/main.c:754: prota.sprite = g_hero;
   17C3 21r00r00      [10] 4121 	ld	hl,#_g_hero
   17C6 22r90r03      [16] 4122 	ld	((_prota + 0x0004)), hl
                           4123 ;src/main.c:758: cu.x = cu.px = 0;
   17C9 21r96r03      [10] 4124 	ld	hl,#(_cu + 0x0002)
   17CC 36 00         [10] 4125 	ld	(hl),#0x00
   17CE 21r94r03      [10] 4126 	ld	hl,#_cu
   17D1 36 00         [10] 4127 	ld	(hl),#0x00
                           4128 ;src/main.c:759: cu.y = cu.py = 0;
   17D3 21r97r03      [10] 4129 	ld	hl,#(_cu + 0x0003)
   17D6 36 00         [10] 4130 	ld	(hl),#0x00
   17D8 21r95r03      [10] 4131 	ld	hl,#(_cu + 0x0001)
   17DB 36 00         [10] 4132 	ld	(hl),#0x00
                           4133 ;src/main.c:760: cu.lanzado = NO;
   17DD 21r9Ar03      [10] 4134 	ld	hl,#(_cu + 0x0006)
   17E0 36 00         [10] 4135 	ld	(hl),#0x00
                           4136 ;src/main.c:761: cu.mover = NO;
   17E2 21r9Dr03      [10] 4137 	ld	hl,#(_cu + 0x0009)
   17E5 36 00         [10] 4138 	ld	(hl),#0x00
                           4139 ;src/main.c:762: cu.off_bound = NO;
   17E7 21r9Er03      [10] 4140 	ld	hl,#(_cu + 0x000a)
   17EA 36 00         [10] 4141 	ld	(hl),#0x00
                           4142 ;src/main.c:764: inicializarEnemy();
   17EC CDr1Ar15      [17] 4143 	call	_inicializarEnemy
                           4144 ;src/main.c:766: dibujarProta();
   17EF C3r4Cr00      [10] 4145 	jp  _dibujarProta
                           4146 ;src/main.c:769: void main(void) {
                           4147 ;	---------------------------------
                           4148 ; Function main
                           4149 ; ---------------------------------
   17F2                    4150 _main::
   17F2 DD E5         [15] 4151 	push	ix
   17F4 DD 21 00 00   [14] 4152 	ld	ix,#0
   17F8 DD 39         [15] 4153 	add	ix,sp
   17FA 21 F3 FF      [10] 4154 	ld	hl,#-13
   17FD 39            [11] 4155 	add	hl,sp
   17FE F9            [ 6] 4156 	ld	sp,hl
                           4157 ;src/main.c:774: vidas = 100;
   17FF 21rA3r03      [10] 4158 	ld	hl,#_vidas + 0
   1802 36 64         [10] 4159 	ld	(hl), #0x64
                           4160 ;src/main.c:776: inicializarCPC();
   1804 CDr4Br17      [17] 4161 	call	_inicializarCPC
                           4162 ;src/main.c:778: menuInicio();
   1807 CDr00r00      [17] 4163 	call	_menuInicio
                           4164 ;src/main.c:780: inicializarJuego();
   180A CDr74r17      [17] 4165 	call	_inicializarJuego
                           4166 ;src/main.c:784: while (1) {
   180D                    4167 00148$:
                           4168 ;src/main.c:785: ++timer;
   180D 21rA1r03      [10] 4169 	ld	hl, #_timer+0
   1810 34            [11] 4170 	inc	(hl)
   1811 20 04         [12] 4171 	jr	NZ,00266$
   1813 21rA2r03      [10] 4172 	ld	hl, #_timer+1
   1816 34            [11] 4173 	inc	(hl)
   1817                    4174 00266$:
                           4175 ;src/main.c:786: if(timer == 4 && (cambio > 0 && cambio<=12)){
   1817 3ArA1r03      [13] 4176 	ld	a,(#_timer + 0)
   181A D6 04         [ 7] 4177 	sub	a, #0x04
   181C 20 30         [12] 4178 	jr	NZ,00104$
   181E 3ArA2r03      [13] 4179 	ld	a,(#_timer + 1)
   1821 B7            [ 4] 4180 	or	a, a
   1822 20 2A         [12] 4181 	jr	NZ,00104$
   1824 3ArA0r03      [13] 4182 	ld	a,(#_cambio + 0)
   1827 B7            [ 4] 4183 	or	a, a
   1828 28 24         [12] 4184 	jr	Z,00104$
   182A 3E 0C         [ 7] 4185 	ld	a,#0x0C
   182C FD 21rA0r03   [14] 4186 	ld	iy,#_cambio
   1830 FD 96 00      [19] 4187 	sub	a, 0 (iy)
   1833 38 19         [12] 4188 	jr	C,00104$
                           4189 ;src/main.c:787: timer = 0;
   1835 21 00 00      [10] 4190 	ld	hl,#0x0000
   1838 22rA1r03      [16] 4191 	ld	(_timer),hl
                           4192 ;src/main.c:788: parpadeo = !parpadeo;
   183B 3Ar9Fr03      [13] 4193 	ld	a,(#_parpadeo + 0)
   183E D6 01         [ 7] 4194 	sub	a,#0x01
   1840 3E 00         [ 7] 4195 	ld	a,#0x00
   1842 17            [ 4] 4196 	rla
   1843 4F            [ 4] 4197 	ld	c,a
   1844 21r9Fr03      [10] 4198 	ld	hl,#_parpadeo + 0
   1847 71            [ 7] 4199 	ld	(hl), c
                           4200 ;src/main.c:789: cambio ++;
   1848 21rA0r03      [10] 4201 	ld	hl, #_cambio+0
   184B 34            [11] 4202 	inc	(hl)
   184C 18 0C         [12] 4203 	jr	00105$
   184E                    4204 00104$:
                           4205 ;src/main.c:790: }else if(cambio == 12){
   184E 3ArA0r03      [13] 4206 	ld	a,(#_cambio + 0)
   1851 D6 0C         [ 7] 4207 	sub	a, #0x0C
   1853 20 05         [12] 4208 	jr	NZ,00105$
                           4209 ;src/main.c:791: cambio = 0;
   1855 21rA0r03      [10] 4210 	ld	hl,#_cambio + 0
   1858 36 00         [10] 4211 	ld	(hl), #0x00
   185A                    4212 00105$:
                           4213 ;src/main.c:793: i = 2 + num_mapa;
   185A 21r02r00      [10] 4214 	ld	hl,#_num_mapa + 0
   185D 4E            [ 7] 4215 	ld	c, (hl)
   185E 0C            [ 4] 4216 	inc	c
   185F 0C            [ 4] 4217 	inc	c
                           4218 ;src/main.c:794: actual = enemy;
                           4219 ;src/main.c:796: comprobarTeclado(&cu, &prota, mapa, g_tablatrans);
   1860 C5            [11] 4220 	push	bc
   1861 21r00r01      [10] 4221 	ld	hl,#_g_tablatrans
   1864 E5            [11] 4222 	push	hl
   1865 2Ar00r00      [16] 4223 	ld	hl,(_mapa)
   1868 E5            [11] 4224 	push	hl
   1869 21r8Cr03      [10] 4225 	ld	hl,#_prota
   186C E5            [11] 4226 	push	hl
   186D 21r94r03      [10] 4227 	ld	hl,#_cu
   1870 E5            [11] 4228 	push	hl
   1871 CDrFAr00      [17] 4229 	call	_comprobarTeclado
   1874 21 08 00      [10] 4230 	ld	hl,#8
   1877 39            [11] 4231 	add	hl,sp
   1878 F9            [ 6] 4232 	ld	sp,hl
   1879 2Ar00r00      [16] 4233 	ld	hl,(_mapa)
   187C E5            [11] 4234 	push	hl
   187D 21r94r03      [10] 4235 	ld	hl,#_cu
   1880 E5            [11] 4236 	push	hl
   1881 CDr00r00      [17] 4237 	call	_moverCuchillo
   1884 F1            [10] 4238 	pop	af
   1885 F1            [10] 4239 	pop	af
   1886 C1            [10] 4240 	pop	bc
                           4241 ;src/main.c:798: while(i){
   1887 DD 71 F3      [19] 4242 	ld	-13 (ix),c
   188A DD 36 FCr00   [19] 4243 	ld	-4 (ix),#<(_enemy)
   188E DD 36 FDs00   [19] 4244 	ld	-3 (ix),#>(_enemy)
   1892                    4245 00115$:
   1892 DD 7E F3      [19] 4246 	ld	a,-13 (ix)
   1895 B7            [ 4] 4247 	or	a, a
   1896 28 6A         [12] 4248 	jr	Z,00117$
                           4249 ;src/main.c:800: --i;
   1898 DD 35 F3      [23] 4250 	dec	-13 (ix)
                           4251 ;src/main.c:801: if(!actual->muerto){
   189B DD 7E FC      [19] 4252 	ld	a,-4 (ix)
   189E C6 08         [ 7] 4253 	add	a, #0x08
   18A0 DD 77 F6      [19] 4254 	ld	-10 (ix),a
   18A3 DD 7E FD      [19] 4255 	ld	a,-3 (ix)
   18A6 CE 00         [ 7] 4256 	adc	a, #0x00
   18A8 DD 77 F7      [19] 4257 	ld	-9 (ix),a
   18AB DD 6E F6      [19] 4258 	ld	l,-10 (ix)
   18AE DD 66 F7      [19] 4259 	ld	h,-9 (ix)
   18B1 7E            [ 7] 4260 	ld	a,(hl)
   18B2 B7            [ 4] 4261 	or	a, a
   18B3 20 12         [12] 4262 	jr	NZ,00109$
                           4263 ;src/main.c:802: checkEnemyDead(cu.direccion, actual);
   18B5 21r9Br03      [10] 4264 	ld	hl, #_cu + 7
   18B8 46            [ 7] 4265 	ld	b,(hl)
   18B9 DD 6E FC      [19] 4266 	ld	l,-4 (ix)
   18BC DD 66 FD      [19] 4267 	ld	h,-3 (ix)
   18BF E5            [11] 4268 	push	hl
   18C0 C5            [11] 4269 	push	bc
   18C1 33            [ 6] 4270 	inc	sp
   18C2 CDr54r04      [17] 4271 	call	_checkEnemyDead
   18C5 F1            [10] 4272 	pop	af
   18C6 33            [ 6] 4273 	inc	sp
   18C7                    4274 00109$:
                           4275 ;src/main.c:804: if(!actual->muerto){
   18C7 DD 6E F6      [19] 4276 	ld	l,-10 (ix)
   18CA DD 66 F7      [19] 4277 	ld	h,-9 (ix)
   18CD 7E            [ 7] 4278 	ld	a,(hl)
   18CE B7            [ 4] 4279 	or	a, a
   18CF 20 1F         [12] 4280 	jr	NZ,00114$
                           4281 ;src/main.c:805: if (!actual->didDamage)
   18D1 DD 7E FC      [19] 4282 	ld	a,-4 (ix)
   18D4 C6 16         [ 7] 4283 	add	a, #0x16
   18D6 4F            [ 4] 4284 	ld	c,a
   18D7 DD 7E FD      [19] 4285 	ld	a,-3 (ix)
   18DA CE 00         [ 7] 4286 	adc	a, #0x00
   18DC 47            [ 4] 4287 	ld	b,a
   18DD 0A            [ 7] 4288 	ld	a,(bc)
   18DE B7            [ 4] 4289 	or	a, a
   18DF 20 0D         [12] 4290 	jr	NZ,00111$
                           4291 ;src/main.c:806: updateEnemy(actual);
   18E1 DD 6E FC      [19] 4292 	ld	l,-4 (ix)
   18E4 DD 66 FD      [19] 4293 	ld	h,-3 (ix)
   18E7 E5            [11] 4294 	push	hl
   18E8 CDrBEr13      [17] 4295 	call	_updateEnemy
   18EB F1            [10] 4296 	pop	af
   18EC 18 02         [12] 4297 	jr	00114$
   18EE                    4298 00111$:
                           4299 ;src/main.c:808: actual->didDamage = 0;
   18EE AF            [ 4] 4300 	xor	a, a
   18EF 02            [ 7] 4301 	ld	(bc),a
   18F0                    4302 00114$:
                           4303 ;src/main.c:810: ++actual;
   18F0 DD 7E FC      [19] 4304 	ld	a,-4 (ix)
   18F3 C6 E3         [ 7] 4305 	add	a, #0xE3
   18F5 DD 77 FC      [19] 4306 	ld	-4 (ix),a
   18F8 DD 7E FD      [19] 4307 	ld	a,-3 (ix)
   18FB CE 00         [ 7] 4308 	adc	a, #0x00
   18FD DD 77 FD      [19] 4309 	ld	-3 (ix),a
   1900 18 90         [12] 4310 	jr	00115$
   1902                    4311 00117$:
                           4312 ;src/main.c:813: cpct_waitVSYNC();
   1902 CDr00r00      [17] 4313 	call	_cpct_waitVSYNC
                           4314 ;src/main.c:816: if (prota.mover) {
   1905 01r92r03      [10] 4315 	ld	bc,#_prota + 6
   1908 0A            [ 7] 4316 	ld	a,(bc)
   1909 B7            [ 4] 4317 	or	a, a
   190A 28 07         [12] 4318 	jr	Z,00119$
                           4319 ;src/main.c:817: redibujarProta();
   190C C5            [11] 4320 	push	bc
   190D CDrE6r00      [17] 4321 	call	_redibujarProta
   1910 C1            [10] 4322 	pop	bc
                           4323 ;src/main.c:818: prota.mover = NO;
   1911 AF            [ 4] 4324 	xor	a, a
   1912 02            [ 7] 4325 	ld	(bc),a
   1913                    4326 00119$:
                           4327 ;src/main.c:820: if(cu.lanzado && cu.mover){
   1913 21r9Ar03      [10] 4328 	ld	hl, #(_cu + 0x0006) + 0
   1916 4E            [ 7] 4329 	ld	c,(hl)
                           4330 ;src/main.c:821: redibujarCuchillo(cu.eje, cu.x, cu.y, &cu, g_tablatrans, mapa);
                           4331 ;src/main.c:820: if(cu.lanzado && cu.mover){
   1917 79            [ 4] 4332 	ld	a,c
   1918 B7            [ 4] 4333 	or	a, a
   1919 28 30         [12] 4334 	jr	Z,00124$
   191B 3Ar9Dr03      [13] 4335 	ld	a, (#(_cu + 0x0009) + 0)
   191E B7            [ 4] 4336 	or	a, a
   191F 28 2A         [12] 4337 	jr	Z,00124$
                           4338 ;src/main.c:821: redibujarCuchillo(cu.eje, cu.x, cu.y, &cu, g_tablatrans, mapa);
   1921 21r95r03      [10] 4339 	ld	hl, #(_cu + 0x0001) + 0
   1924 4E            [ 7] 4340 	ld	c,(hl)
   1925 21r94r03      [10] 4341 	ld	hl, #_cu + 0
   1928 46            [ 7] 4342 	ld	b,(hl)
   1929 21r9Cr03      [10] 4343 	ld	hl, #(_cu + 0x0008) + 0
   192C 5E            [ 7] 4344 	ld	e,(hl)
   192D 2Ar00r00      [16] 4345 	ld	hl,(_mapa)
   1930 E5            [11] 4346 	push	hl
   1931 21r00r01      [10] 4347 	ld	hl,#_g_tablatrans
   1934 E5            [11] 4348 	push	hl
   1935 21r94r03      [10] 4349 	ld	hl,#_cu
   1938 E5            [11] 4350 	push	hl
   1939 79            [ 4] 4351 	ld	a,c
   193A F5            [11] 4352 	push	af
   193B 33            [ 6] 4353 	inc	sp
   193C C5            [11] 4354 	push	bc
   193D 33            [ 6] 4355 	inc	sp
   193E 7B            [ 4] 4356 	ld	a,e
   193F F5            [11] 4357 	push	af
   1940 33            [ 6] 4358 	inc	sp
   1941 CDr00r00      [17] 4359 	call	_redibujarCuchillo
   1944 21 09 00      [10] 4360 	ld	hl,#9
   1947 39            [11] 4361 	add	hl,sp
   1948 F9            [ 6] 4362 	ld	sp,hl
   1949 18 32         [12] 4363 	jr	00125$
   194B                    4364 00124$:
                           4365 ;src/main.c:822: }else if (cu.lanzado && !cu.mover){
   194B 79            [ 4] 4366 	ld	a,c
   194C B7            [ 4] 4367 	or	a, a
   194D 28 2E         [12] 4368 	jr	Z,00125$
   194F 3Ar9Dr03      [13] 4369 	ld	a, (#(_cu + 0x0009) + 0)
   1952 B7            [ 4] 4370 	or	a, a
   1953 20 28         [12] 4371 	jr	NZ,00125$
                           4372 ;src/main.c:823: borrarCuchillo(cu.eje, cu.x, cu.y, mapa);
   1955 21r95r03      [10] 4373 	ld	hl, #(_cu + 0x0001) + 0
   1958 46            [ 7] 4374 	ld	b,(hl)
   1959 21r94r03      [10] 4375 	ld	hl, #_cu + 0
   195C 4E            [ 7] 4376 	ld	c,(hl)
   195D 21r9Cr03      [10] 4377 	ld	hl, #(_cu + 0x0008) + 0
   1960 56            [ 7] 4378 	ld	d,(hl)
   1961 2Ar00r00      [16] 4379 	ld	hl,(_mapa)
   1964 E5            [11] 4380 	push	hl
   1965 C5            [11] 4381 	push	bc
   1966 D5            [11] 4382 	push	de
   1967 33            [ 6] 4383 	inc	sp
   1968 CDr00r00      [17] 4384 	call	_borrarCuchillo
   196B F1            [10] 4385 	pop	af
   196C F1            [10] 4386 	pop	af
   196D 33            [ 6] 4387 	inc	sp
                           4388 ;src/main.c:824: cu.lanzado = NO;
   196E 21r9Ar03      [10] 4389 	ld	hl,#(_cu + 0x0006)
   1971 36 00         [10] 4390 	ld	(hl),#0x00
                           4391 ;src/main.c:826: cu.x = 0;
   1973 21r94r03      [10] 4392 	ld	hl,#_cu
   1976 36 00         [10] 4393 	ld	(hl),#0x00
                           4394 ;src/main.c:827: cu.y=0;
   1978 21r95r03      [10] 4395 	ld	hl,#(_cu + 0x0001)
   197B 36 00         [10] 4396 	ld	(hl),#0x00
   197D                    4397 00125$:
                           4398 ;src/main.c:830: i = 2 + num_mapa;
   197D 21r02r00      [10] 4399 	ld	hl,#_num_mapa + 0
   1980 4E            [ 7] 4400 	ld	c, (hl)
   1981 0C            [ 4] 4401 	inc	c
   1982 0C            [ 4] 4402 	inc	c
                           4403 ;src/main.c:831: actual = enemy;
   1983 11r00r00      [10] 4404 	ld	de,#_enemy
                           4405 ;src/main.c:832: while(i){
   1986                    4406 00144$:
   1986 79            [ 4] 4407 	ld	a,c
   1987 B7            [ 4] 4408 	or	a, a
   1988 CAr04r1B      [10] 4409 	jp	Z,00146$
                           4410 ;src/main.c:834: --i;
   198B 0D            [ 4] 4411 	dec	c
                           4412 ;src/main.c:835: if(actual->mover){
   198C 21 06 00      [10] 4413 	ld	hl,#0x0006
   198F 19            [11] 4414 	add	hl,de
   1990 DD 75 F6      [19] 4415 	ld	-10 (ix),l
   1993 DD 74 F7      [19] 4416 	ld	-9 (ix),h
   1996 DD 6E F6      [19] 4417 	ld	l,-10 (ix)
   1999 DD 66 F7      [19] 4418 	ld	h,-9 (ix)
   199C 46            [ 7] 4419 	ld	b,(hl)
                           4420 ;src/main.c:836: redibujarEnemigo((*actual).px, (*actual).py, actual);
   199D 21 03 00      [10] 4421 	ld	hl,#0x0003
   19A0 19            [11] 4422 	add	hl,de
   19A1 DD 75 FC      [19] 4423 	ld	-4 (ix),l
   19A4 DD 74 FD      [19] 4424 	ld	-3 (ix),h
   19A7 21 02 00      [10] 4425 	ld	hl,#0x0002
   19AA 19            [11] 4426 	add	hl,de
   19AB DD 75 F4      [19] 4427 	ld	-12 (ix),l
   19AE DD 74 F5      [19] 4428 	ld	-11 (ix),h
                           4429 ;src/main.c:835: if(actual->mover){
   19B1 78            [ 4] 4430 	ld	a,b
   19B2 B7            [ 4] 4431 	or	a, a
   19B3 28 22         [12] 4432 	jr	Z,00128$
                           4433 ;src/main.c:836: redibujarEnemigo((*actual).px, (*actual).py, actual);
   19B5 DD 6E FC      [19] 4434 	ld	l,-4 (ix)
   19B8 DD 66 FD      [19] 4435 	ld	h,-3 (ix)
   19BB 7E            [ 7] 4436 	ld	a,(hl)
   19BC DD 77 F3      [19] 4437 	ld	-13 (ix),a
   19BF DD 6E F4      [19] 4438 	ld	l,-12 (ix)
   19C2 DD 66 F5      [19] 4439 	ld	h,-11 (ix)
   19C5 46            [ 7] 4440 	ld	b,(hl)
   19C6 C5            [11] 4441 	push	bc
   19C7 D5            [11] 4442 	push	de
   19C8 D5            [11] 4443 	push	de
   19C9 DD 7E F3      [19] 4444 	ld	a,-13 (ix)
   19CC F5            [11] 4445 	push	af
   19CD 33            [ 6] 4446 	inc	sp
   19CE C5            [11] 4447 	push	bc
   19CF 33            [ 6] 4448 	inc	sp
   19D0 CDr23r04      [17] 4449 	call	_redibujarEnemigo
   19D3 F1            [10] 4450 	pop	af
   19D4 F1            [10] 4451 	pop	af
   19D5 D1            [10] 4452 	pop	de
   19D6 C1            [10] 4453 	pop	bc
   19D7                    4454 00128$:
                           4455 ;src/main.c:839: if (actual->muerto && actual->muertes == 0){
   19D7 21 08 00      [10] 4456 	ld	hl,#0x0008
   19DA 19            [11] 4457 	add	hl,de
   19DB DD 75 F8      [19] 4458 	ld	-8 (ix),l
   19DE DD 74 F9      [19] 4459 	ld	-7 (ix),h
   19E1 DD 6E F8      [19] 4460 	ld	l,-8 (ix)
   19E4 DD 66 F9      [19] 4461 	ld	h,-7 (ix)
   19E7 7E            [ 7] 4462 	ld	a,(hl)
   19E8 B7            [ 4] 4463 	or	a, a
   19E9 CAr7Fr1A      [10] 4464 	jp	Z,00130$
   19EC 21 09 00      [10] 4465 	ld	hl,#0x0009
   19EF 19            [11] 4466 	add	hl,de
   19F0 DD 75 FA      [19] 4467 	ld	-6 (ix),l
   19F3 DD 74 FB      [19] 4468 	ld	-5 (ix),h
   19F6 DD 6E FA      [19] 4469 	ld	l,-6 (ix)
   19F9 DD 66 FB      [19] 4470 	ld	h,-5 (ix)
   19FC 7E            [ 7] 4471 	ld	a,(hl)
   19FD B7            [ 4] 4472 	or	a, a
   19FE C2r7Fr1A      [10] 4473 	jp	NZ,00130$
                           4474 ;src/main.c:840: timer = 3;
   1A01 21 03 00      [10] 4475 	ld	hl,#0x0003
   1A04 22rA1r03      [16] 4476 	ld	(_timer),hl
                           4477 ;src/main.c:841: cambio++;
   1A07 FD 21rA0r03   [14] 4478 	ld	iy,#_cambio
   1A0B FD 34 00      [23] 4479 	inc	0 (iy)
                           4480 ;src/main.c:842: parpadeo = 1;
   1A0E FD 21r9Fr03   [14] 4481 	ld	iy,#_parpadeo
   1A12 FD 36 00 01   [19] 4482 	ld	0 (iy),#0x01
                           4483 ;src/main.c:843: borrarEnemigo((*actual).x, (*actual).y);
   1A16 2E 01         [ 7] 4484 	ld	l, #0x01
   1A18 19            [11] 4485 	add	hl,de
   1A19 DD 75 FE      [19] 4486 	ld	-2 (ix),l
   1A1C DD 74 FF      [19] 4487 	ld	-1 (ix),h
   1A1F DD 6E FE      [19] 4488 	ld	l,-2 (ix)
   1A22 DD 66 FF      [19] 4489 	ld	h,-1 (ix)
   1A25 46            [ 7] 4490 	ld	b,(hl)
   1A26 1A            [ 7] 4491 	ld	a,(de)
   1A27 C5            [11] 4492 	push	bc
   1A28 D5            [11] 4493 	push	de
   1A29 C5            [11] 4494 	push	bc
   1A2A 33            [ 6] 4495 	inc	sp
   1A2B F5            [11] 4496 	push	af
   1A2C 33            [ 6] 4497 	inc	sp
   1A2D CDrB3r03      [17] 4498 	call	_borrarEnemigo
   1A30 F1            [10] 4499 	pop	af
   1A31 D1            [10] 4500 	pop	de
   1A32 C1            [10] 4501 	pop	bc
                           4502 ;src/main.c:844: puntuacion_aux = puntuacion;
   1A33 FD 21r03r00   [14] 4503 	ld	iy,#_puntuacion
   1A37 FD 6E 00      [19] 4504 	ld	l,0 (iy)
   1A3A 26 00         [ 7] 4505 	ld	h,#0x00
                           4506 ;src/main.c:845: puntuacion = aumentarPuntuacion(puntuacion_aux);
   1A3C C5            [11] 4507 	push	bc
   1A3D D5            [11] 4508 	push	de
   1A3E E5            [11] 4509 	push	hl
   1A3F CDr00r00      [17] 4510 	call	_aumentarPuntuacion
   1A42 F1            [10] 4511 	pop	af
   1A43 D1            [10] 4512 	pop	de
   1A44 C1            [10] 4513 	pop	bc
   1A45 FD 21r03r00   [14] 4514 	ld	iy,#_puntuacion
   1A49 FD 75 00      [19] 4515 	ld	0 (iy),l
                           4516 ;src/main.c:846: modificarPuntuacion(puntuacion);
   1A4C FD 21r03r00   [14] 4517 	ld	iy,#_puntuacion
   1A50 FD 6E 00      [19] 4518 	ld	l,0 (iy)
   1A53 26 00         [ 7] 4519 	ld	h,#0x00
   1A55 C5            [11] 4520 	push	bc
   1A56 D5            [11] 4521 	push	de
   1A57 E5            [11] 4522 	push	hl
   1A58 CDr00r00      [17] 4523 	call	_modificarPuntuacion
   1A5B F1            [10] 4524 	pop	af
   1A5C D1            [10] 4525 	pop	de
   1A5D C1            [10] 4526 	pop	bc
                           4527 ;src/main.c:847: actual->mover = NO;
   1A5E DD 6E F6      [19] 4528 	ld	l,-10 (ix)
   1A61 DD 66 F7      [19] 4529 	ld	h,-9 (ix)
   1A64 36 00         [10] 4530 	ld	(hl),#0x00
                           4531 ;src/main.c:848: actual->muertes++;
   1A66 DD 6E FA      [19] 4532 	ld	l,-6 (ix)
   1A69 DD 66 FB      [19] 4533 	ld	h,-5 (ix)
   1A6C 46            [ 7] 4534 	ld	b,(hl)
   1A6D 04            [ 4] 4535 	inc	b
   1A6E DD 6E FA      [19] 4536 	ld	l,-6 (ix)
   1A71 DD 66 FB      [19] 4537 	ld	h,-5 (ix)
   1A74 70            [ 7] 4538 	ld	(hl),b
                           4539 ;src/main.c:849: actual->x = 0;
   1A75 AF            [ 4] 4540 	xor	a, a
   1A76 12            [ 7] 4541 	ld	(de),a
                           4542 ;src/main.c:850: actual->y = 0;
   1A77 DD 6E FE      [19] 4543 	ld	l,-2 (ix)
   1A7A DD 66 FF      [19] 4544 	ld	h,-1 (ix)
   1A7D 36 00         [10] 4545 	ld	(hl),#0x00
   1A7F                    4546 00130$:
                           4547 ;src/main.c:852: if(parpadeo && actual->muerto && !actual->xplot){
   1A7F 21 19 00      [10] 4548 	ld	hl,#0x0019
   1A82 19            [11] 4549 	add	hl,de
   1A83 DD 75 FE      [19] 4550 	ld	-2 (ix),l
   1A86 DD 74 FF      [19] 4551 	ld	-1 (ix),h
   1A89 3Ar9Fr03      [13] 4552 	ld	a,(#_parpadeo + 0)
   1A8C B7            [ 4] 4553 	or	a, a
   1A8D 28 1F         [12] 4554 	jr	Z,00140$
   1A8F DD 6E F8      [19] 4555 	ld	l,-8 (ix)
   1A92 DD 66 F9      [19] 4556 	ld	h,-7 (ix)
   1A95 7E            [ 7] 4557 	ld	a,(hl)
   1A96 B7            [ 4] 4558 	or	a, a
   1A97 28 15         [12] 4559 	jr	Z,00140$
   1A99 DD 6E FE      [19] 4560 	ld	l,-2 (ix)
   1A9C DD 66 FF      [19] 4561 	ld	h,-1 (ix)
   1A9F 7E            [ 7] 4562 	ld	a,(hl)
   1AA0 B7            [ 4] 4563 	or	a, a
   1AA1 20 0B         [12] 4564 	jr	NZ,00140$
                           4565 ;src/main.c:853: dibujarExplosion(actual);
   1AA3 C5            [11] 4566 	push	bc
   1AA4 D5            [11] 4567 	push	de
   1AA5 D5            [11] 4568 	push	de
   1AA6 CDr0Ar03      [17] 4569 	call	_dibujarExplosion
   1AA9 F1            [10] 4570 	pop	af
   1AAA D1            [10] 4571 	pop	de
   1AAB C1            [10] 4572 	pop	bc
   1AAC 18 4E         [12] 4573 	jr	00141$
   1AAE                    4574 00140$:
                           4575 ;src/main.c:854: }else if(!parpadeo && actual->muerto && cambio<=12 && !actual->xplot){
   1AAE 3Ar9Fr03      [13] 4576 	ld	a,(#_parpadeo + 0)
   1AB1 B7            [ 4] 4577 	or	a, a
   1AB2 20 48         [12] 4578 	jr	NZ,00141$
   1AB4 DD 6E F8      [19] 4579 	ld	l,-8 (ix)
   1AB7 DD 66 F9      [19] 4580 	ld	h,-7 (ix)
   1ABA 7E            [ 7] 4581 	ld	a,(hl)
   1ABB B7            [ 4] 4582 	or	a, a
   1ABC 28 3E         [12] 4583 	jr	Z,00141$
   1ABE 3E 0C         [ 7] 4584 	ld	a,#0x0C
   1AC0 FD 21rA0r03   [14] 4585 	ld	iy,#_cambio
   1AC4 FD 96 00      [19] 4586 	sub	a, 0 (iy)
   1AC7 38 33         [12] 4587 	jr	C,00141$
   1AC9 DD 6E FE      [19] 4588 	ld	l,-2 (ix)
   1ACC DD 66 FF      [19] 4589 	ld	h,-1 (ix)
   1ACF 7E            [ 7] 4590 	ld	a,(hl)
   1AD0 B7            [ 4] 4591 	or	a, a
   1AD1 20 29         [12] 4592 	jr	NZ,00141$
                           4593 ;src/main.c:855: borrarExplosion((*actual).px, (*actual).py);
   1AD3 DD 6E FC      [19] 4594 	ld	l,-4 (ix)
   1AD6 DD 66 FD      [19] 4595 	ld	h,-3 (ix)
   1AD9 7E            [ 7] 4596 	ld	a,(hl)
   1ADA DD 6E F4      [19] 4597 	ld	l,-12 (ix)
   1ADD DD 66 F5      [19] 4598 	ld	h,-11 (ix)
   1AE0 46            [ 7] 4599 	ld	b,(hl)
   1AE1 C5            [11] 4600 	push	bc
   1AE2 D5            [11] 4601 	push	de
   1AE3 F5            [11] 4602 	push	af
   1AE4 33            [ 6] 4603 	inc	sp
   1AE5 C5            [11] 4604 	push	bc
   1AE6 33            [ 6] 4605 	inc	sp
   1AE7 CDr43r03      [17] 4606 	call	_borrarExplosion
   1AEA F1            [10] 4607 	pop	af
   1AEB D1            [10] 4608 	pop	de
   1AEC C1            [10] 4609 	pop	bc
                           4610 ;src/main.c:856: if(cambio == 12){
   1AED 3ArA0r03      [13] 4611 	ld	a,(#_cambio + 0)
   1AF0 D6 0C         [ 7] 4612 	sub	a, #0x0C
   1AF2 20 08         [12] 4613 	jr	NZ,00141$
                           4614 ;src/main.c:857: actual->xplot = SI;
   1AF4 DD 6E FE      [19] 4615 	ld	l,-2 (ix)
   1AF7 DD 66 FF      [19] 4616 	ld	h,-1 (ix)
   1AFA 36 01         [10] 4617 	ld	(hl),#0x01
   1AFC                    4618 00141$:
                           4619 ;src/main.c:860: ++actual;
   1AFC 21 E3 00      [10] 4620 	ld	hl,#0x00E3
   1AFF 19            [11] 4621 	add	hl,de
   1B00 EB            [ 4] 4622 	ex	de,hl
   1B01 C3r86r19      [10] 4623 	jp	00144$
   1B04                    4624 00146$:
                           4625 ;src/main.c:862: cpct_waitVSYNC();
   1B04 CDr00r00      [17] 4626 	call	_cpct_waitVSYNC
   1B07 C3r0Dr18      [10] 4627 	jp	00148$
                           4628 	.area _CODE
                           4629 	.area _INITIALIZER
   0000                    4630 __xinit__mapa:
   0000 00 00              4631 	.dw #0x0000
   0002                    4632 __xinit__num_mapa:
   0002 00                 4633 	.db #0x00	; 0
   0003                    4634 __xinit__puntuacion:
   0003 00                 4635 	.db #0x00	; 0
                           4636 	.area _CABS (ABS)
