                              1 ;--------------------------------------------------------
                              2 ; File Created by SDCC : free open source ANSI-C Compiler
                              3 ; Version 3.5.5 #9498 (Linux)
                              4 ;--------------------------------------------------------
                              5 	.module main
                              6 	.optsdcc -mz80
                              7 	
                              8 ;--------------------------------------------------------
                              9 ; Public variables in this module
                             10 ;--------------------------------------------------------
                             11 	.globl _main
                             12 	.globl _inicializarJuego
                             13 	.globl _inicializarCPC
                             14 	.globl _intHandler
                             15 	.globl _moverAbajo
                             16 	.globl _moverArriba
                             17 	.globl _moverDerecha
                             18 	.globl _moverIzquierda
                             19 	.globl _avanzarMapa
                             20 	.globl _inicializarEnemy
                             21 	.globl _updateEnemies
                             22 	.globl _engage
                             23 	.globl _seek
                             24 	.globl _patrol
                             25 	.globl _moverEnemigoSeek
                             26 	.globl _lookFor
                             27 	.globl _moverEnemigoPatrol
                             28 	.globl _moverEnemigo
                             29 	.globl _moverEnemigoIzquierda
                             30 	.globl _moverEnemigoDerecha
                             31 	.globl _moverEnemigoAbajo
                             32 	.globl _moverEnemigoArriba
                             33 	.globl _checkEnemyCollision
                             34 	.globl _redibujarEnemigo
                             35 	.globl _borrarEnemigo
                             36 	.globl _borrarExplosion
                             37 	.globl _dibujarExplosion
                             38 	.globl _dibujarEnemigo
                             39 	.globl _checkCollision
                             40 	.globl _comprobarTeclado
                             41 	.globl _redibujarProta
                             42 	.globl _borrarProta
                             43 	.globl _dibujarProta
                             44 	.globl _dibujarMapa
                             45 	.globl _play
                             46 	.globl _pathFinding
                             47 	.globl _moverCuchillo
                             48 	.globl _lanzarCuchillo
                             49 	.globl _redibujarCuchillo
                             50 	.globl _borrarCuchillo
                             51 	.globl _abs
                             52 	.globl _getTilePtr
                             53 	.globl _aumentarPuntuacion
                             54 	.globl _modificarPuntuacion
                             55 	.globl _barraPuntuacionInicial
                             56 	.globl _menuInicio
                             57 	.globl _menuFin
                             58 	.globl _cpct_etm_setTileset2x4
                             59 	.globl _cpct_etm_drawTileBox2x4
                             60 	.globl _cpct_getScreenPtr
                             61 	.globl _cpct_setPALColour
                             62 	.globl _cpct_setPalette
                             63 	.globl _cpct_waitVSYNC
                             64 	.globl _cpct_setVideoMode
                             65 	.globl _cpct_drawSpriteMaskedAlignedTable
                             66 	.globl _cpct_isAnyKeyPressed
                             67 	.globl _cpct_isKeyPressed
                             68 	.globl _cpct_scanKeyboard_if
                             69 	.globl _cpct_disableFirmware
                             70 	.globl _vidas
                             71 	.globl _puntuacion
                             72 	.globl _num_mapa
                             73 	.globl _mapa
                             74 	.globl _i
                             75 	.globl _cu
                             76 	.globl _prota
                             77 	.globl _enemy
                             78 	.globl _patrolY
                             79 	.globl _patrolX
                             80 	.globl _spawnY
                             81 	.globl _spawnX
                             82 	.globl _mapas
                             83 ;--------------------------------------------------------
                             84 ; special function registers
                             85 ;--------------------------------------------------------
                             86 ;--------------------------------------------------------
                             87 ; ram data
                             88 ;--------------------------------------------------------
                             89 	.area _DATA
   0000                      90 _enemy::
   0000                      91 	.ds 1304
   0518                      92 _prota::
   0518                      93 	.ds 8
   0520                      94 _cu::
   0520                      95 	.ds 10
   052A                      96 _i::
   052A                      97 	.ds 1
                             98 ;--------------------------------------------------------
                             99 ; ram data
                            100 ;--------------------------------------------------------
                            101 	.area _INITIALIZED
   0000                     102 _mapa::
   0000                     103 	.ds 2
   0002                     104 _num_mapa::
   0002                     105 	.ds 1
   0003                     106 _puntuacion::
   0003                     107 	.ds 1
   0004                     108 _vidas::
   0004                     109 	.ds 1
                            110 ;--------------------------------------------------------
                            111 ; absolute external ram data
                            112 ;--------------------------------------------------------
                            113 	.area _DABS (ABS)
                            114 ;--------------------------------------------------------
                            115 ; global & static initialisations
                            116 ;--------------------------------------------------------
                            117 	.area _HOME
                            118 	.area _GSINIT
                            119 	.area _GSFINAL
                            120 	.area _GSINIT
                            121 ;--------------------------------------------------------
                            122 ; Home
                            123 ;--------------------------------------------------------
                            124 	.area _HOME
                            125 	.area _HOME
                            126 ;--------------------------------------------------------
                            127 ; code
                            128 ;--------------------------------------------------------
                            129 	.area _CODE
                            130 ;src/main.c:108: cpctm_createTransparentMaskTable(g_tablatrans, 0x0100, M0, 0);
                            131 ;	---------------------------------
                            132 ; Function dummy_cpct_transparentMaskTable0M0_container
                            133 ; ---------------------------------
   0000                     134 _dummy_cpct_transparentMaskTable0M0_container::
                            135 	.area _g_tablatrans_ (ABS) 
   0100                     136 	.org 0x0100 
   0100                     137 	 _g_tablatrans::
   0100 FF AA 55 00 AA AA   138 	.db 0xFF, 0xAA, 0x55, 0x00, 0xAA, 0xAA, 0x00, 0x00 
        00 00
   0108 55 00 55 00 00 00   139 	.db 0x55, 0x00, 0x55, 0x00, 0x00, 0x00, 0x00, 0x00 
        00 00
   0110 AA AA 00 00 AA AA   140 	.db 0xAA, 0xAA, 0x00, 0x00, 0xAA, 0xAA, 0x00, 0x00 
        00 00
   0118 00 00 00 00 00 00   141 	.db 0x00, 0x00, 0x00, 0x00, 0x00, 0x00, 0x00, 0x00 
        00 00
   0120 55 00 55 00 00 00   142 	.db 0x55, 0x00, 0x55, 0x00, 0x00, 0x00, 0x00, 0x00 
        00 00
   0128 55 00 55 00 00 00   143 	.db 0x55, 0x00, 0x55, 0x00, 0x00, 0x00, 0x00, 0x00 
        00 00
   0130 00 00 00 00 00 00   144 	.db 0x00, 0x00, 0x00, 0x00, 0x00, 0x00, 0x00, 0x00 
        00 00
   0138 00 00 00 00 00 00   145 	.db 0x00, 0x00, 0x00, 0x00, 0x00, 0x00, 0x00, 0x00 
        00 00
   0140 AA AA 00 00 AA AA   146 	.db 0xAA, 0xAA, 0x00, 0x00, 0xAA, 0xAA, 0x00, 0x00 
        00 00
   0148 00 00 00 00 00 00   147 	.db 0x00, 0x00, 0x00, 0x00, 0x00, 0x00, 0x00, 0x00 
        00 00
   0150 AA AA 00 00 AA AA   148 	.db 0xAA, 0xAA, 0x00, 0x00, 0xAA, 0xAA, 0x00, 0x00 
        00 00
   0158 00 00 00 00 00 00   149 	.db 0x00, 0x00, 0x00, 0x00, 0x00, 0x00, 0x00, 0x00 
        00 00
   0160 00 00 00 00 00 00   150 	.db 0x00, 0x00, 0x00, 0x00, 0x00, 0x00, 0x00, 0x00 
        00 00
   0168 00 00 00 00 00 00   151 	.db 0x00, 0x00, 0x00, 0x00, 0x00, 0x00, 0x00, 0x00 
        00 00
   0170 00 00 00 00 00 00   152 	.db 0x00, 0x00, 0x00, 0x00, 0x00, 0x00, 0x00, 0x00 
        00 00
   0178 00 00 00 00 00 00   153 	.db 0x00, 0x00, 0x00, 0x00, 0x00, 0x00, 0x00, 0x00 
        00 00
   0180 55 00 55 00 00 00   154 	.db 0x55, 0x00, 0x55, 0x00, 0x00, 0x00, 0x00, 0x00 
        00 00
   0188 55 00 55 00 00 00   155 	.db 0x55, 0x00, 0x55, 0x00, 0x00, 0x00, 0x00, 0x00 
        00 00
   0190 00 00 00 00 00 00   156 	.db 0x00, 0x00, 0x00, 0x00, 0x00, 0x00, 0x00, 0x00 
        00 00
   0198 00 00 00 00 00 00   157 	.db 0x00, 0x00, 0x00, 0x00, 0x00, 0x00, 0x00, 0x00 
        00 00
   01A0 55 00 55 00 00 00   158 	.db 0x55, 0x00, 0x55, 0x00, 0x00, 0x00, 0x00, 0x00 
        00 00
   01A8 55 00 55 00 00 00   159 	.db 0x55, 0x00, 0x55, 0x00, 0x00, 0x00, 0x00, 0x00 
        00 00
   01B0 00 00 00 00 00 00   160 	.db 0x00, 0x00, 0x00, 0x00, 0x00, 0x00, 0x00, 0x00 
        00 00
   01B8 00 00 00 00 00 00   161 	.db 0x00, 0x00, 0x00, 0x00, 0x00, 0x00, 0x00, 0x00 
        00 00
   01C0 00 00 00 00 00 00   162 	.db 0x00, 0x00, 0x00, 0x00, 0x00, 0x00, 0x00, 0x00 
        00 00
   01C8 00 00 00 00 00 00   163 	.db 0x00, 0x00, 0x00, 0x00, 0x00, 0x00, 0x00, 0x00 
        00 00
   01D0 00 00 00 00 00 00   164 	.db 0x00, 0x00, 0x00, 0x00, 0x00, 0x00, 0x00, 0x00 
        00 00
   01D8 00 00 00 00 00 00   165 	.db 0x00, 0x00, 0x00, 0x00, 0x00, 0x00, 0x00, 0x00 
        00 00
   01E0 00 00 00 00 00 00   166 	.db 0x00, 0x00, 0x00, 0x00, 0x00, 0x00, 0x00, 0x00 
        00 00
   01E8 00 00 00 00 00 00   167 	.db 0x00, 0x00, 0x00, 0x00, 0x00, 0x00, 0x00, 0x00 
        00 00
   01F0 00 00 00 00 00 00   168 	.db 0x00, 0x00, 0x00, 0x00, 0x00, 0x00, 0x00, 0x00 
        00 00
   01F8 00 00 00 00 00 00   169 	.db 0x00, 0x00, 0x00, 0x00, 0x00, 0x00, 0x00, 0x00 
        00 00
                            170 	.area _CSEG (REL, CON) 
                            171 ;src/main.c:111: void dibujarMapa() {
                            172 ;	---------------------------------
                            173 ; Function dibujarMapa
                            174 ; ---------------------------------
   0000                     175 _dibujarMapa::
                            176 ;src/main.c:114: cpct_etm_drawTilemap2x4 (g_map1_W, g_map1_H, p, mapa);
   0000 2Ar00r00      [16]  177 	ld	hl,(_mapa)
   0003 E5            [11]  178 	push	hl
   0004 21 F0 C0      [10]  179 	ld	hl,#0xC0F0
   0007 E5            [11]  180 	push	hl
   0008 21 2C 28      [10]  181 	ld	hl,#0x282C
   000B E5            [11]  182 	push	hl
   000C 2E 00         [ 7]  183 	ld	l, #0x00
   000E E5            [11]  184 	push	hl
   000F AF            [ 4]  185 	xor	a, a
   0010 F5            [11]  186 	push	af
   0011 33            [ 6]  187 	inc	sp
   0012 CDr00r00      [17]  188 	call	_cpct_etm_drawTileBox2x4
   0015 C9            [10]  189 	ret
   0016                     190 _mapas:
   0016r00r00               191 	.dw _g_map1
   0018r00r00               192 	.dw _g_map2
   001Ar00r00               193 	.dw _g_map3
   001C                     194 _spawnX:
   001C 00                  195 	.db #0x00	; 0
   001D 26                  196 	.db #0x26	; 38
   001E 47                  197 	.db #0x47	; 71	'G'
   001F 32                  198 	.db #0x32	; 50	'2'
   0020 18                  199 	.db #0x18	; 24
   0021                     200 _spawnY:
   0021 00                  201 	.db #0x00	; 0
   0022 2C                  202 	.db #0x2C	; 44
   0023 72                  203 	.db #0x72	; 114	'r'
   0024 9A                  204 	.db #0x9A	; 154
   0025 68                  205 	.db #0x68	; 104	'h'
   0026                     206 _patrolX:
   0026 00                  207 	.db #0x00	; 0
   0027 00                  208 	.db #0x00	; 0
   0028 00                  209 	.db #0x00	; 0
   0029 00                  210 	.db #0x00	; 0
   002A 00                  211 	.db #0x00	; 0
   002B 00                  212 	.db #0x00	; 0
   002C 14                  213 	.db #0x14	; 20
   002D 47                  214 	.db #0x47	; 71	'G'
   002E 00                  215 	.db #0x00	; 0
   002F 00                  216 	.db #0x00	; 0
   0030 00                  217 	.db #0x00	; 0
   0031 00                  218 	.db #0x00	; 0
   0032 00                  219 	.db #0x00	; 0
   0033 00                  220 	.db #0x00	; 0
   0034 00                  221 	.db #0x00	; 0
   0035 00                  222 	.db #0x00	; 0
   0036 00                  223 	.db #0x00	; 0
   0037 00                  224 	.db #0x00	; 0
   0038 00                  225 	.db #0x00	; 0
   0039 00                  226 	.db #0x00	; 0
   003A                     227 _patrolY:
   003A 00                  228 	.db #0x00	; 0
   003B 00                  229 	.db #0x00	; 0
   003C 00                  230 	.db #0x00	; 0
   003D 00                  231 	.db #0x00	; 0
   003E 00                  232 	.db #0x00	; 0
   003F 00                  233 	.db #0x00	; 0
   0040 2C                  234 	.db #0x2C	; 44
   0041 84                  235 	.db #0x84	; 132
   0042 00                  236 	.db #0x00	; 0
   0043 00                  237 	.db #0x00	; 0
   0044 00                  238 	.db #0x00	; 0
   0045 00                  239 	.db #0x00	; 0
   0046 00                  240 	.db #0x00	; 0
   0047 00                  241 	.db #0x00	; 0
   0048 00                  242 	.db #0x00	; 0
   0049 00                  243 	.db #0x00	; 0
   004A 00                  244 	.db #0x00	; 0
   004B 00                  245 	.db #0x00	; 0
   004C 00                  246 	.db #0x00	; 0
   004D 00                  247 	.db #0x00	; 0
                            248 ;src/main.c:117: void dibujarProta() {
                            249 ;	---------------------------------
                            250 ; Function dibujarProta
                            251 ; ---------------------------------
   004E                     252 _dibujarProta::
                            253 ;src/main.c:118: u8* pvmem = cpct_getScreenPtr(CPCT_VMEM_START, prota.x, prota.y);
   004E 21r19r05      [10]  254 	ld	hl, #_prota + 1
   0051 56            [ 7]  255 	ld	d,(hl)
   0052 21r18r05      [10]  256 	ld	hl, #_prota + 0
   0055 46            [ 7]  257 	ld	b,(hl)
   0056 D5            [11]  258 	push	de
   0057 33            [ 6]  259 	inc	sp
   0058 C5            [11]  260 	push	bc
   0059 33            [ 6]  261 	inc	sp
   005A 21 00 C0      [10]  262 	ld	hl,#0xC000
   005D E5            [11]  263 	push	hl
   005E CDr00r00      [17]  264 	call	_cpct_getScreenPtr
   0061 EB            [ 4]  265 	ex	de,hl
                            266 ;src/main.c:119: cpct_drawSpriteMaskedAlignedTable (prota.sprite, pvmem, G_HERO_W, G_HERO_H, g_tablatrans);
   0062 ED 4Br1Cr05   [20]  267 	ld	bc, (#_prota + 4)
   0066 21r00r01      [10]  268 	ld	hl,#_g_tablatrans
   0069 E5            [11]  269 	push	hl
   006A 21 07 16      [10]  270 	ld	hl,#0x1607
   006D E5            [11]  271 	push	hl
   006E D5            [11]  272 	push	de
   006F C5            [11]  273 	push	bc
   0070 CDr00r00      [17]  274 	call	_cpct_drawSpriteMaskedAlignedTable
   0073 C9            [10]  275 	ret
                            276 ;src/main.c:122: void borrarProta() {
                            277 ;	---------------------------------
                            278 ; Function borrarProta
                            279 ; ---------------------------------
   0074                     280 _borrarProta::
   0074 DD E5         [15]  281 	push	ix
   0076 DD 21 00 00   [14]  282 	ld	ix,#0
   007A DD 39         [15]  283 	add	ix,sp
   007C F5            [11]  284 	push	af
   007D 3B            [ 6]  285 	dec	sp
                            286 ;src/main.c:126: u8 w = 4 + (prota.px & 1);
   007E 21r1Ar05      [10]  287 	ld	hl, #_prota + 2
   0081 4E            [ 7]  288 	ld	c,(hl)
   0082 79            [ 4]  289 	ld	a,c
   0083 E6 01         [ 7]  290 	and	a, #0x01
   0085 47            [ 4]  291 	ld	b,a
   0086 04            [ 4]  292 	inc	b
   0087 04            [ 4]  293 	inc	b
   0088 04            [ 4]  294 	inc	b
   0089 04            [ 4]  295 	inc	b
                            296 ;src/main.c:129: u8 h = 6 + (prota.py & 2 ? 1 : 0);
   008A 21r1Br05      [10]  297 	ld	hl, #_prota + 3
   008D 5E            [ 7]  298 	ld	e,(hl)
   008E CB 4B         [ 8]  299 	bit	1, e
   0090 28 04         [12]  300 	jr	Z,00103$
   0092 3E 01         [ 7]  301 	ld	a,#0x01
   0094 18 02         [12]  302 	jr	00104$
   0096                     303 00103$:
   0096 3E 00         [ 7]  304 	ld	a,#0x00
   0098                     305 00104$:
   0098 C6 06         [ 7]  306 	add	a, #0x06
   009A DD 77 FD      [19]  307 	ld	-3 (ix),a
                            308 ;src/main.c:131: cpct_etm_drawTileBox2x4 (prota.px / 2, (prota.py - ORIGEN_MAPA_Y)/4, w, h, g_map1_W, p, mapa);
   009D FD 2Ar00r00   [20]  309 	ld	iy,(_mapa)
   00A1 16 00         [ 7]  310 	ld	d,#0x00
   00A3 7B            [ 4]  311 	ld	a,e
   00A4 C6 E8         [ 7]  312 	add	a,#0xE8
   00A6 DD 77 FE      [19]  313 	ld	-2 (ix),a
   00A9 7A            [ 4]  314 	ld	a,d
   00AA CE FF         [ 7]  315 	adc	a,#0xFF
   00AC DD 77 FF      [19]  316 	ld	-1 (ix),a
   00AF DD 6E FE      [19]  317 	ld	l,-2 (ix)
   00B2 DD 66 FF      [19]  318 	ld	h,-1 (ix)
   00B5 DD CB FF 7E   [20]  319 	bit	7, -1 (ix)
   00B9 28 04         [12]  320 	jr	Z,00105$
   00BB 21 EB FF      [10]  321 	ld	hl,#0xFFEB
   00BE 19            [11]  322 	add	hl,de
   00BF                     323 00105$:
   00BF CB 2C         [ 8]  324 	sra	h
   00C1 CB 1D         [ 8]  325 	rr	l
   00C3 CB 2C         [ 8]  326 	sra	h
   00C5 CB 1D         [ 8]  327 	rr	l
   00C7 55            [ 4]  328 	ld	d,l
   00C8 CB 39         [ 8]  329 	srl	c
   00CA FD E5         [15]  330 	push	iy
   00CC 21 F0 C0      [10]  331 	ld	hl,#0xC0F0
   00CF E5            [11]  332 	push	hl
   00D0 3E 28         [ 7]  333 	ld	a,#0x28
   00D2 F5            [11]  334 	push	af
   00D3 33            [ 6]  335 	inc	sp
   00D4 DD 7E FD      [19]  336 	ld	a,-3 (ix)
   00D7 F5            [11]  337 	push	af
   00D8 33            [ 6]  338 	inc	sp
   00D9 C5            [11]  339 	push	bc
   00DA 33            [ 6]  340 	inc	sp
   00DB D5            [11]  341 	push	de
   00DC 33            [ 6]  342 	inc	sp
   00DD 79            [ 4]  343 	ld	a,c
   00DE F5            [11]  344 	push	af
   00DF 33            [ 6]  345 	inc	sp
   00E0 CDr00r00      [17]  346 	call	_cpct_etm_drawTileBox2x4
   00E3 DD F9         [10]  347 	ld	sp, ix
   00E5 DD E1         [14]  348 	pop	ix
   00E7 C9            [10]  349 	ret
                            350 ;src/main.c:134: void redibujarProta() {
                            351 ;	---------------------------------
                            352 ; Function redibujarProta
                            353 ; ---------------------------------
   00E8                     354 _redibujarProta::
                            355 ;src/main.c:135: borrarProta();
   00E8 CDr74r00      [17]  356 	call	_borrarProta
                            357 ;src/main.c:136: prota.px = prota.x;
   00EB 01r1Ar05      [10]  358 	ld	bc,#_prota + 2
   00EE 3Ar18r05      [13]  359 	ld	a, (#_prota + 0)
   00F1 02            [ 7]  360 	ld	(bc),a
                            361 ;src/main.c:137: prota.py = prota.y;
   00F2 01r1Br05      [10]  362 	ld	bc,#_prota + 3
   00F5 3Ar19r05      [13]  363 	ld	a, (#_prota + 1)
   00F8 02            [ 7]  364 	ld	(bc),a
                            365 ;src/main.c:138: dibujarProta();
   00F9 C3r4Er00      [10]  366 	jp  _dibujarProta
                            367 ;src/main.c:141: void comprobarTeclado(TKnife* cu, TProta* prota, u8* mapa, u8* g_tablatrans) {
                            368 ;	---------------------------------
                            369 ; Function comprobarTeclado
                            370 ; ---------------------------------
   00FC                     371 _comprobarTeclado::
                            372 ;src/main.c:142: cpct_scanKeyboard_if();
   00FC CDr00r00      [17]  373 	call	_cpct_scanKeyboard_if
                            374 ;src/main.c:144: if (cpct_isAnyKeyPressed()) {
   00FF CDr00r00      [17]  375 	call	_cpct_isAnyKeyPressed
   0102 7D            [ 4]  376 	ld	a,l
   0103 B7            [ 4]  377 	or	a, a
   0104 C8            [11]  378 	ret	Z
                            379 ;src/main.c:145: if (cpct_isKeyPressed(Key_CursorLeft)){
   0105 21 01 01      [10]  380 	ld	hl,#0x0101
   0108 CDr00r00      [17]  381 	call	_cpct_isKeyPressed
   010B 7D            [ 4]  382 	ld	a,l
   010C B7            [ 4]  383 	or	a, a
                            384 ;src/main.c:146: moverIzquierda();
   010D C2rD6r15      [10]  385 	jp	NZ,_moverIzquierda
                            386 ;src/main.c:147: }else if (cpct_isKeyPressed(Key_CursorRight)){
   0110 21 00 02      [10]  387 	ld	hl,#0x0200
   0113 CDr00r00      [17]  388 	call	_cpct_isKeyPressed
   0116 7D            [ 4]  389 	ld	a,l
   0117 B7            [ 4]  390 	or	a, a
                            391 ;src/main.c:148: moverDerecha();
   0118 C2rFBr15      [10]  392 	jp	NZ,_moverDerecha
                            393 ;src/main.c:149: }else if (cpct_isKeyPressed(Key_CursorUp)){
   011B 21 00 01      [10]  394 	ld	hl,#0x0100
   011E CDr00r00      [17]  395 	call	_cpct_isKeyPressed
   0121 7D            [ 4]  396 	ld	a,l
   0122 B7            [ 4]  397 	or	a, a
                            398 ;src/main.c:150: moverArriba();
   0123 C2r40r16      [10]  399 	jp	NZ,_moverArriba
                            400 ;src/main.c:151: }else if (cpct_isKeyPressed(Key_CursorDown)){
   0126 21 00 04      [10]  401 	ld	hl,#0x0400
   0129 CDr00r00      [17]  402 	call	_cpct_isKeyPressed
   012C 7D            [ 4]  403 	ld	a,l
   012D B7            [ 4]  404 	or	a, a
                            405 ;src/main.c:152: moverAbajo();
   012E C2r64r16      [10]  406 	jp	NZ,_moverAbajo
                            407 ;src/main.c:153: }else if (cpct_isKeyPressed(Key_Space)){
   0131 21 05 80      [10]  408 	ld	hl,#0x8005
   0134 CDr00r00      [17]  409 	call	_cpct_isKeyPressed
   0137 7D            [ 4]  410 	ld	a,l
   0138 B7            [ 4]  411 	or	a, a
   0139 C8            [11]  412 	ret	Z
                            413 ;src/main.c:154: lanzarCuchillo(cu, prota, mapa, g_tablatrans);
   013A 21 08 00      [10]  414 	ld	hl, #8
   013D 39            [11]  415 	add	hl, sp
   013E 4E            [ 7]  416 	ld	c, (hl)
   013F 23            [ 6]  417 	inc	hl
   0140 46            [ 7]  418 	ld	b, (hl)
   0141 C5            [11]  419 	push	bc
   0142 21 08 00      [10]  420 	ld	hl, #8
   0145 39            [11]  421 	add	hl, sp
   0146 4E            [ 7]  422 	ld	c, (hl)
   0147 23            [ 6]  423 	inc	hl
   0148 46            [ 7]  424 	ld	b, (hl)
   0149 C5            [11]  425 	push	bc
   014A 21 08 00      [10]  426 	ld	hl, #8
   014D 39            [11]  427 	add	hl, sp
   014E 4E            [ 7]  428 	ld	c, (hl)
   014F 23            [ 6]  429 	inc	hl
   0150 46            [ 7]  430 	ld	b, (hl)
   0151 C5            [11]  431 	push	bc
   0152 21 08 00      [10]  432 	ld	hl, #8
   0155 39            [11]  433 	add	hl, sp
   0156 4E            [ 7]  434 	ld	c, (hl)
   0157 23            [ 6]  435 	inc	hl
   0158 46            [ 7]  436 	ld	b, (hl)
   0159 C5            [11]  437 	push	bc
   015A CDr00r00      [17]  438 	call	_lanzarCuchillo
   015D 21 08 00      [10]  439 	ld	hl,#8
   0160 39            [11]  440 	add	hl,sp
   0161 F9            [ 6]  441 	ld	sp,hl
   0162 C9            [10]  442 	ret
                            443 ;src/main.c:159: u8 checkCollision(u8 direction) { // check optimization
                            444 ;	---------------------------------
                            445 ; Function checkCollision
                            446 ; ---------------------------------
   0163                     447 _checkCollision::
   0163 DD E5         [15]  448 	push	ix
   0165 DD 21 00 00   [14]  449 	ld	ix,#0
   0169 DD 39         [15]  450 	add	ix,sp
   016B F5            [11]  451 	push	af
                            452 ;src/main.c:160: u8 *headTile=0, *feetTile=0, *waistTile=0;
   016C 21 00 00      [10]  453 	ld	hl,#0x0000
   016F E3            [19]  454 	ex	(sp), hl
   0170 11 00 00      [10]  455 	ld	de,#0x0000
   0173 01 00 00      [10]  456 	ld	bc,#0x0000
                            457 ;src/main.c:162: switch (direction) {
   0176 3E 03         [ 7]  458 	ld	a,#0x03
   0178 DD 96 04      [19]  459 	sub	a, 4 (ix)
   017B DArB7r02      [10]  460 	jp	C,00105$
   017E DD 5E 04      [19]  461 	ld	e,4 (ix)
   0181 16 00         [ 7]  462 	ld	d,#0x00
   0183 21r8Ar01      [10]  463 	ld	hl,#00124$
   0186 19            [11]  464 	add	hl,de
   0187 19            [11]  465 	add	hl,de
   0188 19            [11]  466 	add	hl,de
   0189 E9            [ 4]  467 	jp	(hl)
   018A                     468 00124$:
   018A C3r96r01      [10]  469 	jp	00101$
   018D C3rEFr01      [10]  470 	jp	00102$
   0190 C3r3Fr02      [10]  471 	jp	00103$
   0193 C3r7Cr02      [10]  472 	jp	00104$
                            473 ;src/main.c:163: case 0:
   0196                     474 00101$:
                            475 ;src/main.c:164: headTile  = getTilePtr(mapa, prota.x + G_HERO_W - 3, prota.y);
   0196 21r19r05      [10]  476 	ld	hl, #(_prota + 0x0001) + 0
   0199 4E            [ 7]  477 	ld	c,(hl)
   019A 3Ar18r05      [13]  478 	ld	a, (#_prota + 0)
   019D 47            [ 4]  479 	ld	b,a
   019E 04            [ 4]  480 	inc	b
   019F 04            [ 4]  481 	inc	b
   01A0 04            [ 4]  482 	inc	b
   01A1 04            [ 4]  483 	inc	b
   01A2 79            [ 4]  484 	ld	a,c
   01A3 F5            [11]  485 	push	af
   01A4 33            [ 6]  486 	inc	sp
   01A5 C5            [11]  487 	push	bc
   01A6 33            [ 6]  488 	inc	sp
   01A7 2Ar00r00      [16]  489 	ld	hl,(_mapa)
   01AA E5            [11]  490 	push	hl
   01AB CDr00r00      [17]  491 	call	_getTilePtr
   01AE F1            [10]  492 	pop	af
   01AF F1            [10]  493 	pop	af
   01B0 33            [ 6]  494 	inc	sp
   01B1 33            [ 6]  495 	inc	sp
   01B2 E5            [11]  496 	push	hl
                            497 ;src/main.c:165: feetTile  = getTilePtr(mapa, prota.x + G_HERO_W - 3, prota.y + ALTO_PROTA - 2);
   01B3 3Ar19r05      [13]  498 	ld	a, (#(_prota + 0x0001) + 0)
   01B6 C6 14         [ 7]  499 	add	a, #0x14
   01B8 4F            [ 4]  500 	ld	c,a
   01B9 21r18r05      [10]  501 	ld	hl, #_prota + 0
   01BC 46            [ 7]  502 	ld	b,(hl)
   01BD 04            [ 4]  503 	inc	b
   01BE 04            [ 4]  504 	inc	b
   01BF 04            [ 4]  505 	inc	b
   01C0 04            [ 4]  506 	inc	b
   01C1 79            [ 4]  507 	ld	a,c
   01C2 F5            [11]  508 	push	af
   01C3 33            [ 6]  509 	inc	sp
   01C4 C5            [11]  510 	push	bc
   01C5 33            [ 6]  511 	inc	sp
   01C6 2Ar00r00      [16]  512 	ld	hl,(_mapa)
   01C9 E5            [11]  513 	push	hl
   01CA CDr00r00      [17]  514 	call	_getTilePtr
   01CD F1            [10]  515 	pop	af
   01CE F1            [10]  516 	pop	af
   01CF EB            [ 4]  517 	ex	de,hl
                            518 ;src/main.c:166: waistTile = getTilePtr(mapa, prota.x + G_HERO_W - 3, prota.y + ALTO_PROTA/2);
   01D0 3Ar19r05      [13]  519 	ld	a, (#(_prota + 0x0001) + 0)
   01D3 C6 0B         [ 7]  520 	add	a, #0x0B
   01D5 47            [ 4]  521 	ld	b,a
   01D6 3Ar18r05      [13]  522 	ld	a, (#_prota + 0)
   01D9 C6 04         [ 7]  523 	add	a, #0x04
   01DB D5            [11]  524 	push	de
   01DC C5            [11]  525 	push	bc
   01DD 33            [ 6]  526 	inc	sp
   01DE F5            [11]  527 	push	af
   01DF 33            [ 6]  528 	inc	sp
   01E0 2Ar00r00      [16]  529 	ld	hl,(_mapa)
   01E3 E5            [11]  530 	push	hl
   01E4 CDr00r00      [17]  531 	call	_getTilePtr
   01E7 F1            [10]  532 	pop	af
   01E8 F1            [10]  533 	pop	af
   01E9 4D            [ 4]  534 	ld	c,l
   01EA 44            [ 4]  535 	ld	b,h
   01EB D1            [10]  536 	pop	de
                            537 ;src/main.c:167: break;
   01EC C3rB7r02      [10]  538 	jp	00105$
                            539 ;src/main.c:168: case 1:
   01EF                     540 00102$:
                            541 ;src/main.c:169: headTile  = getTilePtr(mapa, prota.x - 1, prota.y);
   01EF 21r19r05      [10]  542 	ld	hl, #(_prota + 0x0001) + 0
   01F2 56            [ 7]  543 	ld	d,(hl)
   01F3 21r18r05      [10]  544 	ld	hl, #_prota + 0
   01F6 46            [ 7]  545 	ld	b,(hl)
   01F7 05            [ 4]  546 	dec	b
   01F8 D5            [11]  547 	push	de
   01F9 33            [ 6]  548 	inc	sp
   01FA C5            [11]  549 	push	bc
   01FB 33            [ 6]  550 	inc	sp
   01FC 2Ar00r00      [16]  551 	ld	hl,(_mapa)
   01FF E5            [11]  552 	push	hl
   0200 CDr00r00      [17]  553 	call	_getTilePtr
   0203 F1            [10]  554 	pop	af
   0204 F1            [10]  555 	pop	af
   0205 33            [ 6]  556 	inc	sp
   0206 33            [ 6]  557 	inc	sp
   0207 E5            [11]  558 	push	hl
                            559 ;src/main.c:170: feetTile  = getTilePtr(mapa, prota.x - 1, prota.y + ALTO_PROTA - 2);
   0208 3Ar19r05      [13]  560 	ld	a, (#(_prota + 0x0001) + 0)
   020B C6 14         [ 7]  561 	add	a, #0x14
   020D 57            [ 4]  562 	ld	d,a
   020E 21r18r05      [10]  563 	ld	hl, #_prota + 0
   0211 46            [ 7]  564 	ld	b,(hl)
   0212 05            [ 4]  565 	dec	b
   0213 D5            [11]  566 	push	de
   0214 33            [ 6]  567 	inc	sp
   0215 C5            [11]  568 	push	bc
   0216 33            [ 6]  569 	inc	sp
   0217 2Ar00r00      [16]  570 	ld	hl,(_mapa)
   021A E5            [11]  571 	push	hl
   021B CDr00r00      [17]  572 	call	_getTilePtr
   021E F1            [10]  573 	pop	af
   021F F1            [10]  574 	pop	af
   0220 EB            [ 4]  575 	ex	de,hl
                            576 ;src/main.c:171: waistTile = getTilePtr(mapa, prota.x - 1, prota.y + ALTO_PROTA/2);
   0221 3Ar19r05      [13]  577 	ld	a, (#(_prota + 0x0001) + 0)
   0224 C6 0B         [ 7]  578 	add	a, #0x0B
   0226 47            [ 4]  579 	ld	b,a
   0227 3Ar18r05      [13]  580 	ld	a, (#_prota + 0)
   022A C6 FF         [ 7]  581 	add	a,#0xFF
   022C D5            [11]  582 	push	de
   022D C5            [11]  583 	push	bc
   022E 33            [ 6]  584 	inc	sp
   022F F5            [11]  585 	push	af
   0230 33            [ 6]  586 	inc	sp
   0231 2Ar00r00      [16]  587 	ld	hl,(_mapa)
   0234 E5            [11]  588 	push	hl
   0235 CDr00r00      [17]  589 	call	_getTilePtr
   0238 F1            [10]  590 	pop	af
   0239 F1            [10]  591 	pop	af
   023A 4D            [ 4]  592 	ld	c,l
   023B 44            [ 4]  593 	ld	b,h
   023C D1            [10]  594 	pop	de
                            595 ;src/main.c:172: break;
   023D 18 78         [12]  596 	jr	00105$
                            597 ;src/main.c:173: case 2:
   023F                     598 00103$:
                            599 ;src/main.c:174: headTile   = getTilePtr(mapa, prota.x, prota.y - 2);
   023F 3Ar19r05      [13]  600 	ld	a, (#(_prota + 0x0001) + 0)
   0242 C6 FE         [ 7]  601 	add	a,#0xFE
   0244 21r18r05      [10]  602 	ld	hl, #_prota + 0
   0247 56            [ 7]  603 	ld	d,(hl)
   0248 C5            [11]  604 	push	bc
   0249 F5            [11]  605 	push	af
   024A 33            [ 6]  606 	inc	sp
   024B D5            [11]  607 	push	de
   024C 33            [ 6]  608 	inc	sp
   024D 2Ar00r00      [16]  609 	ld	hl,(_mapa)
   0250 E5            [11]  610 	push	hl
   0251 CDr00r00      [17]  611 	call	_getTilePtr
   0254 F1            [10]  612 	pop	af
   0255 F1            [10]  613 	pop	af
   0256 C1            [10]  614 	pop	bc
   0257 33            [ 6]  615 	inc	sp
   0258 33            [ 6]  616 	inc	sp
   0259 E5            [11]  617 	push	hl
                            618 ;src/main.c:175: feetTile   = getTilePtr(mapa, prota.x + G_HERO_W - 4, prota.y - 2);
   025A 21r19r05      [10]  619 	ld	hl, #(_prota + 0x0001) + 0
   025D 56            [ 7]  620 	ld	d,(hl)
   025E 15            [ 4]  621 	dec	d
   025F 15            [ 4]  622 	dec	d
   0260 3Ar18r05      [13]  623 	ld	a, (#_prota + 0)
   0263 C6 03         [ 7]  624 	add	a, #0x03
   0265 C5            [11]  625 	push	bc
   0266 D5            [11]  626 	push	de
   0267 33            [ 6]  627 	inc	sp
   0268 F5            [11]  628 	push	af
   0269 33            [ 6]  629 	inc	sp
   026A 2Ar00r00      [16]  630 	ld	hl,(_mapa)
   026D E5            [11]  631 	push	hl
   026E CDr00r00      [17]  632 	call	_getTilePtr
   0271 F1            [10]  633 	pop	af
   0272 F1            [10]  634 	pop	af
   0273 EB            [ 4]  635 	ex	de,hl
   0274 C1            [10]  636 	pop	bc
                            637 ;src/main.c:176: *waistTile = 0;
   0275 21 00 00      [10]  638 	ld	hl,#0x0000
   0278 36 00         [10]  639 	ld	(hl),#0x00
                            640 ;src/main.c:177: break;
   027A 18 3B         [12]  641 	jr	00105$
                            642 ;src/main.c:178: case 3:
   027C                     643 00104$:
                            644 ;src/main.c:179: headTile  = getTilePtr(mapa, prota.x, prota.y + ALTO_PROTA  );
   027C 3Ar19r05      [13]  645 	ld	a, (#(_prota + 0x0001) + 0)
   027F C6 16         [ 7]  646 	add	a, #0x16
   0281 21r18r05      [10]  647 	ld	hl, #_prota + 0
   0284 56            [ 7]  648 	ld	d,(hl)
   0285 C5            [11]  649 	push	bc
   0286 F5            [11]  650 	push	af
   0287 33            [ 6]  651 	inc	sp
   0288 D5            [11]  652 	push	de
   0289 33            [ 6]  653 	inc	sp
   028A 2Ar00r00      [16]  654 	ld	hl,(_mapa)
   028D E5            [11]  655 	push	hl
   028E CDr00r00      [17]  656 	call	_getTilePtr
   0291 F1            [10]  657 	pop	af
   0292 F1            [10]  658 	pop	af
   0293 C1            [10]  659 	pop	bc
   0294 33            [ 6]  660 	inc	sp
   0295 33            [ 6]  661 	inc	sp
   0296 E5            [11]  662 	push	hl
                            663 ;src/main.c:180: feetTile  = getTilePtr(mapa, prota.x + G_HERO_W - 4, prota.y + ALTO_PROTA );
   0297 3Ar19r05      [13]  664 	ld	a, (#(_prota + 0x0001) + 0)
   029A C6 16         [ 7]  665 	add	a, #0x16
   029C 57            [ 4]  666 	ld	d,a
   029D 3Ar18r05      [13]  667 	ld	a, (#_prota + 0)
   02A0 C6 03         [ 7]  668 	add	a, #0x03
   02A2 C5            [11]  669 	push	bc
   02A3 D5            [11]  670 	push	de
   02A4 33            [ 6]  671 	inc	sp
   02A5 F5            [11]  672 	push	af
   02A6 33            [ 6]  673 	inc	sp
   02A7 2Ar00r00      [16]  674 	ld	hl,(_mapa)
   02AA E5            [11]  675 	push	hl
   02AB CDr00r00      [17]  676 	call	_getTilePtr
   02AE F1            [10]  677 	pop	af
   02AF F1            [10]  678 	pop	af
   02B0 EB            [ 4]  679 	ex	de,hl
   02B1 C1            [10]  680 	pop	bc
                            681 ;src/main.c:181: *waistTile = 0;
   02B2 21 00 00      [10]  682 	ld	hl,#0x0000
   02B5 36 00         [10]  683 	ld	(hl),#0x00
                            684 ;src/main.c:183: }
   02B7                     685 00105$:
                            686 ;src/main.c:185: if (*headTile > 2 || *feetTile > 2 || *waistTile > 2)
   02B7 E1            [10]  687 	pop	hl
   02B8 E5            [11]  688 	push	hl
   02B9 6E            [ 7]  689 	ld	l,(hl)
   02BA 3E 02         [ 7]  690 	ld	a,#0x02
   02BC 95            [ 4]  691 	sub	a, l
   02BD 38 0E         [12]  692 	jr	C,00106$
   02BF 1A            [ 7]  693 	ld	a,(de)
   02C0 5F            [ 4]  694 	ld	e,a
   02C1 3E 02         [ 7]  695 	ld	a,#0x02
   02C3 93            [ 4]  696 	sub	a, e
   02C4 38 07         [12]  697 	jr	C,00106$
   02C6 0A            [ 7]  698 	ld	a,(bc)
   02C7 4F            [ 4]  699 	ld	c,a
   02C8 3E 02         [ 7]  700 	ld	a,#0x02
   02CA 91            [ 4]  701 	sub	a, c
   02CB 30 04         [12]  702 	jr	NC,00107$
   02CD                     703 00106$:
                            704 ;src/main.c:186: return 1;
   02CD 2E 01         [ 7]  705 	ld	l,#0x01
   02CF 18 02         [12]  706 	jr	00110$
   02D1                     707 00107$:
                            708 ;src/main.c:188: return 0;
   02D1 2E 00         [ 7]  709 	ld	l,#0x00
   02D3                     710 00110$:
   02D3 DD F9         [10]  711 	ld	sp, ix
   02D5 DD E1         [14]  712 	pop	ix
   02D7 C9            [10]  713 	ret
                            714 ;src/main.c:191: void dibujarEnemigo(TEnemy *enemy) {
                            715 ;	---------------------------------
                            716 ; Function dibujarEnemigo
                            717 ; ---------------------------------
   02D8                     718 _dibujarEnemigo::
   02D8 DD E5         [15]  719 	push	ix
   02DA DD 21 00 00   [14]  720 	ld	ix,#0
   02DE DD 39         [15]  721 	add	ix,sp
                            722 ;src/main.c:192: u8* pvmem = cpct_getScreenPtr(CPCT_VMEM_START, enemy->x, enemy->y);
   02E0 DD 4E 04      [19]  723 	ld	c,4 (ix)
   02E3 DD 46 05      [19]  724 	ld	b,5 (ix)
   02E6 69            [ 4]  725 	ld	l, c
   02E7 60            [ 4]  726 	ld	h, b
   02E8 23            [ 6]  727 	inc	hl
   02E9 56            [ 7]  728 	ld	d,(hl)
   02EA 0A            [ 7]  729 	ld	a,(bc)
   02EB C5            [11]  730 	push	bc
   02EC D5            [11]  731 	push	de
   02ED 33            [ 6]  732 	inc	sp
   02EE F5            [11]  733 	push	af
   02EF 33            [ 6]  734 	inc	sp
   02F0 21 00 C0      [10]  735 	ld	hl,#0xC000
   02F3 E5            [11]  736 	push	hl
   02F4 CDr00r00      [17]  737 	call	_cpct_getScreenPtr
   02F7 EB            [ 4]  738 	ex	de,hl
                            739 ;src/main.c:193: cpct_drawSpriteMaskedAlignedTable (enemy->sprite, pvmem, G_ENEMY_W, G_ENEMY_H, g_tablatrans);
   02F8 E1            [10]  740 	pop	hl
   02F9 01 04 00      [10]  741 	ld	bc, #0x0004
   02FC 09            [11]  742 	add	hl, bc
   02FD 4E            [ 7]  743 	ld	c,(hl)
   02FE 23            [ 6]  744 	inc	hl
   02FF 46            [ 7]  745 	ld	b,(hl)
   0300 21r00r01      [10]  746 	ld	hl,#_g_tablatrans
   0303 E5            [11]  747 	push	hl
   0304 21 04 16      [10]  748 	ld	hl,#0x1604
   0307 E5            [11]  749 	push	hl
   0308 D5            [11]  750 	push	de
   0309 C5            [11]  751 	push	bc
   030A CDr00r00      [17]  752 	call	_cpct_drawSpriteMaskedAlignedTable
   030D DD E1         [14]  753 	pop	ix
   030F C9            [10]  754 	ret
                            755 ;src/main.c:196: void dibujarExplosion(TEnemy *enemy) {
                            756 ;	---------------------------------
                            757 ; Function dibujarExplosion
                            758 ; ---------------------------------
   0310                     759 _dibujarExplosion::
   0310 DD E5         [15]  760 	push	ix
   0312 DD 21 00 00   [14]  761 	ld	ix,#0
   0316 DD 39         [15]  762 	add	ix,sp
                            763 ;src/main.c:197: u8* pvmem = cpct_getScreenPtr(CPCT_VMEM_START, enemy->x, enemy->y);
   0318 DD 4E 04      [19]  764 	ld	c,4 (ix)
   031B DD 46 05      [19]  765 	ld	b,5 (ix)
   031E 69            [ 4]  766 	ld	l, c
   031F 60            [ 4]  767 	ld	h, b
   0320 23            [ 6]  768 	inc	hl
   0321 56            [ 7]  769 	ld	d,(hl)
   0322 0A            [ 7]  770 	ld	a,(bc)
   0323 47            [ 4]  771 	ld	b,a
   0324 D5            [11]  772 	push	de
   0325 33            [ 6]  773 	inc	sp
   0326 C5            [11]  774 	push	bc
   0327 33            [ 6]  775 	inc	sp
   0328 21 00 C0      [10]  776 	ld	hl,#0xC000
   032B E5            [11]  777 	push	hl
   032C CDr00r00      [17]  778 	call	_cpct_getScreenPtr
   032F 4D            [ 4]  779 	ld	c,l
   0330 44            [ 4]  780 	ld	b,h
                            781 ;src/main.c:198: cpct_drawSpriteMaskedAlignedTable (g_explosion, pvmem, G_EXPLOSION_W, G_EXPLOSION_H, g_tablatrans);
   0331 11r00r01      [10]  782 	ld	de,#_g_tablatrans+0
   0334 D5            [11]  783 	push	de
   0335 21 04 16      [10]  784 	ld	hl,#0x1604
   0338 E5            [11]  785 	push	hl
   0339 C5            [11]  786 	push	bc
   033A 21r00r00      [10]  787 	ld	hl,#_g_explosion
   033D E5            [11]  788 	push	hl
   033E CDr00r00      [17]  789 	call	_cpct_drawSpriteMaskedAlignedTable
   0341 DD E1         [14]  790 	pop	ix
   0343 C9            [10]  791 	ret
                            792 ;src/main.c:201: void borrarExplosion() {
                            793 ;	---------------------------------
                            794 ; Function borrarExplosion
                            795 ; ---------------------------------
   0344                     796 _borrarExplosion::
   0344 DD E5         [15]  797 	push	ix
   0346 DD 21 00 00   [14]  798 	ld	ix,#0
   034A DD 39         [15]  799 	add	ix,sp
   034C F5            [11]  800 	push	af
   034D 3B            [ 6]  801 	dec	sp
                            802 ;src/main.c:204: u8 w = 4 + (enemy->px & 1);
   034E 21r02r00      [10]  803 	ld	hl, #_enemy + 2
   0351 4E            [ 7]  804 	ld	c,(hl)
   0352 79            [ 4]  805 	ld	a,c
   0353 E6 01         [ 7]  806 	and	a, #0x01
   0355 47            [ 4]  807 	ld	b,a
   0356 04            [ 4]  808 	inc	b
   0357 04            [ 4]  809 	inc	b
   0358 04            [ 4]  810 	inc	b
   0359 04            [ 4]  811 	inc	b
                            812 ;src/main.c:207: u8 h = 7 + (enemy->py & 2 ? 1 : 0);
   035A 21r03r00      [10]  813 	ld	hl, #_enemy + 3
   035D 5E            [ 7]  814 	ld	e,(hl)
   035E CB 4B         [ 8]  815 	bit	1, e
   0360 28 04         [12]  816 	jr	Z,00103$
   0362 3E 01         [ 7]  817 	ld	a,#0x01
   0364 18 02         [12]  818 	jr	00104$
   0366                     819 00103$:
   0366 3E 00         [ 7]  820 	ld	a,#0x00
   0368                     821 00104$:
   0368 C6 07         [ 7]  822 	add	a, #0x07
   036A DD 77 FD      [19]  823 	ld	-3 (ix),a
                            824 ;src/main.c:209: cpct_etm_drawTileBox2x4 (enemy->px / 2, (enemy->py - ORIGEN_MAPA_Y)/4, w, h, g_map1_W, p, mapa);
   036D FD 2Ar00r00   [20]  825 	ld	iy,(_mapa)
   0371 16 00         [ 7]  826 	ld	d,#0x00
   0373 7B            [ 4]  827 	ld	a,e
   0374 C6 E8         [ 7]  828 	add	a,#0xE8
   0376 DD 77 FE      [19]  829 	ld	-2 (ix),a
   0379 7A            [ 4]  830 	ld	a,d
   037A CE FF         [ 7]  831 	adc	a,#0xFF
   037C DD 77 FF      [19]  832 	ld	-1 (ix),a
   037F DD 6E FE      [19]  833 	ld	l,-2 (ix)
   0382 DD 66 FF      [19]  834 	ld	h,-1 (ix)
   0385 DD CB FF 7E   [20]  835 	bit	7, -1 (ix)
   0389 28 04         [12]  836 	jr	Z,00105$
   038B 21 EB FF      [10]  837 	ld	hl,#0xFFEB
   038E 19            [11]  838 	add	hl,de
   038F                     839 00105$:
   038F CB 2C         [ 8]  840 	sra	h
   0391 CB 1D         [ 8]  841 	rr	l
   0393 CB 2C         [ 8]  842 	sra	h
   0395 CB 1D         [ 8]  843 	rr	l
   0397 55            [ 4]  844 	ld	d,l
   0398 CB 39         [ 8]  845 	srl	c
   039A FD E5         [15]  846 	push	iy
   039C 21 F0 C0      [10]  847 	ld	hl,#0xC0F0
   039F E5            [11]  848 	push	hl
   03A0 3E 28         [ 7]  849 	ld	a,#0x28
   03A2 F5            [11]  850 	push	af
   03A3 33            [ 6]  851 	inc	sp
   03A4 DD 7E FD      [19]  852 	ld	a,-3 (ix)
   03A7 F5            [11]  853 	push	af
   03A8 33            [ 6]  854 	inc	sp
   03A9 C5            [11]  855 	push	bc
   03AA 33            [ 6]  856 	inc	sp
   03AB D5            [11]  857 	push	de
   03AC 33            [ 6]  858 	inc	sp
   03AD 79            [ 4]  859 	ld	a,c
   03AE F5            [11]  860 	push	af
   03AF 33            [ 6]  861 	inc	sp
   03B0 CDr00r00      [17]  862 	call	_cpct_etm_drawTileBox2x4
   03B3 DD F9         [10]  863 	ld	sp, ix
   03B5 DD E1         [14]  864 	pop	ix
   03B7 C9            [10]  865 	ret
                            866 ;src/main.c:213: void borrarEnemigo(TEnemy *enemy) {
                            867 ;	---------------------------------
                            868 ; Function borrarEnemigo
                            869 ; ---------------------------------
   03B8                     870 _borrarEnemigo::
   03B8 DD E5         [15]  871 	push	ix
   03BA DD 21 00 00   [14]  872 	ld	ix,#0
   03BE DD 39         [15]  873 	add	ix,sp
   03C0 21 FA FF      [10]  874 	ld	hl,#-6
   03C3 39            [11]  875 	add	hl,sp
   03C4 F9            [ 6]  876 	ld	sp,hl
                            877 ;src/main.c:217: u8 w = 4 + (enemy->px & 1);
   03C5 DD 4E 04      [19]  878 	ld	c,4 (ix)
   03C8 DD 46 05      [19]  879 	ld	b,5 (ix)
   03CB 69            [ 4]  880 	ld	l, c
   03CC 60            [ 4]  881 	ld	h, b
   03CD 23            [ 6]  882 	inc	hl
   03CE 23            [ 6]  883 	inc	hl
   03CF 5E            [ 7]  884 	ld	e,(hl)
   03D0 7B            [ 4]  885 	ld	a,e
   03D1 E6 01         [ 7]  886 	and	a, #0x01
   03D3 C6 04         [ 7]  887 	add	a, #0x04
   03D5 DD 77 FB      [19]  888 	ld	-5 (ix),a
                            889 ;src/main.c:220: u8 h = 7 + (enemy->py & 2 ? 1 : 0);
   03D8 69            [ 4]  890 	ld	l, c
   03D9 60            [ 4]  891 	ld	h, b
   03DA 23            [ 6]  892 	inc	hl
   03DB 23            [ 6]  893 	inc	hl
   03DC 23            [ 6]  894 	inc	hl
   03DD 56            [ 7]  895 	ld	d,(hl)
   03DE CB 4A         [ 8]  896 	bit	1, d
   03E0 28 04         [12]  897 	jr	Z,00103$
   03E2 3E 01         [ 7]  898 	ld	a,#0x01
   03E4 18 02         [12]  899 	jr	00104$
   03E6                     900 00103$:
   03E6 3E 00         [ 7]  901 	ld	a,#0x00
   03E8                     902 00104$:
   03E8 C6 07         [ 7]  903 	add	a, #0x07
   03EA DD 77 FA      [19]  904 	ld	-6 (ix),a
                            905 ;src/main.c:222: cpct_etm_drawTileBox2x4 (enemy->px / 2, (enemy->py - ORIGEN_MAPA_Y)/4, w, h, g_map1_W, p, mapa);
   03ED FD 2Ar00r00   [20]  906 	ld	iy,(_mapa)
   03F1 DD 72 FE      [19]  907 	ld	-2 (ix),d
   03F4 DD 36 FF 00   [19]  908 	ld	-1 (ix),#0x00
   03F8 DD 7E FE      [19]  909 	ld	a,-2 (ix)
   03FB C6 E8         [ 7]  910 	add	a,#0xE8
   03FD DD 77 FC      [19]  911 	ld	-4 (ix),a
   0400 DD 7E FF      [19]  912 	ld	a,-1 (ix)
   0403 CE FF         [ 7]  913 	adc	a,#0xFF
   0405 DD 77 FD      [19]  914 	ld	-3 (ix),a
   0408 DD 56 FC      [19]  915 	ld	d,-4 (ix)
   040B DD 6E FD      [19]  916 	ld	l,-3 (ix)
   040E DD CB FD 7E   [20]  917 	bit	7, -3 (ix)
   0412 28 0C         [12]  918 	jr	Z,00105$
   0414 DD 7E FE      [19]  919 	ld	a,-2 (ix)
   0417 C6 EB         [ 7]  920 	add	a, #0xEB
   0419 57            [ 4]  921 	ld	d,a
   041A DD 7E FF      [19]  922 	ld	a,-1 (ix)
   041D CE FF         [ 7]  923 	adc	a, #0xFF
   041F 6F            [ 4]  924 	ld	l,a
   0420                     925 00105$:
   0420 CB 2D         [ 8]  926 	sra	l
   0422 CB 1A         [ 8]  927 	rr	d
   0424 CB 2D         [ 8]  928 	sra	l
   0426 CB 1A         [ 8]  929 	rr	d
   0428 CB 3B         [ 8]  930 	srl	e
   042A C5            [11]  931 	push	bc
   042B FD E5         [15]  932 	push	iy
   042D 21 F0 C0      [10]  933 	ld	hl,#0xC0F0
   0430 E5            [11]  934 	push	hl
   0431 3E 28         [ 7]  935 	ld	a,#0x28
   0433 F5            [11]  936 	push	af
   0434 33            [ 6]  937 	inc	sp
   0435 DD 66 FA      [19]  938 	ld	h,-6 (ix)
   0438 DD 6E FB      [19]  939 	ld	l,-5 (ix)
   043B E5            [11]  940 	push	hl
   043C D5            [11]  941 	push	de
   043D CDr00r00      [17]  942 	call	_cpct_etm_drawTileBox2x4
   0440 C1            [10]  943 	pop	bc
                            944 ;src/main.c:224: enemy->mover = NO;
   0441 21 06 00      [10]  945 	ld	hl,#0x0006
   0444 09            [11]  946 	add	hl,bc
   0445 36 00         [10]  947 	ld	(hl),#0x00
   0447 DD F9         [10]  948 	ld	sp, ix
   0449 DD E1         [14]  949 	pop	ix
   044B C9            [10]  950 	ret
                            951 ;src/main.c:227: void redibujarEnemigo(TEnemy *enemy) {
                            952 ;	---------------------------------
                            953 ; Function redibujarEnemigo
                            954 ; ---------------------------------
   044C                     955 _redibujarEnemigo::
   044C DD E5         [15]  956 	push	ix
   044E DD 21 00 00   [14]  957 	ld	ix,#0
   0452 DD 39         [15]  958 	add	ix,sp
                            959 ;src/main.c:228: borrarEnemigo(enemy);
   0454 DD 6E 04      [19]  960 	ld	l,4 (ix)
   0457 DD 66 05      [19]  961 	ld	h,5 (ix)
   045A E5            [11]  962 	push	hl
   045B CDrB8r03      [17]  963 	call	_borrarEnemigo
   045E F1            [10]  964 	pop	af
                            965 ;src/main.c:229: enemy->px = enemy->x;
   045F DD 4E 04      [19]  966 	ld	c,4 (ix)
   0462 DD 46 05      [19]  967 	ld	b,5 (ix)
   0465 59            [ 4]  968 	ld	e, c
   0466 50            [ 4]  969 	ld	d, b
   0467 13            [ 6]  970 	inc	de
   0468 13            [ 6]  971 	inc	de
   0469 0A            [ 7]  972 	ld	a,(bc)
   046A 12            [ 7]  973 	ld	(de),a
                            974 ;src/main.c:230: enemy->py = enemy->y;
   046B 59            [ 4]  975 	ld	e, c
   046C 50            [ 4]  976 	ld	d, b
   046D 13            [ 6]  977 	inc	de
   046E 13            [ 6]  978 	inc	de
   046F 13            [ 6]  979 	inc	de
   0470 69            [ 4]  980 	ld	l, c
   0471 60            [ 4]  981 	ld	h, b
   0472 23            [ 6]  982 	inc	hl
   0473 7E            [ 7]  983 	ld	a,(hl)
   0474 12            [ 7]  984 	ld	(de),a
                            985 ;src/main.c:231: dibujarEnemigo(enemy);
   0475 C5            [11]  986 	push	bc
   0476 CDrD8r02      [17]  987 	call	_dibujarEnemigo
   0479 F1            [10]  988 	pop	af
   047A DD E1         [14]  989 	pop	ix
   047C C9            [10]  990 	ret
                            991 ;src/main.c:234: u8 checkEnemyCollision(u8 direction, TEnemy *enemy){
                            992 ;	---------------------------------
                            993 ; Function checkEnemyCollision
                            994 ; ---------------------------------
   047D                     995 _checkEnemyCollision::
   047D DD E5         [15]  996 	push	ix
   047F DD 21 00 00   [14]  997 	ld	ix,#0
   0483 DD 39         [15]  998 	add	ix,sp
   0485 21 F7 FF      [10]  999 	ld	hl,#-9
   0488 39            [11] 1000 	add	hl,sp
   0489 F9            [ 6] 1001 	ld	sp,hl
                           1002 ;src/main.c:236: u8 colisiona = 1;
   048A DD 36 F7 01   [19] 1003 	ld	-9 (ix),#0x01
                           1004 ;src/main.c:238: switch (direction) {
   048E 3E 03         [ 7] 1005 	ld	a,#0x03
   0490 DD 96 04      [19] 1006 	sub	a, 4 (ix)
   0493 DAr70r08      [10] 1007 	jp	C,00165$
                           1008 ;src/main.c:240: if( *getTilePtr(mapa, enemy->x + G_ENEMY_W + 1, enemy->y) <= 2
   0496 DD 4E 05      [19] 1009 	ld	c,5 (ix)
   0499 DD 46 06      [19] 1010 	ld	b,6 (ix)
   049C 0A            [ 7] 1011 	ld	a,(bc)
   049D 5F            [ 4] 1012 	ld	e,a
   049E 21 01 00      [10] 1013 	ld	hl,#0x0001
   04A1 09            [11] 1014 	add	hl,bc
   04A2 DD 75 F8      [19] 1015 	ld	-8 (ix),l
   04A5 DD 74 F9      [19] 1016 	ld	-7 (ix),h
   04A8 DD 6E F8      [19] 1017 	ld	l,-8 (ix)
   04AB DD 66 F9      [19] 1018 	ld	h,-7 (ix)
   04AE 56            [ 7] 1019 	ld	d,(hl)
                           1020 ;src/main.c:253: enemy->muerto = SI;
   04AF 21 08 00      [10] 1021 	ld	hl,#0x0008
   04B2 09            [11] 1022 	add	hl,bc
   04B3 DD 75 FA      [19] 1023 	ld	-6 (ix),l
   04B6 DD 74 FB      [19] 1024 	ld	-5 (ix),h
                           1025 ;src/main.c:260: enemy->mira = M_izquierda;
   04B9 21 07 00      [10] 1026 	ld	hl,#0x0007
   04BC 09            [11] 1027 	add	hl,bc
   04BD DD 75 FC      [19] 1028 	ld	-4 (ix),l
   04C0 DD 74 FD      [19] 1029 	ld	-3 (ix),h
                           1030 ;src/main.c:238: switch (direction) {
   04C3 D5            [11] 1031 	push	de
   04C4 DD 5E 04      [19] 1032 	ld	e,4 (ix)
   04C7 16 00         [ 7] 1033 	ld	d,#0x00
   04C9 21rD1r04      [10] 1034 	ld	hl,#00268$
   04CC 19            [11] 1035 	add	hl,de
   04CD 19            [11] 1036 	add	hl,de
   04CE 19            [11] 1037 	add	hl,de
   04CF D1            [10] 1038 	pop	de
   04D0 E9            [ 4] 1039 	jp	(hl)
   04D1                    1040 00268$:
   04D1 C3rDDr04      [10] 1041 	jp	00101$
   04D4 C3rC5r05      [10] 1042 	jp	00117$
   04D7 C3rA9r06      [10] 1043 	jp	00133$
   04DA C3r87r07      [10] 1044 	jp	00149$
                           1045 ;src/main.c:239: case 0:
   04DD                    1046 00101$:
                           1047 ;src/main.c:240: if( *getTilePtr(mapa, enemy->x + G_ENEMY_W + 1, enemy->y) <= 2
   04DD 7B            [ 4] 1048 	ld	a,e
   04DE C6 05         [ 7] 1049 	add	a, #0x05
   04E0 C5            [11] 1050 	push	bc
   04E1 D5            [11] 1051 	push	de
   04E2 33            [ 6] 1052 	inc	sp
   04E3 F5            [11] 1053 	push	af
   04E4 33            [ 6] 1054 	inc	sp
   04E5 2Ar00r00      [16] 1055 	ld	hl,(_mapa)
   04E8 E5            [11] 1056 	push	hl
   04E9 CDr00r00      [17] 1057 	call	_getTilePtr
   04EC F1            [10] 1058 	pop	af
   04ED F1            [10] 1059 	pop	af
   04EE C1            [10] 1060 	pop	bc
   04EF 5E            [ 7] 1061 	ld	e,(hl)
   04F0 3E 02         [ 7] 1062 	ld	a,#0x02
   04F2 93            [ 4] 1063 	sub	a, e
   04F3 DArBAr05      [10] 1064 	jp	C,00113$
                           1065 ;src/main.c:241: && *getTilePtr(mapa, enemy->x + G_ENEMY_W + 1, enemy->y + G_ENEMY_H/2) <= 2
   04F6 DD 6E F8      [19] 1066 	ld	l,-8 (ix)
   04F9 DD 66 F9      [19] 1067 	ld	h,-7 (ix)
   04FC 7E            [ 7] 1068 	ld	a,(hl)
   04FD C6 0B         [ 7] 1069 	add	a, #0x0B
   04FF 57            [ 4] 1070 	ld	d,a
   0500 0A            [ 7] 1071 	ld	a,(bc)
   0501 C6 05         [ 7] 1072 	add	a, #0x05
   0503 C5            [11] 1073 	push	bc
   0504 D5            [11] 1074 	push	de
   0505 33            [ 6] 1075 	inc	sp
   0506 F5            [11] 1076 	push	af
   0507 33            [ 6] 1077 	inc	sp
   0508 2Ar00r00      [16] 1078 	ld	hl,(_mapa)
   050B E5            [11] 1079 	push	hl
   050C CDr00r00      [17] 1080 	call	_getTilePtr
   050F F1            [10] 1081 	pop	af
   0510 F1            [10] 1082 	pop	af
   0511 C1            [10] 1083 	pop	bc
   0512 5E            [ 7] 1084 	ld	e,(hl)
   0513 3E 02         [ 7] 1085 	ld	a,#0x02
   0515 93            [ 4] 1086 	sub	a, e
   0516 DArBAr05      [10] 1087 	jp	C,00113$
                           1088 ;src/main.c:242: && *getTilePtr(mapa, enemy->x + G_ENEMY_W + 1, enemy->y + G_ENEMY_H) <= 2)
   0519 DD 6E F8      [19] 1089 	ld	l,-8 (ix)
   051C DD 66 F9      [19] 1090 	ld	h,-7 (ix)
   051F 7E            [ 7] 1091 	ld	a,(hl)
   0520 C6 16         [ 7] 1092 	add	a, #0x16
   0522 57            [ 4] 1093 	ld	d,a
   0523 0A            [ 7] 1094 	ld	a,(bc)
   0524 C6 05         [ 7] 1095 	add	a, #0x05
   0526 C5            [11] 1096 	push	bc
   0527 D5            [11] 1097 	push	de
   0528 33            [ 6] 1098 	inc	sp
   0529 F5            [11] 1099 	push	af
   052A 33            [ 6] 1100 	inc	sp
   052B 2Ar00r00      [16] 1101 	ld	hl,(_mapa)
   052E E5            [11] 1102 	push	hl
   052F CDr00r00      [17] 1103 	call	_getTilePtr
   0532 F1            [10] 1104 	pop	af
   0533 F1            [10] 1105 	pop	af
   0534 C1            [10] 1106 	pop	bc
   0535 5E            [ 7] 1107 	ld	e,(hl)
   0536 3E 02         [ 7] 1108 	ld	a,#0x02
   0538 93            [ 4] 1109 	sub	a, e
   0539 DArBAr05      [10] 1110 	jp	C,00113$
                           1111 ;src/main.c:244: if( (cu.y + G_KNIFEX_0_H) < enemy->y || cu.y  > (enemy->y + G_ENEMY_H) ){
   053C 21r21r05      [10] 1112 	ld	hl, #_cu + 1
   053F 5E            [ 7] 1113 	ld	e,(hl)
   0540 16 00         [ 7] 1114 	ld	d,#0x00
   0542 21 04 00      [10] 1115 	ld	hl,#0x0004
   0545 19            [11] 1116 	add	hl,de
   0546 DD 75 FE      [19] 1117 	ld	-2 (ix),l
   0549 DD 74 FF      [19] 1118 	ld	-1 (ix),h
   054C DD 6E F8      [19] 1119 	ld	l,-8 (ix)
   054F DD 66 F9      [19] 1120 	ld	h,-7 (ix)
   0552 6E            [ 7] 1121 	ld	l,(hl)
   0553 26 00         [ 7] 1122 	ld	h,#0x00
   0555 DD 7E FE      [19] 1123 	ld	a,-2 (ix)
   0558 95            [ 4] 1124 	sub	a, l
   0559 DD 7E FF      [19] 1125 	ld	a,-1 (ix)
   055C 9C            [ 4] 1126 	sbc	a, h
   055D E2r62r05      [10] 1127 	jp	PO, 00269$
   0560 EE 80         [ 7] 1128 	xor	a, #0x80
   0562                    1129 00269$:
   0562 FAr77r05      [10] 1130 	jp	M,00108$
   0565 D5            [11] 1131 	push	de
   0566 11 16 00      [10] 1132 	ld	de,#0x0016
   0569 19            [11] 1133 	add	hl, de
   056A D1            [10] 1134 	pop	de
   056B 7D            [ 4] 1135 	ld	a,l
   056C 93            [ 4] 1136 	sub	a, e
   056D 7C            [ 4] 1137 	ld	a,h
   056E 9A            [ 4] 1138 	sbc	a, d
   056F E2r74r05      [10] 1139 	jp	PO, 00270$
   0572 EE 80         [ 7] 1140 	xor	a, #0x80
   0574                    1141 00270$:
   0574 F2r7Er05      [10] 1142 	jp	P,00109$
   0577                    1143 00108$:
                           1144 ;src/main.c:245: colisiona = 0;
   0577 DD 36 F7 00   [19] 1145 	ld	-9 (ix),#0x00
   057B C3r70r08      [10] 1146 	jp	00165$
   057E                    1147 00109$:
                           1148 ;src/main.c:248: if(cu.x > enemy->x){ //si el cu esta abajo
   057E 21r20r05      [10] 1149 	ld	hl, #_cu + 0
   0581 5E            [ 7] 1150 	ld	e,(hl)
   0582 0A            [ 7] 1151 	ld	a,(bc)
   0583 4F            [ 4] 1152 	ld	c,a
   0584 93            [ 4] 1153 	sub	a, e
   0585 30 2C         [12] 1154 	jr	NC,00106$
                           1155 ;src/main.c:249: if( cu.x - (enemy->x + G_ENEMY_W) > 1){ // si hay espacio entre el enemigo y el cu
   0587 6B            [ 4] 1156 	ld	l,e
   0588 26 00         [ 7] 1157 	ld	h,#0x00
   058A 06 00         [ 7] 1158 	ld	b,#0x00
   058C 03            [ 6] 1159 	inc	bc
   058D 03            [ 6] 1160 	inc	bc
   058E 03            [ 6] 1161 	inc	bc
   058F 03            [ 6] 1162 	inc	bc
   0590 BF            [ 4] 1163 	cp	a, a
   0591 ED 42         [15] 1164 	sbc	hl, bc
   0593 3E 01         [ 7] 1165 	ld	a,#0x01
   0595 BD            [ 4] 1166 	cp	a, l
   0596 3E 00         [ 7] 1167 	ld	a,#0x00
   0598 9C            [ 4] 1168 	sbc	a, h
   0599 E2r9Er05      [10] 1169 	jp	PO, 00271$
   059C EE 80         [ 7] 1170 	xor	a, #0x80
   059E                    1171 00271$:
   059E F2rA8r05      [10] 1172 	jp	P,00103$
                           1173 ;src/main.c:250: colisiona = 0;
   05A1 DD 36 F7 00   [19] 1174 	ld	-9 (ix),#0x00
   05A5 C3r70r08      [10] 1175 	jp	00165$
   05A8                    1176 00103$:
                           1177 ;src/main.c:253: enemy->muerto = SI;
   05A8 DD 6E FA      [19] 1178 	ld	l,-6 (ix)
   05AB DD 66 FB      [19] 1179 	ld	h,-5 (ix)
   05AE 36 01         [10] 1180 	ld	(hl),#0x01
   05B0 C3r70r08      [10] 1181 	jp	00165$
   05B3                    1182 00106$:
                           1183 ;src/main.c:256: colisiona = 0;
   05B3 DD 36 F7 00   [19] 1184 	ld	-9 (ix),#0x00
   05B7 C3r70r08      [10] 1185 	jp	00165$
   05BA                    1186 00113$:
                           1187 ;src/main.c:260: enemy->mira = M_izquierda;
   05BA DD 6E FC      [19] 1188 	ld	l,-4 (ix)
   05BD DD 66 FD      [19] 1189 	ld	h,-3 (ix)
   05C0 36 01         [10] 1190 	ld	(hl),#0x01
                           1191 ;src/main.c:262: break;
   05C2 C3r70r08      [10] 1192 	jp	00165$
                           1193 ;src/main.c:263: case 1:
   05C5                    1194 00117$:
                           1195 ;src/main.c:264: if( *getTilePtr(mapa, enemy->x - 1, enemy->y) <= 2
   05C5 1D            [ 4] 1196 	dec	e
   05C6 C5            [11] 1197 	push	bc
   05C7 D5            [11] 1198 	push	de
   05C8 2Ar00r00      [16] 1199 	ld	hl,(_mapa)
   05CB E5            [11] 1200 	push	hl
   05CC CDr00r00      [17] 1201 	call	_getTilePtr
   05CF F1            [10] 1202 	pop	af
   05D0 F1            [10] 1203 	pop	af
   05D1 C1            [10] 1204 	pop	bc
   05D2 5E            [ 7] 1205 	ld	e,(hl)
   05D3 3E 02         [ 7] 1206 	ld	a,#0x02
   05D5 93            [ 4] 1207 	sub	a, e
   05D6 DAr9Er06      [10] 1208 	jp	C,00129$
                           1209 ;src/main.c:265: && *getTilePtr(mapa, enemy->x - 1, enemy->y + G_ENEMY_H/2) <= 2
   05D9 DD 6E F8      [19] 1210 	ld	l,-8 (ix)
   05DC DD 66 F9      [19] 1211 	ld	h,-7 (ix)
   05DF 7E            [ 7] 1212 	ld	a,(hl)
   05E0 C6 0B         [ 7] 1213 	add	a, #0x0B
   05E2 57            [ 4] 1214 	ld	d,a
   05E3 0A            [ 7] 1215 	ld	a,(bc)
   05E4 C6 FF         [ 7] 1216 	add	a,#0xFF
   05E6 C5            [11] 1217 	push	bc
   05E7 D5            [11] 1218 	push	de
   05E8 33            [ 6] 1219 	inc	sp
   05E9 F5            [11] 1220 	push	af
   05EA 33            [ 6] 1221 	inc	sp
   05EB 2Ar00r00      [16] 1222 	ld	hl,(_mapa)
   05EE E5            [11] 1223 	push	hl
   05EF CDr00r00      [17] 1224 	call	_getTilePtr
   05F2 F1            [10] 1225 	pop	af
   05F3 F1            [10] 1226 	pop	af
   05F4 C1            [10] 1227 	pop	bc
   05F5 5E            [ 7] 1228 	ld	e,(hl)
   05F6 3E 02         [ 7] 1229 	ld	a,#0x02
   05F8 93            [ 4] 1230 	sub	a, e
   05F9 DAr9Er06      [10] 1231 	jp	C,00129$
                           1232 ;src/main.c:266: && *getTilePtr(mapa, enemy->x - 1, enemy->y + G_ENEMY_H) <= 2)
   05FC DD 6E F8      [19] 1233 	ld	l,-8 (ix)
   05FF DD 66 F9      [19] 1234 	ld	h,-7 (ix)
   0602 7E            [ 7] 1235 	ld	a,(hl)
   0603 C6 16         [ 7] 1236 	add	a, #0x16
   0605 57            [ 4] 1237 	ld	d,a
   0606 0A            [ 7] 1238 	ld	a,(bc)
   0607 C6 FF         [ 7] 1239 	add	a,#0xFF
   0609 C5            [11] 1240 	push	bc
   060A D5            [11] 1241 	push	de
   060B 33            [ 6] 1242 	inc	sp
   060C F5            [11] 1243 	push	af
   060D 33            [ 6] 1244 	inc	sp
   060E 2Ar00r00      [16] 1245 	ld	hl,(_mapa)
   0611 E5            [11] 1246 	push	hl
   0612 CDr00r00      [17] 1247 	call	_getTilePtr
   0615 F1            [10] 1248 	pop	af
   0616 F1            [10] 1249 	pop	af
   0617 C1            [10] 1250 	pop	bc
   0618 5E            [ 7] 1251 	ld	e,(hl)
   0619 3E 02         [ 7] 1252 	ld	a,#0x02
   061B 93            [ 4] 1253 	sub	a, e
   061C DAr9Er06      [10] 1254 	jp	C,00129$
                           1255 ;src/main.c:268: if( (cu.y + G_KNIFEX_0_H) < enemy->y || cu.y  > (enemy->y + G_ENEMY_H) ){
   061F 21r21r05      [10] 1256 	ld	hl, #_cu + 1
   0622 5E            [ 7] 1257 	ld	e,(hl)
   0623 16 00         [ 7] 1258 	ld	d,#0x00
   0625 21 04 00      [10] 1259 	ld	hl,#0x0004
   0628 19            [11] 1260 	add	hl,de
   0629 DD 75 FE      [19] 1261 	ld	-2 (ix),l
   062C DD 74 FF      [19] 1262 	ld	-1 (ix),h
   062F DD 6E F8      [19] 1263 	ld	l,-8 (ix)
   0632 DD 66 F9      [19] 1264 	ld	h,-7 (ix)
   0635 6E            [ 7] 1265 	ld	l,(hl)
   0636 26 00         [ 7] 1266 	ld	h,#0x00
   0638 DD 7E FE      [19] 1267 	ld	a,-2 (ix)
   063B 95            [ 4] 1268 	sub	a, l
   063C DD 7E FF      [19] 1269 	ld	a,-1 (ix)
   063F 9C            [ 4] 1270 	sbc	a, h
   0640 E2r45r06      [10] 1271 	jp	PO, 00272$
   0643 EE 80         [ 7] 1272 	xor	a, #0x80
   0645                    1273 00272$:
   0645 FAr5Ar06      [10] 1274 	jp	M,00124$
   0648 D5            [11] 1275 	push	de
   0649 11 16 00      [10] 1276 	ld	de,#0x0016
   064C 19            [11] 1277 	add	hl, de
   064D D1            [10] 1278 	pop	de
   064E 7D            [ 4] 1279 	ld	a,l
   064F 93            [ 4] 1280 	sub	a, e
   0650 7C            [ 4] 1281 	ld	a,h
   0651 9A            [ 4] 1282 	sbc	a, d
   0652 E2r57r06      [10] 1283 	jp	PO, 00273$
   0655 EE 80         [ 7] 1284 	xor	a, #0x80
   0657                    1285 00273$:
   0657 F2r61r06      [10] 1286 	jp	P,00125$
   065A                    1287 00124$:
                           1288 ;src/main.c:269: colisiona = 0;
   065A DD 36 F7 00   [19] 1289 	ld	-9 (ix),#0x00
   065E C3r70r08      [10] 1290 	jp	00165$
   0661                    1291 00125$:
                           1292 ;src/main.c:272: if(enemy->x > cu.x){ //si el cu esta abajo
   0661 0A            [ 7] 1293 	ld	a,(bc)
   0662 5F            [ 4] 1294 	ld	e,a
   0663 21r20r05      [10] 1295 	ld	hl, #_cu + 0
   0666 4E            [ 7] 1296 	ld	c,(hl)
   0667 79            [ 4] 1297 	ld	a,c
   0668 93            [ 4] 1298 	sub	a, e
   0669 30 2C         [12] 1299 	jr	NC,00122$
                           1300 ;src/main.c:273: if( enemy->x - (cu.x + G_KNIFEX_0_W) > 1){ // si hay espacio entre el enemigo y el cu
   066B 6B            [ 4] 1301 	ld	l,e
   066C 26 00         [ 7] 1302 	ld	h,#0x00
   066E 06 00         [ 7] 1303 	ld	b,#0x00
   0670 03            [ 6] 1304 	inc	bc
   0671 03            [ 6] 1305 	inc	bc
   0672 03            [ 6] 1306 	inc	bc
   0673 03            [ 6] 1307 	inc	bc
   0674 BF            [ 4] 1308 	cp	a, a
   0675 ED 42         [15] 1309 	sbc	hl, bc
   0677 3E 01         [ 7] 1310 	ld	a,#0x01
   0679 BD            [ 4] 1311 	cp	a, l
   067A 3E 00         [ 7] 1312 	ld	a,#0x00
   067C 9C            [ 4] 1313 	sbc	a, h
   067D E2r82r06      [10] 1314 	jp	PO, 00274$
   0680 EE 80         [ 7] 1315 	xor	a, #0x80
   0682                    1316 00274$:
   0682 F2r8Cr06      [10] 1317 	jp	P,00119$
                           1318 ;src/main.c:274: colisiona = 0;
   0685 DD 36 F7 00   [19] 1319 	ld	-9 (ix),#0x00
   0689 C3r70r08      [10] 1320 	jp	00165$
   068C                    1321 00119$:
                           1322 ;src/main.c:277: enemy->muerto = SI;
   068C DD 6E FA      [19] 1323 	ld	l,-6 (ix)
   068F DD 66 FB      [19] 1324 	ld	h,-5 (ix)
   0692 36 01         [10] 1325 	ld	(hl),#0x01
   0694 C3r70r08      [10] 1326 	jp	00165$
   0697                    1327 00122$:
                           1328 ;src/main.c:280: colisiona = 0;
   0697 DD 36 F7 00   [19] 1329 	ld	-9 (ix),#0x00
   069B C3r70r08      [10] 1330 	jp	00165$
   069E                    1331 00129$:
                           1332 ;src/main.c:284: enemy->mira = M_derecha;
   069E DD 6E FC      [19] 1333 	ld	l,-4 (ix)
   06A1 DD 66 FD      [19] 1334 	ld	h,-3 (ix)
   06A4 36 00         [10] 1335 	ld	(hl),#0x00
                           1336 ;src/main.c:286: break;
   06A6 C3r70r08      [10] 1337 	jp	00165$
                           1338 ;src/main.c:287: case 2:
   06A9                    1339 00133$:
                           1340 ;src/main.c:288: if( *getTilePtr(mapa, enemy->x, enemy->y - 2) <= 2
   06A9 15            [ 4] 1341 	dec	d
   06AA 15            [ 4] 1342 	dec	d
   06AB C5            [11] 1343 	push	bc
   06AC D5            [11] 1344 	push	de
   06AD 2Ar00r00      [16] 1345 	ld	hl,(_mapa)
   06B0 E5            [11] 1346 	push	hl
   06B1 CDr00r00      [17] 1347 	call	_getTilePtr
   06B4 F1            [10] 1348 	pop	af
   06B5 F1            [10] 1349 	pop	af
   06B6 C1            [10] 1350 	pop	bc
   06B7 5E            [ 7] 1351 	ld	e,(hl)
   06B8 3E 02         [ 7] 1352 	ld	a,#0x02
   06BA 93            [ 4] 1353 	sub	a, e
   06BB DAr7Fr07      [10] 1354 	jp	C,00145$
                           1355 ;src/main.c:289: && *getTilePtr(mapa, enemy->x + G_ENEMY_W / 2, enemy->y - 2) <= 2
   06BE DD 6E F8      [19] 1356 	ld	l,-8 (ix)
   06C1 DD 66 F9      [19] 1357 	ld	h,-7 (ix)
   06C4 56            [ 7] 1358 	ld	d,(hl)
   06C5 15            [ 4] 1359 	dec	d
   06C6 15            [ 4] 1360 	dec	d
   06C7 0A            [ 7] 1361 	ld	a,(bc)
   06C8 C6 02         [ 7] 1362 	add	a, #0x02
   06CA C5            [11] 1363 	push	bc
   06CB D5            [11] 1364 	push	de
   06CC 33            [ 6] 1365 	inc	sp
   06CD F5            [11] 1366 	push	af
   06CE 33            [ 6] 1367 	inc	sp
   06CF 2Ar00r00      [16] 1368 	ld	hl,(_mapa)
   06D2 E5            [11] 1369 	push	hl
   06D3 CDr00r00      [17] 1370 	call	_getTilePtr
   06D6 F1            [10] 1371 	pop	af
   06D7 F1            [10] 1372 	pop	af
   06D8 C1            [10] 1373 	pop	bc
   06D9 5E            [ 7] 1374 	ld	e,(hl)
   06DA 3E 02         [ 7] 1375 	ld	a,#0x02
   06DC 93            [ 4] 1376 	sub	a, e
   06DD DAr7Fr07      [10] 1377 	jp	C,00145$
                           1378 ;src/main.c:290: && *getTilePtr(mapa, enemy->x + G_ENEMY_W, enemy->y - 2) <= 2)
   06E0 DD 6E F8      [19] 1379 	ld	l,-8 (ix)
   06E3 DD 66 F9      [19] 1380 	ld	h,-7 (ix)
   06E6 56            [ 7] 1381 	ld	d,(hl)
   06E7 15            [ 4] 1382 	dec	d
   06E8 15            [ 4] 1383 	dec	d
   06E9 0A            [ 7] 1384 	ld	a,(bc)
   06EA C6 04         [ 7] 1385 	add	a, #0x04
   06EC C5            [11] 1386 	push	bc
   06ED D5            [11] 1387 	push	de
   06EE 33            [ 6] 1388 	inc	sp
   06EF F5            [11] 1389 	push	af
   06F0 33            [ 6] 1390 	inc	sp
   06F1 2Ar00r00      [16] 1391 	ld	hl,(_mapa)
   06F4 E5            [11] 1392 	push	hl
   06F5 CDr00r00      [17] 1393 	call	_getTilePtr
   06F8 F1            [10] 1394 	pop	af
   06F9 F1            [10] 1395 	pop	af
   06FA C1            [10] 1396 	pop	bc
   06FB 5E            [ 7] 1397 	ld	e,(hl)
   06FC 3E 02         [ 7] 1398 	ld	a,#0x02
   06FE 93            [ 4] 1399 	sub	a, e
   06FF DAr7Fr07      [10] 1400 	jp	C,00145$
                           1401 ;src/main.c:292: if((cu.x + G_KNIFEY_0_W) < enemy->x || cu.x  > (enemy->x + G_ENEMY_W)){
   0702 21r20r05      [10] 1402 	ld	hl, #_cu + 0
   0705 5E            [ 7] 1403 	ld	e,(hl)
   0706 16 00         [ 7] 1404 	ld	d,#0x00
   0708 21 02 00      [10] 1405 	ld	hl,#0x0002
   070B 19            [11] 1406 	add	hl,de
   070C DD 75 FE      [19] 1407 	ld	-2 (ix),l
   070F DD 74 FF      [19] 1408 	ld	-1 (ix),h
   0712 0A            [ 7] 1409 	ld	a,(bc)
   0713 6F            [ 4] 1410 	ld	l,a
   0714 26 00         [ 7] 1411 	ld	h,#0x00
   0716 DD 7E FE      [19] 1412 	ld	a,-2 (ix)
   0719 95            [ 4] 1413 	sub	a, l
   071A DD 7E FF      [19] 1414 	ld	a,-1 (ix)
   071D 9C            [ 4] 1415 	sbc	a, h
   071E E2r23r07      [10] 1416 	jp	PO, 00275$
   0721 EE 80         [ 7] 1417 	xor	a, #0x80
   0723                    1418 00275$:
   0723 FAr36r07      [10] 1419 	jp	M,00140$
   0726 23            [ 6] 1420 	inc	hl
   0727 23            [ 6] 1421 	inc	hl
   0728 23            [ 6] 1422 	inc	hl
   0729 23            [ 6] 1423 	inc	hl
   072A 7D            [ 4] 1424 	ld	a,l
   072B 93            [ 4] 1425 	sub	a, e
   072C 7C            [ 4] 1426 	ld	a,h
   072D 9A            [ 4] 1427 	sbc	a, d
   072E E2r33r07      [10] 1428 	jp	PO, 00276$
   0731 EE 80         [ 7] 1429 	xor	a, #0x80
   0733                    1430 00276$:
   0733 F2r3Cr07      [10] 1431 	jp	P,00141$
   0736                    1432 00140$:
                           1433 ;src/main.c:294: colisiona = 0;
   0736 DD 36 F7 00   [19] 1434 	ld	-9 (ix),#0x00
   073A 18 4B         [12] 1435 	jr	00149$
   073C                    1436 00141$:
                           1437 ;src/main.c:297: if(enemy->y>cu.y){
   073C DD 6E F8      [19] 1438 	ld	l,-8 (ix)
   073F DD 66 F9      [19] 1439 	ld	h,-7 (ix)
   0742 5E            [ 7] 1440 	ld	e,(hl)
   0743 21r21r05      [10] 1441 	ld	hl, #(_cu + 0x0001) + 0
   0746 6E            [ 7] 1442 	ld	l,(hl)
   0747 7D            [ 4] 1443 	ld	a,l
   0748 93            [ 4] 1444 	sub	a, e
   0749 30 2E         [12] 1445 	jr	NC,00138$
                           1446 ;src/main.c:298: if(enemy->y - (cu.y + G_KNIFEY_0_H)  > 2){
   074B 16 00         [ 7] 1447 	ld	d,#0x00
   074D 26 00         [ 7] 1448 	ld	h,#0x00
   074F D5            [11] 1449 	push	de
   0750 11 08 00      [10] 1450 	ld	de,#0x0008
   0753 19            [11] 1451 	add	hl, de
   0754 D1            [10] 1452 	pop	de
   0755 7B            [ 4] 1453 	ld	a,e
   0756 95            [ 4] 1454 	sub	a, l
   0757 5F            [ 4] 1455 	ld	e,a
   0758 7A            [ 4] 1456 	ld	a,d
   0759 9C            [ 4] 1457 	sbc	a, h
   075A 57            [ 4] 1458 	ld	d,a
   075B 3E 02         [ 7] 1459 	ld	a,#0x02
   075D BB            [ 4] 1460 	cp	a, e
   075E 3E 00         [ 7] 1461 	ld	a,#0x00
   0760 9A            [ 4] 1462 	sbc	a, d
   0761 E2r66r07      [10] 1463 	jp	PO, 00277$
   0764 EE 80         [ 7] 1464 	xor	a, #0x80
   0766                    1465 00277$:
   0766 F2r6Fr07      [10] 1466 	jp	P,00135$
                           1467 ;src/main.c:299: colisiona = 0;
   0769 DD 36 F7 00   [19] 1468 	ld	-9 (ix),#0x00
   076D 18 18         [12] 1469 	jr	00149$
   076F                    1470 00135$:
                           1471 ;src/main.c:302: enemy->muerto = SI;
   076F DD 6E FA      [19] 1472 	ld	l,-6 (ix)
   0772 DD 66 FB      [19] 1473 	ld	h,-5 (ix)
   0775 36 01         [10] 1474 	ld	(hl),#0x01
   0777 18 0E         [12] 1475 	jr	00149$
   0779                    1476 00138$:
                           1477 ;src/main.c:306: colisiona = 0;
   0779 DD 36 F7 00   [19] 1478 	ld	-9 (ix),#0x00
   077D 18 08         [12] 1479 	jr	00149$
   077F                    1480 00145$:
                           1481 ;src/main.c:312: enemy->mira = M_abajo;
   077F DD 6E FC      [19] 1482 	ld	l,-4 (ix)
   0782 DD 66 FD      [19] 1483 	ld	h,-3 (ix)
   0785 36 03         [10] 1484 	ld	(hl),#0x03
                           1485 ;src/main.c:315: case 3:
   0787                    1486 00149$:
                           1487 ;src/main.c:318: if( *getTilePtr(mapa, enemy->x, enemy->y + G_ENEMY_H + 2) <= 2
   0787 DD 6E F8      [19] 1488 	ld	l,-8 (ix)
   078A DD 66 F9      [19] 1489 	ld	h,-7 (ix)
   078D 7E            [ 7] 1490 	ld	a,(hl)
   078E C6 18         [ 7] 1491 	add	a, #0x18
   0790 57            [ 4] 1492 	ld	d,a
   0791 0A            [ 7] 1493 	ld	a,(bc)
   0792 C5            [11] 1494 	push	bc
   0793 D5            [11] 1495 	push	de
   0794 33            [ 6] 1496 	inc	sp
   0795 F5            [11] 1497 	push	af
   0796 33            [ 6] 1498 	inc	sp
   0797 2Ar00r00      [16] 1499 	ld	hl,(_mapa)
   079A E5            [11] 1500 	push	hl
   079B CDr00r00      [17] 1501 	call	_getTilePtr
   079E F1            [10] 1502 	pop	af
   079F F1            [10] 1503 	pop	af
   07A0 C1            [10] 1504 	pop	bc
   07A1 5E            [ 7] 1505 	ld	e,(hl)
   07A2 3E 02         [ 7] 1506 	ld	a,#0x02
   07A4 93            [ 4] 1507 	sub	a, e
   07A5 DAr68r08      [10] 1508 	jp	C,00161$
                           1509 ;src/main.c:319: && *getTilePtr(mapa, enemy->x + G_ENEMY_W / 2, enemy->y + G_ENEMY_H + 2) <= 2
   07A8 DD 6E F8      [19] 1510 	ld	l,-8 (ix)
   07AB DD 66 F9      [19] 1511 	ld	h,-7 (ix)
   07AE 7E            [ 7] 1512 	ld	a,(hl)
   07AF C6 18         [ 7] 1513 	add	a, #0x18
   07B1 57            [ 4] 1514 	ld	d,a
   07B2 0A            [ 7] 1515 	ld	a,(bc)
   07B3 C6 02         [ 7] 1516 	add	a, #0x02
   07B5 C5            [11] 1517 	push	bc
   07B6 D5            [11] 1518 	push	de
   07B7 33            [ 6] 1519 	inc	sp
   07B8 F5            [11] 1520 	push	af
   07B9 33            [ 6] 1521 	inc	sp
   07BA 2Ar00r00      [16] 1522 	ld	hl,(_mapa)
   07BD E5            [11] 1523 	push	hl
   07BE CDr00r00      [17] 1524 	call	_getTilePtr
   07C1 F1            [10] 1525 	pop	af
   07C2 F1            [10] 1526 	pop	af
   07C3 C1            [10] 1527 	pop	bc
   07C4 5E            [ 7] 1528 	ld	e,(hl)
   07C5 3E 02         [ 7] 1529 	ld	a,#0x02
   07C7 93            [ 4] 1530 	sub	a, e
   07C8 DAr68r08      [10] 1531 	jp	C,00161$
                           1532 ;src/main.c:320: && *getTilePtr(mapa, enemy->x + G_ENEMY_W, enemy->y + G_ENEMY_H + 2) <= 2)
   07CB DD 6E F8      [19] 1533 	ld	l,-8 (ix)
   07CE DD 66 F9      [19] 1534 	ld	h,-7 (ix)
   07D1 7E            [ 7] 1535 	ld	a,(hl)
   07D2 C6 18         [ 7] 1536 	add	a, #0x18
   07D4 57            [ 4] 1537 	ld	d,a
   07D5 0A            [ 7] 1538 	ld	a,(bc)
   07D6 C6 04         [ 7] 1539 	add	a, #0x04
   07D8 C5            [11] 1540 	push	bc
   07D9 D5            [11] 1541 	push	de
   07DA 33            [ 6] 1542 	inc	sp
   07DB F5            [11] 1543 	push	af
   07DC 33            [ 6] 1544 	inc	sp
   07DD 2Ar00r00      [16] 1545 	ld	hl,(_mapa)
   07E0 E5            [11] 1546 	push	hl
   07E1 CDr00r00      [17] 1547 	call	_getTilePtr
   07E4 F1            [10] 1548 	pop	af
   07E5 F1            [10] 1549 	pop	af
   07E6 C1            [10] 1550 	pop	bc
   07E7 5E            [ 7] 1551 	ld	e,(hl)
   07E8 3E 02         [ 7] 1552 	ld	a,#0x02
   07EA 93            [ 4] 1553 	sub	a, e
   07EB 38 7B         [12] 1554 	jr	C,00161$
                           1555 ;src/main.c:322: if( (cu.x + G_KNIFEY_0_W) < enemy->x || cu.x  > (enemy->x + G_ENEMY_W) ){
   07ED 21r20r05      [10] 1556 	ld	hl, #_cu + 0
   07F0 5E            [ 7] 1557 	ld	e,(hl)
   07F1 16 00         [ 7] 1558 	ld	d,#0x00
   07F3 21 02 00      [10] 1559 	ld	hl,#0x0002
   07F6 19            [11] 1560 	add	hl,de
   07F7 DD 75 FE      [19] 1561 	ld	-2 (ix),l
   07FA DD 74 FF      [19] 1562 	ld	-1 (ix),h
   07FD 0A            [ 7] 1563 	ld	a,(bc)
   07FE 4F            [ 4] 1564 	ld	c,a
   07FF 06 00         [ 7] 1565 	ld	b,#0x00
   0801 DD 7E FE      [19] 1566 	ld	a,-2 (ix)
   0804 91            [ 4] 1567 	sub	a, c
   0805 DD 7E FF      [19] 1568 	ld	a,-1 (ix)
   0808 98            [ 4] 1569 	sbc	a, b
   0809 E2r0Er08      [10] 1570 	jp	PO, 00278$
   080C EE 80         [ 7] 1571 	xor	a, #0x80
   080E                    1572 00278$:
   080E FAr21r08      [10] 1573 	jp	M,00156$
   0811 03            [ 6] 1574 	inc	bc
   0812 03            [ 6] 1575 	inc	bc
   0813 03            [ 6] 1576 	inc	bc
   0814 03            [ 6] 1577 	inc	bc
   0815 79            [ 4] 1578 	ld	a,c
   0816 93            [ 4] 1579 	sub	a, e
   0817 78            [ 4] 1580 	ld	a,b
   0818 9A            [ 4] 1581 	sbc	a, d
   0819 E2r1Er08      [10] 1582 	jp	PO, 00279$
   081C EE 80         [ 7] 1583 	xor	a, #0x80
   081E                    1584 00279$:
   081E F2r27r08      [10] 1585 	jp	P,00157$
   0821                    1586 00156$:
                           1587 ;src/main.c:323: colisiona = 0;
   0821 DD 36 F7 00   [19] 1588 	ld	-9 (ix),#0x00
   0825 18 49         [12] 1589 	jr	00165$
   0827                    1590 00157$:
                           1591 ;src/main.c:326: if(cu.y > enemy->y){ //si el cu esta abajo
   0827 21r21r05      [10] 1592 	ld	hl, #(_cu + 0x0001) + 0
   082A 4E            [ 7] 1593 	ld	c,(hl)
   082B DD 6E F8      [19] 1594 	ld	l,-8 (ix)
   082E DD 66 F9      [19] 1595 	ld	h,-7 (ix)
   0831 5E            [ 7] 1596 	ld	e,(hl)
   0832 7B            [ 4] 1597 	ld	a,e
   0833 91            [ 4] 1598 	sub	a, c
   0834 30 2C         [12] 1599 	jr	NC,00154$
                           1600 ;src/main.c:327: if( cu.y - (enemy->y + G_ENEMY_H)  > 2){ // si hay espacio entre el enemigo y el cu
   0836 06 00         [ 7] 1601 	ld	b,#0x00
   0838 16 00         [ 7] 1602 	ld	d,#0x00
   083A 21 16 00      [10] 1603 	ld	hl,#0x0016
   083D 19            [11] 1604 	add	hl,de
   083E 79            [ 4] 1605 	ld	a,c
   083F 95            [ 4] 1606 	sub	a, l
   0840 4F            [ 4] 1607 	ld	c,a
   0841 78            [ 4] 1608 	ld	a,b
   0842 9C            [ 4] 1609 	sbc	a, h
   0843 47            [ 4] 1610 	ld	b,a
   0844 3E 02         [ 7] 1611 	ld	a,#0x02
   0846 B9            [ 4] 1612 	cp	a, c
   0847 3E 00         [ 7] 1613 	ld	a,#0x00
   0849 98            [ 4] 1614 	sbc	a, b
   084A E2r4Fr08      [10] 1615 	jp	PO, 00280$
   084D EE 80         [ 7] 1616 	xor	a, #0x80
   084F                    1617 00280$:
   084F F2r58r08      [10] 1618 	jp	P,00151$
                           1619 ;src/main.c:328: colisiona = 0;
   0852 DD 36 F7 00   [19] 1620 	ld	-9 (ix),#0x00
   0856 18 18         [12] 1621 	jr	00165$
   0858                    1622 00151$:
                           1623 ;src/main.c:331: enemy->muerto = SI;
   0858 DD 6E FA      [19] 1624 	ld	l,-6 (ix)
   085B DD 66 FB      [19] 1625 	ld	h,-5 (ix)
   085E 36 01         [10] 1626 	ld	(hl),#0x01
   0860 18 0E         [12] 1627 	jr	00165$
   0862                    1628 00154$:
                           1629 ;src/main.c:335: colisiona = 0;
   0862 DD 36 F7 00   [19] 1630 	ld	-9 (ix),#0x00
   0866 18 08         [12] 1631 	jr	00165$
   0868                    1632 00161$:
                           1633 ;src/main.c:339: enemy->mira = M_arriba;
   0868 DD 6E FC      [19] 1634 	ld	l,-4 (ix)
   086B DD 66 FD      [19] 1635 	ld	h,-3 (ix)
   086E 36 02         [10] 1636 	ld	(hl),#0x02
                           1637 ;src/main.c:342: }
   0870                    1638 00165$:
                           1639 ;src/main.c:343: return colisiona;
   0870 DD 6E F7      [19] 1640 	ld	l,-9 (ix)
   0873 DD F9         [10] 1641 	ld	sp, ix
   0875 DD E1         [14] 1642 	pop	ix
   0877 C9            [10] 1643 	ret
                           1644 ;src/main.c:346: void moverEnemigoArriba(TEnemy *enemy){
                           1645 ;	---------------------------------
                           1646 ; Function moverEnemigoArriba
                           1647 ; ---------------------------------
   0878                    1648 _moverEnemigoArriba::
   0878 DD E5         [15] 1649 	push	ix
   087A DD 21 00 00   [14] 1650 	ld	ix,#0
   087E DD 39         [15] 1651 	add	ix,sp
                           1652 ;src/main.c:347: enemy->y--;
   0880 DD 4E 04      [19] 1653 	ld	c,4 (ix)
   0883 DD 46 05      [19] 1654 	ld	b,5 (ix)
   0886 69            [ 4] 1655 	ld	l, c
   0887 60            [ 4] 1656 	ld	h, b
   0888 23            [ 6] 1657 	inc	hl
   0889 5E            [ 7] 1658 	ld	e,(hl)
   088A 1D            [ 4] 1659 	dec	e
   088B 73            [ 7] 1660 	ld	(hl),e
                           1661 ;src/main.c:348: enemy->y--;
   088C 1D            [ 4] 1662 	dec	e
   088D 73            [ 7] 1663 	ld	(hl),e
                           1664 ;src/main.c:349: enemy->mover = SI;
   088E 21 06 00      [10] 1665 	ld	hl,#0x0006
   0891 09            [11] 1666 	add	hl,bc
   0892 36 01         [10] 1667 	ld	(hl),#0x01
   0894 DD E1         [14] 1668 	pop	ix
   0896 C9            [10] 1669 	ret
                           1670 ;src/main.c:352: void moverEnemigoAbajo(TEnemy *enemy){
                           1671 ;	---------------------------------
                           1672 ; Function moverEnemigoAbajo
                           1673 ; ---------------------------------
   0897                    1674 _moverEnemigoAbajo::
   0897 DD E5         [15] 1675 	push	ix
   0899 DD 21 00 00   [14] 1676 	ld	ix,#0
   089D DD 39         [15] 1677 	add	ix,sp
                           1678 ;src/main.c:353: enemy->y++;
   089F DD 4E 04      [19] 1679 	ld	c,4 (ix)
   08A2 DD 46 05      [19] 1680 	ld	b,5 (ix)
   08A5 59            [ 4] 1681 	ld	e, c
   08A6 50            [ 4] 1682 	ld	d, b
   08A7 13            [ 6] 1683 	inc	de
   08A8 1A            [ 7] 1684 	ld	a,(de)
   08A9 3C            [ 4] 1685 	inc	a
   08AA 12            [ 7] 1686 	ld	(de),a
                           1687 ;src/main.c:354: enemy->y++;
   08AB 3C            [ 4] 1688 	inc	a
   08AC 12            [ 7] 1689 	ld	(de),a
                           1690 ;src/main.c:355: enemy->mover = SI;
   08AD 21 06 00      [10] 1691 	ld	hl,#0x0006
   08B0 09            [11] 1692 	add	hl,bc
   08B1 36 01         [10] 1693 	ld	(hl),#0x01
   08B3 DD E1         [14] 1694 	pop	ix
   08B5 C9            [10] 1695 	ret
                           1696 ;src/main.c:358: void moverEnemigoDerecha(TEnemy *enemy){
                           1697 ;	---------------------------------
                           1698 ; Function moverEnemigoDerecha
                           1699 ; ---------------------------------
   08B6                    1700 _moverEnemigoDerecha::
                           1701 ;src/main.c:359: enemy->x++;
   08B6 D1            [10] 1702 	pop	de
   08B7 C1            [10] 1703 	pop	bc
   08B8 C5            [11] 1704 	push	bc
   08B9 D5            [11] 1705 	push	de
   08BA 0A            [ 7] 1706 	ld	a,(bc)
   08BB 3C            [ 4] 1707 	inc	a
   08BC 02            [ 7] 1708 	ld	(bc),a
                           1709 ;src/main.c:360: enemy->x++;
   08BD 3C            [ 4] 1710 	inc	a
   08BE 02            [ 7] 1711 	ld	(bc),a
                           1712 ;src/main.c:361: enemy->mover = SI;
   08BF 21 06 00      [10] 1713 	ld	hl,#0x0006
   08C2 09            [11] 1714 	add	hl,bc
   08C3 36 01         [10] 1715 	ld	(hl),#0x01
   08C5 C9            [10] 1716 	ret
                           1717 ;src/main.c:364: void moverEnemigoIzquierda(TEnemy *enemy){
                           1718 ;	---------------------------------
                           1719 ; Function moverEnemigoIzquierda
                           1720 ; ---------------------------------
   08C6                    1721 _moverEnemigoIzquierda::
                           1722 ;src/main.c:365: enemy->x--;
   08C6 D1            [10] 1723 	pop	de
   08C7 C1            [10] 1724 	pop	bc
   08C8 C5            [11] 1725 	push	bc
   08C9 D5            [11] 1726 	push	de
   08CA 0A            [ 7] 1727 	ld	a,(bc)
   08CB C6 FF         [ 7] 1728 	add	a,#0xFF
   08CD 02            [ 7] 1729 	ld	(bc),a
                           1730 ;src/main.c:366: enemy->x--;
   08CE C6 FF         [ 7] 1731 	add	a,#0xFF
   08D0 02            [ 7] 1732 	ld	(bc),a
                           1733 ;src/main.c:367: enemy->mover = SI;
   08D1 21 06 00      [10] 1734 	ld	hl,#0x0006
   08D4 09            [11] 1735 	add	hl,bc
   08D5 36 01         [10] 1736 	ld	(hl),#0x01
   08D7 C9            [10] 1737 	ret
                           1738 ;src/main.c:370: void moverEnemigo(TEnemy *enemy){
                           1739 ;	---------------------------------
                           1740 ; Function moverEnemigo
                           1741 ; ---------------------------------
   08D8                    1742 _moverEnemigo::
                           1743 ;src/main.c:371: if(!enemy->muerto){
   08D8 D1            [10] 1744 	pop	de
   08D9 C1            [10] 1745 	pop	bc
   08DA C5            [11] 1746 	push	bc
   08DB D5            [11] 1747 	push	de
   08DC C5            [11] 1748 	push	bc
   08DD FD E1         [14] 1749 	pop	iy
   08DF FD 7E 08      [19] 1750 	ld	a,8 (iy)
   08E2 B7            [ 4] 1751 	or	a, a
   08E3 C0            [11] 1752 	ret	NZ
                           1753 ;src/main.c:372: if(!checkEnemyCollision(enemy->mira, enemy)){
   08E4 21 07 00      [10] 1754 	ld	hl,#0x0007
   08E7 09            [11] 1755 	add	hl,bc
   08E8 56            [ 7] 1756 	ld	d,(hl)
   08E9 E5            [11] 1757 	push	hl
   08EA C5            [11] 1758 	push	bc
   08EB C5            [11] 1759 	push	bc
   08EC D5            [11] 1760 	push	de
   08ED 33            [ 6] 1761 	inc	sp
   08EE CDr7Dr04      [17] 1762 	call	_checkEnemyCollision
   08F1 F1            [10] 1763 	pop	af
   08F2 33            [ 6] 1764 	inc	sp
   08F3 7D            [ 4] 1765 	ld	a,l
   08F4 C1            [10] 1766 	pop	bc
   08F5 E1            [10] 1767 	pop	hl
   08F6 B7            [ 4] 1768 	or	a, a
   08F7 C0            [11] 1769 	ret	NZ
                           1770 ;src/main.c:374: switch (enemy->mira) {
   08F8 5E            [ 7] 1771 	ld	e,(hl)
   08F9 3E 03         [ 7] 1772 	ld	a,#0x03
   08FB 93            [ 4] 1773 	sub	a, e
   08FC D8            [11] 1774 	ret	C
   08FD 16 00         [ 7] 1775 	ld	d,#0x00
   08FF 21r05r09      [10] 1776 	ld	hl,#00124$
   0902 19            [11] 1777 	add	hl,de
   0903 19            [11] 1778 	add	hl,de
                           1779 ;src/main.c:376: case 0:
   0904 E9            [ 4] 1780 	jp	(hl)
   0905                    1781 00124$:
   0905 18 06         [12] 1782 	jr	00101$
   0907 18 0A         [12] 1783 	jr	00102$
   0909 18 0E         [12] 1784 	jr	00103$
   090B 18 12         [12] 1785 	jr	00104$
   090D                    1786 00101$:
                           1787 ;src/main.c:377: moverEnemigoDerecha(enemy);
   090D C5            [11] 1788 	push	bc
   090E CDrB6r08      [17] 1789 	call	_moverEnemigoDerecha
   0911 F1            [10] 1790 	pop	af
                           1791 ;src/main.c:378: break;
   0912 C9            [10] 1792 	ret
                           1793 ;src/main.c:379: case 1:
   0913                    1794 00102$:
                           1795 ;src/main.c:380: moverEnemigoIzquierda(enemy);
   0913 C5            [11] 1796 	push	bc
   0914 CDrC6r08      [17] 1797 	call	_moverEnemigoIzquierda
   0917 F1            [10] 1798 	pop	af
                           1799 ;src/main.c:381: break;
   0918 C9            [10] 1800 	ret
                           1801 ;src/main.c:382: case 2:
   0919                    1802 00103$:
                           1803 ;src/main.c:383: moverEnemigoArriba(enemy);
   0919 C5            [11] 1804 	push	bc
   091A CDr78r08      [17] 1805 	call	_moverEnemigoArriba
   091D F1            [10] 1806 	pop	af
                           1807 ;src/main.c:384: break;
   091E C9            [10] 1808 	ret
                           1809 ;src/main.c:385: case 3:
   091F                    1810 00104$:
                           1811 ;src/main.c:386: moverEnemigoAbajo(enemy);
   091F C5            [11] 1812 	push	bc
   0920 CDr97r08      [17] 1813 	call	_moverEnemigoAbajo
   0923 F1            [10] 1814 	pop	af
                           1815 ;src/main.c:388: }
   0924 C9            [10] 1816 	ret
                           1817 ;src/main.c:393: void moverEnemigoPatrol(TEnemy *enemy){
                           1818 ;	---------------------------------
                           1819 ; Function moverEnemigoPatrol
                           1820 ; ---------------------------------
   0925                    1821 _moverEnemigoPatrol::
   0925 DD E5         [15] 1822 	push	ix
   0927 DD 21 00 00   [14] 1823 	ld	ix,#0
   092B DD 39         [15] 1824 	add	ix,sp
   092D 21 F3 FF      [10] 1825 	ld	hl,#-13
   0930 39            [11] 1826 	add	hl,sp
   0931 F9            [ 6] 1827 	ld	sp,hl
                           1828 ;src/main.c:394: if(!enemy->muerto){
   0932 DD 4E 04      [19] 1829 	ld	c,4 (ix)
   0935 DD 46 05      [19] 1830 	ld	b,5 (ix)
   0938 C5            [11] 1831 	push	bc
   0939 FD E1         [14] 1832 	pop	iy
   093B FD 7E 08      [19] 1833 	ld	a,8 (iy)
   093E B7            [ 4] 1834 	or	a, a
   093F C2r53r0A      [10] 1835 	jp	NZ,00112$
                           1836 ;src/main.c:396: if (!enemy->reversePatrol) {
   0942 21 0D 00      [10] 1837 	ld	hl,#0x000D
   0945 09            [11] 1838 	add	hl,bc
   0946 DD 75 F6      [19] 1839 	ld	-10 (ix),l
   0949 DD 74 F7      [19] 1840 	ld	-9 (ix),h
   094C DD 6E F6      [19] 1841 	ld	l,-10 (ix)
   094F DD 66 F7      [19] 1842 	ld	h,-9 (ix)
   0952 7E            [ 7] 1843 	ld	a,(hl)
   0953 DD 77 F5      [19] 1844 	ld	-11 (ix),a
                           1845 ;src/main.c:397: if(enemy->iter < enemy->longitud_camino - 8){
   0956 21 0F 00      [10] 1846 	ld	hl,#0x000F
   0959 09            [11] 1847 	add	hl,bc
   095A EB            [ 4] 1848 	ex	de,hl
                           1849 ;src/main.c:398: enemy->x = enemy->camino[enemy->iter];
   095B 21 19 00      [10] 1850 	ld	hl,#0x0019
   095E 09            [11] 1851 	add	hl,bc
   095F E3            [19] 1852 	ex	(sp), hl
                           1853 ;src/main.c:400: enemy->y = enemy->camino[enemy->iter];
   0960 21 01 00      [10] 1854 	ld	hl,#0x0001
   0963 09            [11] 1855 	add	hl,bc
   0964 DD 75 FE      [19] 1856 	ld	-2 (ix),l
   0967 DD 74 FF      [19] 1857 	ld	-1 (ix),h
                           1858 ;src/main.c:402: enemy->mover = SI;
   096A 21 06 00      [10] 1859 	ld	hl,#0x0006
   096D 09            [11] 1860 	add	hl,bc
   096E DD 75 FC      [19] 1861 	ld	-4 (ix),l
   0971 DD 74 FD      [19] 1862 	ld	-3 (ix),h
                           1863 ;src/main.c:405: enemy->lastIter = enemy->iter - 1;
   0974 21 10 00      [10] 1864 	ld	hl,#0x0010
   0977 09            [11] 1865 	add	hl,bc
   0978 DD 75 FA      [19] 1866 	ld	-6 (ix),l
   097B DD 74 FB      [19] 1867 	ld	-5 (ix),h
                           1868 ;src/main.c:396: if (!enemy->reversePatrol) {
   097E DD 7E F5      [19] 1869 	ld	a,-11 (ix)
   0981 B7            [ 4] 1870 	or	a, a
   0982 20 7C         [12] 1871 	jr	NZ,00108$
                           1872 ;src/main.c:397: if(enemy->iter < enemy->longitud_camino - 8){
   0984 1A            [ 7] 1873 	ld	a,(de)
   0985 DD 77 F5      [19] 1874 	ld	-11 (ix),a
   0988 69            [ 4] 1875 	ld	l, c
   0989 60            [ 4] 1876 	ld	h, b
   098A C5            [11] 1877 	push	bc
   098B 01 45 01      [10] 1878 	ld	bc, #0x0145
   098E 09            [11] 1879 	add	hl, bc
   098F C1            [10] 1880 	pop	bc
   0990 6E            [ 7] 1881 	ld	l,(hl)
   0991 26 00         [ 7] 1882 	ld	h,#0x00
   0993 7D            [ 4] 1883 	ld	a,l
   0994 C6 F8         [ 7] 1884 	add	a,#0xF8
   0996 DD 77 F8      [19] 1885 	ld	-8 (ix),a
   0999 7C            [ 4] 1886 	ld	a,h
   099A CE FF         [ 7] 1887 	adc	a,#0xFF
   099C DD 77 F9      [19] 1888 	ld	-7 (ix),a
   099F DD 7E F5      [19] 1889 	ld	a, -11 (ix)
   09A2 26 00         [ 7] 1890 	ld	h, #0x00
   09A4 DD 96 F8      [19] 1891 	sub	a, -8 (ix)
   09A7 7C            [ 4] 1892 	ld	a,h
   09A8 DD 9E F9      [19] 1893 	sbc	a, -7 (ix)
   09AB E2rB0r09      [10] 1894 	jp	PO, 00130$
   09AE EE 80         [ 7] 1895 	xor	a, #0x80
   09B0                    1896 00130$:
   09B0 F2rEBr09      [10] 1897 	jp	P,00102$
                           1898 ;src/main.c:398: enemy->x = enemy->camino[enemy->iter];
   09B3 DD 6E F5      [19] 1899 	ld	l,-11 (ix)
   09B6 26 00         [ 7] 1900 	ld	h,#0x00
   09B8 DD 7E F3      [19] 1901 	ld	a,-13 (ix)
   09BB 85            [ 4] 1902 	add	a, l
   09BC 6F            [ 4] 1903 	ld	l,a
   09BD DD 7E F4      [19] 1904 	ld	a,-12 (ix)
   09C0 8C            [ 4] 1905 	adc	a, h
   09C1 67            [ 4] 1906 	ld	h,a
   09C2 7E            [ 7] 1907 	ld	a,(hl)
   09C3 02            [ 7] 1908 	ld	(bc),a
                           1909 ;src/main.c:399: enemy->iter++;
   09C4 1A            [ 7] 1910 	ld	a,(de)
   09C5 4F            [ 4] 1911 	ld	c,a
   09C6 0C            [ 4] 1912 	inc	c
   09C7 79            [ 4] 1913 	ld	a,c
   09C8 12            [ 7] 1914 	ld	(de),a
                           1915 ;src/main.c:400: enemy->y = enemy->camino[enemy->iter];
   09C9 69            [ 4] 1916 	ld	l,c
   09CA 26 00         [ 7] 1917 	ld	h,#0x00
   09CC DD 7E F3      [19] 1918 	ld	a,-13 (ix)
   09CF 85            [ 4] 1919 	add	a, l
   09D0 6F            [ 4] 1920 	ld	l,a
   09D1 DD 7E F4      [19] 1921 	ld	a,-12 (ix)
   09D4 8C            [ 4] 1922 	adc	a, h
   09D5 67            [ 4] 1923 	ld	h,a
   09D6 46            [ 7] 1924 	ld	b,(hl)
   09D7 DD 6E FE      [19] 1925 	ld	l,-2 (ix)
   09DA DD 66 FF      [19] 1926 	ld	h,-1 (ix)
   09DD 70            [ 7] 1927 	ld	(hl),b
                           1928 ;src/main.c:401: enemy->iter++;
   09DE 0C            [ 4] 1929 	inc	c
   09DF 79            [ 4] 1930 	ld	a,c
   09E0 12            [ 7] 1931 	ld	(de),a
                           1932 ;src/main.c:402: enemy->mover = SI;
   09E1 DD 6E FC      [19] 1933 	ld	l,-4 (ix)
   09E4 DD 66 FD      [19] 1934 	ld	h,-3 (ix)
   09E7 36 01         [10] 1935 	ld	(hl),#0x01
   09E9 18 68         [12] 1936 	jr	00112$
   09EB                    1937 00102$:
                           1938 ;src/main.c:405: enemy->lastIter = enemy->iter - 1;
   09EB DD 4E F5      [19] 1939 	ld	c,-11 (ix)
   09EE 0D            [ 4] 1940 	dec	c
   09EF DD 6E FA      [19] 1941 	ld	l,-6 (ix)
   09F2 DD 66 FB      [19] 1942 	ld	h,-5 (ix)
   09F5 71            [ 7] 1943 	ld	(hl),c
                           1944 ;src/main.c:408: enemy->reversePatrol = 1;
   09F6 DD 6E F6      [19] 1945 	ld	l,-10 (ix)
   09F9 DD 66 F7      [19] 1946 	ld	h,-9 (ix)
   09FC 36 01         [10] 1947 	ld	(hl),#0x01
   09FE 18 53         [12] 1948 	jr	00112$
   0A00                    1949 00108$:
                           1950 ;src/main.c:411: if(enemy->lastIter > 1){
   0A00 DD 6E FA      [19] 1951 	ld	l,-6 (ix)
   0A03 DD 66 FB      [19] 1952 	ld	h,-5 (ix)
   0A06 6E            [ 7] 1953 	ld	l,(hl)
   0A07 3E 01         [ 7] 1954 	ld	a,#0x01
   0A09 95            [ 4] 1955 	sub	a, l
   0A0A 30 3D         [12] 1956 	jr	NC,00105$
                           1957 ;src/main.c:412: enemy->y = enemy->camino[enemy->lastIter];
   0A0C 26 00         [ 7] 1958 	ld	h,#0x00
   0A0E D1            [10] 1959 	pop	de
   0A0F D5            [11] 1960 	push	de
   0A10 19            [11] 1961 	add	hl,de
   0A11 5E            [ 7] 1962 	ld	e,(hl)
   0A12 DD 6E FE      [19] 1963 	ld	l,-2 (ix)
   0A15 DD 66 FF      [19] 1964 	ld	h,-1 (ix)
   0A18 73            [ 7] 1965 	ld	(hl),e
                           1966 ;src/main.c:413: enemy->lastIter--;
   0A19 DD 6E FA      [19] 1967 	ld	l,-6 (ix)
   0A1C DD 66 FB      [19] 1968 	ld	h,-5 (ix)
   0A1F 5E            [ 7] 1969 	ld	e,(hl)
   0A20 1D            [ 4] 1970 	dec	e
   0A21 DD 6E FA      [19] 1971 	ld	l,-6 (ix)
   0A24 DD 66 FB      [19] 1972 	ld	h,-5 (ix)
   0A27 73            [ 7] 1973 	ld	(hl),e
                           1974 ;src/main.c:414: enemy->x = enemy->camino[enemy->lastIter];
   0A28 6B            [ 4] 1975 	ld	l,e
   0A29 26 00         [ 7] 1976 	ld	h,#0x00
   0A2B DD 7E F3      [19] 1977 	ld	a,-13 (ix)
   0A2E 85            [ 4] 1978 	add	a, l
   0A2F 6F            [ 4] 1979 	ld	l,a
   0A30 DD 7E F4      [19] 1980 	ld	a,-12 (ix)
   0A33 8C            [ 4] 1981 	adc	a, h
   0A34 67            [ 4] 1982 	ld	h,a
   0A35 7E            [ 7] 1983 	ld	a,(hl)
   0A36 02            [ 7] 1984 	ld	(bc),a
                           1985 ;src/main.c:415: enemy->lastIter--;
   0A37 1D            [ 4] 1986 	dec	e
   0A38 DD 6E FA      [19] 1987 	ld	l,-6 (ix)
   0A3B DD 66 FB      [19] 1988 	ld	h,-5 (ix)
   0A3E 73            [ 7] 1989 	ld	(hl),e
                           1990 ;src/main.c:416: enemy->mover = SI;
   0A3F DD 6E FC      [19] 1991 	ld	l,-4 (ix)
   0A42 DD 66 FD      [19] 1992 	ld	h,-3 (ix)
   0A45 36 01         [10] 1993 	ld	(hl),#0x01
   0A47 18 0A         [12] 1994 	jr	00112$
   0A49                    1995 00105$:
                           1996 ;src/main.c:419: enemy->iter = 0;
   0A49 AF            [ 4] 1997 	xor	a, a
   0A4A 12            [ 7] 1998 	ld	(de),a
                           1999 ;src/main.c:421: enemy->reversePatrol = 0;
   0A4B DD 6E F6      [19] 2000 	ld	l,-10 (ix)
   0A4E DD 66 F7      [19] 2001 	ld	h,-9 (ix)
   0A51 36 00         [10] 2002 	ld	(hl),#0x00
   0A53                    2003 00112$:
   0A53 DD F9         [10] 2004 	ld	sp, ix
   0A55 DD E1         [14] 2005 	pop	ix
   0A57 C9            [10] 2006 	ret
                           2007 ;src/main.c:430: void lookFor(TEnemy* enemy){
                           2008 ;	---------------------------------
                           2009 ; Function lookFor
                           2010 ; ---------------------------------
   0A58                    2011 _lookFor::
   0A58 DD E5         [15] 2012 	push	ix
   0A5A DD 21 00 00   [14] 2013 	ld	ix,#0
   0A5E DD 39         [15] 2014 	add	ix,sp
   0A60 21 FA FF      [10] 2015 	ld	hl,#-6
   0A63 39            [11] 2016 	add	hl,sp
   0A64 F9            [ 6] 2017 	ld	sp,hl
                           2018 ;src/main.c:437: u8 difx = abs(enemy->x - prota.x);
   0A65 DD 4E 04      [19] 2019 	ld	c,4 (ix)
   0A68 DD 46 05      [19] 2020 	ld	b,5 (ix)
   0A6B 0A            [ 7] 2021 	ld	a,(bc)
   0A6C 5F            [ 4] 2022 	ld	e,a
   0A6D 16 00         [ 7] 2023 	ld	d,#0x00
   0A6F 21r18r05      [10] 2024 	ld	hl,#_prota+0
   0A72 6E            [ 7] 2025 	ld	l,(hl)
   0A73 26 00         [ 7] 2026 	ld	h,#0x00
   0A75 7B            [ 4] 2027 	ld	a,e
   0A76 95            [ 4] 2028 	sub	a, l
   0A77 5F            [ 4] 2029 	ld	e,a
   0A78 7A            [ 4] 2030 	ld	a,d
   0A79 9C            [ 4] 2031 	sbc	a, h
   0A7A 57            [ 4] 2032 	ld	d,a
   0A7B C5            [11] 2033 	push	bc
   0A7C D5            [11] 2034 	push	de
   0A7D CDr00r00      [17] 2035 	call	_abs
   0A80 F1            [10] 2036 	pop	af
   0A81 C1            [10] 2037 	pop	bc
   0A82 DD 75 FA      [19] 2038 	ld	-6 (ix),l
                           2039 ;src/main.c:438: u8 dify = abs(enemy->y - prota.y);
   0A85 59            [ 4] 2040 	ld	e, c
   0A86 50            [ 4] 2041 	ld	d, b
   0A87 13            [ 6] 2042 	inc	de
   0A88 1A            [ 7] 2043 	ld	a,(de)
   0A89 DD 77 FC      [19] 2044 	ld	-4 (ix),a
   0A8C DD 36 FD 00   [19] 2045 	ld	-3 (ix),#0x00
   0A90 21r19r05      [10] 2046 	ld	hl, #(_prota + 0x0001) + 0
   0A93 6E            [ 7] 2047 	ld	l,(hl)
   0A94 26 00         [ 7] 2048 	ld	h,#0x00
   0A96 DD 7E FC      [19] 2049 	ld	a,-4 (ix)
   0A99 95            [ 4] 2050 	sub	a, l
   0A9A 6F            [ 4] 2051 	ld	l,a
   0A9B DD 7E FD      [19] 2052 	ld	a,-3 (ix)
   0A9E 9C            [ 4] 2053 	sbc	a, h
   0A9F 67            [ 4] 2054 	ld	h,a
   0AA0 C5            [11] 2055 	push	bc
   0AA1 D5            [11] 2056 	push	de
   0AA2 E5            [11] 2057 	push	hl
   0AA3 CDr00r00      [17] 2058 	call	_abs
   0AA6 F1            [10] 2059 	pop	af
   0AA7 D1            [10] 2060 	pop	de
   0AA8 C1            [10] 2061 	pop	bc
                           2062 ;src/main.c:439: dist = difx + dify; // manhattan
   0AA9 DD 7E FA      [19] 2063 	ld	a,-6 (ix)
   0AAC 85            [ 4] 2064 	add	a, l
   0AAD DD 77 FB      [19] 2065 	ld	-5 (ix),a
                           2066 ;src/main.c:441: enemy->seen = NO;
   0AB0 21 12 00      [10] 2067 	ld	hl,#0x0012
   0AB3 09            [11] 2068 	add	hl,bc
   0AB4 DD 75 FC      [19] 2069 	ld	-4 (ix),l
   0AB7 DD 74 FD      [19] 2070 	ld	-3 (ix),h
   0ABA DD 6E FC      [19] 2071 	ld	l,-4 (ix)
   0ABD DD 66 FD      [19] 2072 	ld	h,-3 (ix)
   0AC0 36 00         [10] 2073 	ld	(hl),#0x00
                           2074 ;src/main.c:442: enemy->inRange = NO;
   0AC2 21 11 00      [10] 2075 	ld	hl,#0x0011
   0AC5 09            [11] 2076 	add	hl,bc
   0AC6 DD 75 FE      [19] 2077 	ld	-2 (ix),l
   0AC9 DD 74 FF      [19] 2078 	ld	-1 (ix),h
   0ACC DD 6E FE      [19] 2079 	ld	l,-2 (ix)
   0ACF DD 66 FF      [19] 2080 	ld	h,-1 (ix)
   0AD2 36 00         [10] 2081 	ld	(hl),#0x00
                           2082 ;src/main.c:444: if (dist <= 10) {// te detectan los sensores de proximidad
   0AD4 3E 0A         [ 7] 2083 	ld	a,#0x0A
   0AD6 DD 96 FB      [19] 2084 	sub	a, -5 (ix)
   0AD9 3E 00         [ 7] 2085 	ld	a,#0x00
   0ADB 17            [ 4] 2086 	rla
   0ADC CB 47         [ 8] 2087 	bit	0,a
   0ADE 20 12         [12] 2088 	jr	NZ,00116$
                           2089 ;src/main.c:445: enemy->seen = 1;
   0AE0 DD 6E FC      [19] 2090 	ld	l,-4 (ix)
   0AE3 DD 66 FD      [19] 2091 	ld	h,-3 (ix)
   0AE6 36 01         [10] 2092 	ld	(hl),#0x01
                           2093 ;src/main.c:446: enemy->inRange = 1;
   0AE8 DD 6E FE      [19] 2094 	ld	l,-2 (ix)
   0AEB DD 66 FF      [19] 2095 	ld	h,-1 (ix)
   0AEE 36 01         [10] 2096 	ld	(hl),#0x01
   0AF0 18 5B         [12] 2097 	jr	00118$
   0AF2                    2098 00116$:
                           2099 ;src/main.c:447: } else if(dist > 10){
   0AF2 CB 47         [ 8] 2100 	bit	0,a
   0AF4 28 57         [12] 2101 	jr	Z,00118$
                           2102 ;src/main.c:448: if(enemy->y > prota.y - 4 && enemy->y < prota.y + 4){
   0AF6 1A            [ 7] 2103 	ld	a,(de)
   0AF7 5F            [ 4] 2104 	ld	e,a
   0AF8 21r19r05      [10] 2105 	ld	hl, #(_prota + 0x0001) + 0
   0AFB 6E            [ 7] 2106 	ld	l,(hl)
   0AFC 26 00         [ 7] 2107 	ld	h,#0x00
   0AFE 7D            [ 4] 2108 	ld	a,l
   0AFF C6 FC         [ 7] 2109 	add	a,#0xFC
   0B01 DD 77 FE      [19] 2110 	ld	-2 (ix),a
   0B04 7C            [ 4] 2111 	ld	a,h
   0B05 CE FF         [ 7] 2112 	adc	a,#0xFF
   0B07 DD 77 FF      [19] 2113 	ld	-1 (ix),a
   0B0A 16 00         [ 7] 2114 	ld	d,#0x00
   0B0C DD 7E FE      [19] 2115 	ld	a,-2 (ix)
   0B0F 93            [ 4] 2116 	sub	a, e
   0B10 DD 7E FF      [19] 2117 	ld	a,-1 (ix)
   0B13 9A            [ 4] 2118 	sbc	a, d
   0B14 E2r19r0B      [10] 2119 	jp	PO, 00146$
   0B17 EE 80         [ 7] 2120 	xor	a, #0x80
   0B19                    2121 00146$:
   0B19 F2r4Dr0B      [10] 2122 	jp	P,00118$
   0B1C 23            [ 6] 2123 	inc	hl
   0B1D 23            [ 6] 2124 	inc	hl
   0B1E 23            [ 6] 2125 	inc	hl
   0B1F 23            [ 6] 2126 	inc	hl
   0B20 7B            [ 4] 2127 	ld	a,e
   0B21 95            [ 4] 2128 	sub	a, l
   0B22 7A            [ 4] 2129 	ld	a,d
   0B23 9C            [ 4] 2130 	sbc	a, h
   0B24 E2r29r0B      [10] 2131 	jp	PO, 00147$
   0B27 EE 80         [ 7] 2132 	xor	a, #0x80
   0B29                    2133 00147$:
   0B29 F2r4Dr0B      [10] 2134 	jp	P,00118$
                           2135 ;src/main.c:449: if(enemy->x > prota.x){
   0B2C 0A            [ 7] 2136 	ld	a,(bc)
   0B2D 4F            [ 4] 2137 	ld	c,a
   0B2E 3Ar18r05      [13] 2138 	ld	a,(#_prota + 0)
   0B31 91            [ 4] 2139 	sub	a, c
   0B32 3E 00         [ 7] 2140 	ld	a,#0x00
   0B34 17            [ 4] 2141 	rla
   0B35 B7            [ 4] 2142 	or	a, a
   0B36 28 0A         [12] 2143 	jr	Z,00108$
                           2144 ;src/main.c:457: enemy->seen = SI;
   0B38 DD 6E FC      [19] 2145 	ld	l,-4 (ix)
   0B3B DD 66 FD      [19] 2146 	ld	h,-3 (ix)
   0B3E 36 01         [10] 2147 	ld	(hl),#0x01
   0B40 18 0B         [12] 2148 	jr	00118$
   0B42                    2149 00108$:
                           2150 ;src/main.c:459: }else if(enemy->x > prota.x){
   0B42 B7            [ 4] 2151 	or	a, a
   0B43 28 08         [12] 2152 	jr	Z,00118$
                           2153 ;src/main.c:467: enemy->seen = SI;
   0B45 DD 6E FC      [19] 2154 	ld	l,-4 (ix)
   0B48 DD 66 FD      [19] 2155 	ld	h,-3 (ix)
   0B4B 36 01         [10] 2156 	ld	(hl),#0x01
   0B4D                    2157 00118$:
   0B4D DD F9         [10] 2158 	ld	sp, ix
   0B4F DD E1         [14] 2159 	pop	ix
   0B51 C9            [10] 2160 	ret
                           2161 ;src/main.c:474: void moverEnemigoSeek(TEnemy* enemy){
                           2162 ;	---------------------------------
                           2163 ; Function moverEnemigoSeek
                           2164 ; ---------------------------------
   0B52                    2165 _moverEnemigoSeek::
   0B52 DD E5         [15] 2166 	push	ix
   0B54 DD 21 00 00   [14] 2167 	ld	ix,#0
   0B58 DD 39         [15] 2168 	add	ix,sp
   0B5A F5            [11] 2169 	push	af
   0B5B F5            [11] 2170 	push	af
   0B5C 3B            [ 6] 2171 	dec	sp
                           2172 ;src/main.c:475: if(!enemy->muerto){
   0B5D DD 4E 04      [19] 2173 	ld	c,4 (ix)
   0B60 DD 46 05      [19] 2174 	ld	b,5 (ix)
   0B63 C5            [11] 2175 	push	bc
   0B64 FD E1         [14] 2176 	pop	iy
   0B66 FD 7E 08      [19] 2177 	ld	a,8 (iy)
   0B69 B7            [ 4] 2178 	or	a, a
   0B6A C2r45r0C      [10] 2179 	jp	NZ,00108$
                           2180 ;src/main.c:477: if (!enemy->reversePatrol) {
   0B6D 21 0D 00      [10] 2181 	ld	hl,#0x000D
   0B70 09            [11] 2182 	add	hl,bc
   0B71 EB            [ 4] 2183 	ex	de,hl
   0B72 1A            [ 7] 2184 	ld	a,(de)
   0B73 B7            [ 4] 2185 	or	a, a
   0B74 C2r45r0C      [10] 2186 	jp	NZ,00108$
                           2187 ;src/main.c:478: if(enemy->iter < enemy->longitud_camino - 8){
   0B77 FD 21 0F 00   [14] 2188 	ld	iy,#0x000F
   0B7B FD 09         [15] 2189 	add	iy, bc
   0B7D FD 7E 00      [19] 2190 	ld	a, 0 (iy)
   0B80 DD 77 FF      [19] 2191 	ld	-1 (ix),a
   0B83 69            [ 4] 2192 	ld	l, c
   0B84 60            [ 4] 2193 	ld	h, b
   0B85 C5            [11] 2194 	push	bc
   0B86 01 45 01      [10] 2195 	ld	bc, #0x0145
   0B89 09            [11] 2196 	add	hl, bc
   0B8A C1            [10] 2197 	pop	bc
   0B8B 6E            [ 7] 2198 	ld	l,(hl)
   0B8C 26 00         [ 7] 2199 	ld	h,#0x00
   0B8E 7D            [ 4] 2200 	ld	a,l
   0B8F C6 F8         [ 7] 2201 	add	a,#0xF8
   0B91 DD 77 FB      [19] 2202 	ld	-5 (ix),a
   0B94 7C            [ 4] 2203 	ld	a,h
   0B95 CE FF         [ 7] 2204 	adc	a,#0xFF
   0B97 DD 77 FC      [19] 2205 	ld	-4 (ix),a
   0B9A DD 6E FF      [19] 2206 	ld	l,-1 (ix)
   0B9D 26 00         [ 7] 2207 	ld	h,#0x00
                           2208 ;src/main.c:481: enemy->y = enemy->camino[enemy->iter];
   0B9F 79            [ 4] 2209 	ld	a,c
   0BA0 C6 01         [ 7] 2210 	add	a, #0x01
   0BA2 DD 77 FD      [19] 2211 	ld	-3 (ix),a
   0BA5 78            [ 4] 2212 	ld	a,b
   0BA6 CE 00         [ 7] 2213 	adc	a, #0x00
   0BA8 DD 77 FE      [19] 2214 	ld	-2 (ix),a
                           2215 ;src/main.c:478: if(enemy->iter < enemy->longitud_camino - 8){
   0BAB 7D            [ 4] 2216 	ld	a,l
   0BAC DD 96 FB      [19] 2217 	sub	a, -5 (ix)
   0BAF 7C            [ 4] 2218 	ld	a,h
   0BB0 DD 9E FC      [19] 2219 	sbc	a, -4 (ix)
   0BB3 E2rB8r0B      [10] 2220 	jp	PO, 00122$
   0BB6 EE 80         [ 7] 2221 	xor	a, #0x80
   0BB8                    2222 00122$:
   0BB8 F2rEFr0B      [10] 2223 	jp	P,00102$
                           2224 ;src/main.c:479: enemy->x = enemy->camino[enemy->iter];
   0BBB 21 19 00      [10] 2225 	ld	hl,#0x0019
   0BBE 09            [11] 2226 	add	hl,bc
   0BBF EB            [ 4] 2227 	ex	de,hl
   0BC0 DD 6E FF      [19] 2228 	ld	l,-1 (ix)
   0BC3 26 00         [ 7] 2229 	ld	h,#0x00
   0BC5 19            [11] 2230 	add	hl,de
   0BC6 7E            [ 7] 2231 	ld	a,(hl)
   0BC7 02            [ 7] 2232 	ld	(bc),a
                           2233 ;src/main.c:480: enemy->iter++;
   0BC8 FD 7E 00      [19] 2234 	ld	a, 0 (iy)
   0BCB 3C            [ 4] 2235 	inc	a
   0BCC DD 77 FB      [19] 2236 	ld	-5 (ix), a
   0BCF FD 77 00      [19] 2237 	ld	0 (iy), a
                           2238 ;src/main.c:481: enemy->y = enemy->camino[enemy->iter];
   0BD2 DD 6E FB      [19] 2239 	ld	l,-5 (ix)
   0BD5 26 00         [ 7] 2240 	ld	h,#0x00
   0BD7 19            [11] 2241 	add	hl,de
   0BD8 5E            [ 7] 2242 	ld	e,(hl)
   0BD9 DD 6E FD      [19] 2243 	ld	l,-3 (ix)
   0BDC DD 66 FE      [19] 2244 	ld	h,-2 (ix)
   0BDF 73            [ 7] 2245 	ld	(hl),e
                           2246 ;src/main.c:482: enemy->iter++;
   0BE0 DD 5E FB      [19] 2247 	ld	e,-5 (ix)
   0BE3 1C            [ 4] 2248 	inc	e
   0BE4 FD 73 00      [19] 2249 	ld	0 (iy), e
                           2250 ;src/main.c:483: enemy->mover = SI;
   0BE7 21 06 00      [10] 2251 	ld	hl,#0x0006
   0BEA 09            [11] 2252 	add	hl,bc
   0BEB 36 01         [10] 2253 	ld	(hl),#0x01
   0BED 18 56         [12] 2254 	jr	00108$
   0BEF                    2255 00102$:
                           2256 ;src/main.c:486: enemy->reversePatrol = NO;
   0BEF AF            [ 4] 2257 	xor	a, a
   0BF0 12            [ 7] 2258 	ld	(de),a
                           2259 ;src/main.c:487: enemy->patrolling = 1;
   0BF1 21 0B 00      [10] 2260 	ld	hl,#0x000B
   0BF4 09            [11] 2261 	add	hl,bc
   0BF5 36 01         [10] 2262 	ld	(hl),#0x01
                           2263 ;src/main.c:488: enemy->onPathPatrol = 1;
   0BF7 21 0C 00      [10] 2264 	ld	hl,#0x000C
   0BFA 09            [11] 2265 	add	hl,bc
   0BFB 36 01         [10] 2266 	ld	(hl),#0x01
                           2267 ;src/main.c:489: enemy->seek = 0;
   0BFD 21 14 00      [10] 2268 	ld	hl,#0x0014
   0C00 09            [11] 2269 	add	hl,bc
   0C01 36 00         [10] 2270 	ld	(hl),#0x00
                           2271 ;src/main.c:490: enemy->lastIter = enemy->iter - 1;
   0C03 21 10 00      [10] 2272 	ld	hl,#0x0010
   0C06 09            [11] 2273 	add	hl,bc
   0C07 EB            [ 4] 2274 	ex	de,hl
   0C08 FD 7E 00      [19] 2275 	ld	a, 0 (iy)
   0C0B C6 FF         [ 7] 2276 	add	a,#0xFF
   0C0D 12            [ 7] 2277 	ld	(de),a
                           2278 ;src/main.c:491: enemy->iter = 0;
   0C0E FD 36 00 00   [19] 2279 	ld	0 (iy), #0x00
                           2280 ;src/main.c:492: pathFinding(enemy->x, enemy->y, enemy->p_seek_x, enemy->p_seek_y, enemy, mapa);
   0C12 69            [ 4] 2281 	ld	l, c
   0C13 60            [ 4] 2282 	ld	h, b
   0C14 11 18 00      [10] 2283 	ld	de, #0x0018
   0C17 19            [11] 2284 	add	hl, de
   0C18 56            [ 7] 2285 	ld	d,(hl)
   0C19 C5            [11] 2286 	push	bc
   0C1A FD E1         [14] 2287 	pop	iy
   0C1C FD 7E 17      [19] 2288 	ld	a,23 (iy)
   0C1F DD 77 FB      [19] 2289 	ld	-5 (ix),a
   0C22 DD 6E FD      [19] 2290 	ld	l,-3 (ix)
   0C25 DD 66 FE      [19] 2291 	ld	h,-2 (ix)
   0C28 5E            [ 7] 2292 	ld	e,(hl)
   0C29 0A            [ 7] 2293 	ld	a,(bc)
   0C2A DD 77 FD      [19] 2294 	ld	-3 (ix),a
   0C2D 2Ar00r00      [16] 2295 	ld	hl,(_mapa)
   0C30 E5            [11] 2296 	push	hl
   0C31 C5            [11] 2297 	push	bc
   0C32 D5            [11] 2298 	push	de
   0C33 33            [ 6] 2299 	inc	sp
   0C34 DD 56 FB      [19] 2300 	ld	d, -5 (ix)
   0C37 D5            [11] 2301 	push	de
   0C38 DD 7E FD      [19] 2302 	ld	a,-3 (ix)
   0C3B F5            [11] 2303 	push	af
   0C3C 33            [ 6] 2304 	inc	sp
   0C3D CDr00r00      [17] 2305 	call	_pathFinding
   0C40 21 08 00      [10] 2306 	ld	hl,#8
   0C43 39            [11] 2307 	add	hl,sp
   0C44 F9            [ 6] 2308 	ld	sp,hl
   0C45                    2309 00108$:
   0C45 DD F9         [10] 2310 	ld	sp, ix
   0C47 DD E1         [14] 2311 	pop	ix
   0C49 C9            [10] 2312 	ret
                           2313 ;src/main.c:499: void patrol(TEnemy *enemy) {
                           2314 ;	---------------------------------
                           2315 ; Function patrol
                           2316 ; ---------------------------------
   0C4A                    2317 _patrol::
                           2318 ;src/main.c:500: if (enemy->onPathPatrol) {
   0C4A D1            [10] 2319 	pop	de
   0C4B C1            [10] 2320 	pop	bc
   0C4C C5            [11] 2321 	push	bc
   0C4D D5            [11] 2322 	push	de
   0C4E C5            [11] 2323 	push	bc
   0C4F FD E1         [14] 2324 	pop	iy
   0C51 FD 7E 0C      [19] 2325 	ld	a,12 (iy)
   0C54 B7            [ 4] 2326 	or	a, a
   0C55 C8            [11] 2327 	ret	Z
                           2328 ;src/main.c:501: moverEnemigoPatrol(enemy);
   0C56 C5            [11] 2329 	push	bc
   0C57 CDr25r09      [17] 2330 	call	_moverEnemigoPatrol
   0C5A F1            [10] 2331 	pop	af
   0C5B C9            [10] 2332 	ret
                           2333 ;src/main.c:505: void seek(TEnemy* actual){
                           2334 ;	---------------------------------
                           2335 ; Function seek
                           2336 ; ---------------------------------
   0C5C                    2337 _seek::
                           2338 ;src/main.c:506: moverEnemigoSeek(actual);
   0C5C C1            [10] 2339 	pop	bc
   0C5D E1            [10] 2340 	pop	hl
   0C5E E5            [11] 2341 	push	hl
   0C5F C5            [11] 2342 	push	bc
   0C60 E5            [11] 2343 	push	hl
   0C61 CDr52r0B      [17] 2344 	call	_moverEnemigoSeek
   0C64 F1            [10] 2345 	pop	af
   0C65 C9            [10] 2346 	ret
                           2347 ;src/main.c:509: void engage(TEnemy *enemy, u8 dx, u8 dy) {
                           2348 ;	---------------------------------
                           2349 ; Function engage
                           2350 ; ---------------------------------
   0C66                    2351 _engage::
   0C66 DD E5         [15] 2352 	push	ix
   0C68 DD 21 00 00   [14] 2353 	ld	ix,#0
   0C6C DD 39         [15] 2354 	add	ix,sp
   0C6E 21 F3 FF      [10] 2355 	ld	hl,#-13
   0C71 39            [11] 2356 	add	hl,sp
   0C72 F9            [ 6] 2357 	ld	sp,hl
                           2358 ;src/main.c:510: u8 difx = abs(enemy->x - prota.x); // calculo distancia para mantener una dist
   0C73 DD 7E 04      [19] 2359 	ld	a,4 (ix)
   0C76 DD 77 F7      [19] 2360 	ld	-9 (ix),a
   0C79 DD 7E 05      [19] 2361 	ld	a,5 (ix)
   0C7C DD 77 F8      [19] 2362 	ld	-8 (ix),a
   0C7F DD 6E F7      [19] 2363 	ld	l,-9 (ix)
   0C82 DD 66 F8      [19] 2364 	ld	h,-8 (ix)
   0C85 4E            [ 7] 2365 	ld	c,(hl)
   0C86 06 00         [ 7] 2366 	ld	b,#0x00
   0C88 21r18r05      [10] 2367 	ld	hl,#_prota+0
   0C8B 5E            [ 7] 2368 	ld	e,(hl)
   0C8C 16 00         [ 7] 2369 	ld	d,#0x00
   0C8E 79            [ 4] 2370 	ld	a,c
   0C8F 93            [ 4] 2371 	sub	a, e
   0C90 4F            [ 4] 2372 	ld	c,a
   0C91 78            [ 4] 2373 	ld	a,b
   0C92 9A            [ 4] 2374 	sbc	a, d
   0C93 47            [ 4] 2375 	ld	b,a
   0C94 C5            [11] 2376 	push	bc
   0C95 CDr00r00      [17] 2377 	call	_abs
   0C98 F1            [10] 2378 	pop	af
   0C99 4D            [ 4] 2379 	ld	c,l
                           2380 ;src/main.c:511: u8 dify = abs(enemy->y - prota.y);
   0C9A DD 7E F7      [19] 2381 	ld	a,-9 (ix)
   0C9D C6 01         [ 7] 2382 	add	a, #0x01
   0C9F DD 77 F9      [19] 2383 	ld	-7 (ix),a
   0CA2 DD 7E F8      [19] 2384 	ld	a,-8 (ix)
   0CA5 CE 00         [ 7] 2385 	adc	a, #0x00
   0CA7 DD 77 FA      [19] 2386 	ld	-6 (ix),a
   0CAA DD 6E F9      [19] 2387 	ld	l,-7 (ix)
   0CAD DD 66 FA      [19] 2388 	ld	h,-6 (ix)
   0CB0 5E            [ 7] 2389 	ld	e,(hl)
   0CB1 16 00         [ 7] 2390 	ld	d,#0x00
   0CB3 21r19r05      [10] 2391 	ld	hl,#_prota+1
   0CB6 6E            [ 7] 2392 	ld	l,(hl)
   0CB7 26 00         [ 7] 2393 	ld	h,#0x00
   0CB9 7B            [ 4] 2394 	ld	a,e
   0CBA 95            [ 4] 2395 	sub	a, l
   0CBB 5F            [ 4] 2396 	ld	e,a
   0CBC 7A            [ 4] 2397 	ld	a,d
   0CBD 9C            [ 4] 2398 	sbc	a, h
   0CBE 57            [ 4] 2399 	ld	d,a
   0CBF C5            [11] 2400 	push	bc
   0CC0 D5            [11] 2401 	push	de
   0CC1 CDr00r00      [17] 2402 	call	_abs
   0CC4 F1            [10] 2403 	pop	af
   0CC5 C1            [10] 2404 	pop	bc
                           2405 ;src/main.c:512: u8 dist = difx + dify; // manhattan
   0CC6 09            [11] 2406 	add	hl, bc
   0CC7 DD 75 F3      [19] 2407 	ld	-13 (ix),l
                           2408 ;src/main.c:514: u8 movX = 0;
   0CCA DD 36 F6 00   [19] 2409 	ld	-10 (ix),#0x00
                           2410 ;src/main.c:515: u8 movY = 0;
   0CCE DD 36 F5 00   [19] 2411 	ld	-11 (ix),#0x00
                           2412 ;src/main.c:516: u8 mov = 0;
   0CD2 DD 36 F4 00   [19] 2413 	ld	-12 (ix),#0x00
                           2414 ;src/main.c:518: if (enemy->y == dy) { // alineado en el eje x
   0CD6 DD 6E F9      [19] 2415 	ld	l,-7 (ix)
   0CD9 DD 66 FA      [19] 2416 	ld	h,-6 (ix)
   0CDC 7E            [ 7] 2417 	ld	a,(hl)
   0CDD DD 77 FB      [19] 2418 	ld	-5 (ix),a
                           2419 ;src/main.c:520: if (dist > 10) {
   0CE0 3E 0A         [ 7] 2420 	ld	a,#0x0A
   0CE2 DD 96 F3      [19] 2421 	sub	a, -13 (ix)
   0CE5 3E 00         [ 7] 2422 	ld	a,#0x00
   0CE7 17            [ 4] 2423 	rla
   0CE8 DD 77 FC      [19] 2424 	ld	-4 (ix),a
                           2425 ;src/main.c:518: if (enemy->y == dy) { // alineado en el eje x
   0CEB DD 7E 07      [19] 2426 	ld	a,7 (ix)
   0CEE DD 96 FB      [19] 2427 	sub	a, -5 (ix)
   0CF1 C2rF3r0D      [10] 2428 	jp	NZ,00187$
                           2429 ;src/main.c:520: if (dist > 10) {
   0CF4 DD 7E FC      [19] 2430 	ld	a,-4 (ix)
   0CF7 B7            [ 4] 2431 	or	a, a
   0CF8 CAr57r13      [10] 2432 	jp	Z,00189$
                           2433 ;src/main.c:521: if (dx < enemy->x) { // izquierda
   0CFB DD 6E F7      [19] 2434 	ld	l,-9 (ix)
   0CFE DD 66 F8      [19] 2435 	ld	h,-8 (ix)
   0D01 46            [ 7] 2436 	ld	b,(hl)
   0D02 DD 7E 06      [19] 2437 	ld	a,6 (ix)
   0D05 90            [ 4] 2438 	sub	a, b
   0D06 30 72         [12] 2439 	jr	NC,00110$
                           2440 ;src/main.c:522: if(*getTilePtr(mapa, enemy->x - 1, enemy->y) <= 2
   0D08 05            [ 4] 2441 	dec	b
   0D09 DD 7E FB      [19] 2442 	ld	a,-5 (ix)
   0D0C F5            [11] 2443 	push	af
   0D0D 33            [ 6] 2444 	inc	sp
   0D0E C5            [11] 2445 	push	bc
   0D0F 33            [ 6] 2446 	inc	sp
   0D10 2Ar00r00      [16] 2447 	ld	hl,(_mapa)
   0D13 E5            [11] 2448 	push	hl
   0D14 CDr00r00      [17] 2449 	call	_getTilePtr
   0D17 F1            [10] 2450 	pop	af
   0D18 F1            [10] 2451 	pop	af
   0D19 4E            [ 7] 2452 	ld	c,(hl)
   0D1A 3E 02         [ 7] 2453 	ld	a,#0x02
   0D1C 91            [ 4] 2454 	sub	a, c
   0D1D DAr57r13      [10] 2455 	jp	C,00189$
                           2456 ;src/main.c:523: && *getTilePtr(mapa, enemy->x - 1, enemy->y + G_ENEMY_H/2) <= 2
   0D20 DD 6E F9      [19] 2457 	ld	l,-7 (ix)
   0D23 DD 66 FA      [19] 2458 	ld	h,-6 (ix)
   0D26 7E            [ 7] 2459 	ld	a,(hl)
   0D27 C6 0B         [ 7] 2460 	add	a, #0x0B
   0D29 57            [ 4] 2461 	ld	d,a
   0D2A DD 6E F7      [19] 2462 	ld	l,-9 (ix)
   0D2D DD 66 F8      [19] 2463 	ld	h,-8 (ix)
   0D30 46            [ 7] 2464 	ld	b,(hl)
   0D31 05            [ 4] 2465 	dec	b
   0D32 D5            [11] 2466 	push	de
   0D33 33            [ 6] 2467 	inc	sp
   0D34 C5            [11] 2468 	push	bc
   0D35 33            [ 6] 2469 	inc	sp
   0D36 2Ar00r00      [16] 2470 	ld	hl,(_mapa)
   0D39 E5            [11] 2471 	push	hl
   0D3A CDr00r00      [17] 2472 	call	_getTilePtr
   0D3D F1            [10] 2473 	pop	af
   0D3E F1            [10] 2474 	pop	af
   0D3F 4E            [ 7] 2475 	ld	c,(hl)
   0D40 3E 02         [ 7] 2476 	ld	a,#0x02
   0D42 91            [ 4] 2477 	sub	a, c
   0D43 DAr57r13      [10] 2478 	jp	C,00189$
                           2479 ;src/main.c:524: && *getTilePtr(mapa, enemy->x - 1, enemy->y + G_ENEMY_H) <= 2) {
   0D46 DD 6E F9      [19] 2480 	ld	l,-7 (ix)
   0D49 DD 66 FA      [19] 2481 	ld	h,-6 (ix)
   0D4C 7E            [ 7] 2482 	ld	a,(hl)
   0D4D C6 16         [ 7] 2483 	add	a, #0x16
   0D4F 57            [ 4] 2484 	ld	d,a
   0D50 DD 6E F7      [19] 2485 	ld	l,-9 (ix)
   0D53 DD 66 F8      [19] 2486 	ld	h,-8 (ix)
   0D56 46            [ 7] 2487 	ld	b,(hl)
   0D57 05            [ 4] 2488 	dec	b
   0D58 D5            [11] 2489 	push	de
   0D59 33            [ 6] 2490 	inc	sp
   0D5A C5            [11] 2491 	push	bc
   0D5B 33            [ 6] 2492 	inc	sp
   0D5C 2Ar00r00      [16] 2493 	ld	hl,(_mapa)
   0D5F E5            [11] 2494 	push	hl
   0D60 CDr00r00      [17] 2495 	call	_getTilePtr
   0D63 F1            [10] 2496 	pop	af
   0D64 F1            [10] 2497 	pop	af
   0D65 4E            [ 7] 2498 	ld	c,(hl)
   0D66 3E 02         [ 7] 2499 	ld	a,#0x02
   0D68 91            [ 4] 2500 	sub	a, c
   0D69 DAr57r13      [10] 2501 	jp	C,00189$
                           2502 ;src/main.c:525: moverEnemigoIzquierda(enemy);
   0D6C DD 6E F7      [19] 2503 	ld	l,-9 (ix)
   0D6F DD 66 F8      [19] 2504 	ld	h,-8 (ix)
   0D72 E5            [11] 2505 	push	hl
   0D73 CDrC6r08      [17] 2506 	call	_moverEnemigoIzquierda
   0D76 F1            [10] 2507 	pop	af
                           2508 ;src/main.c:527: mov = 1;
   0D77 C3r57r13      [10] 2509 	jp	00189$
   0D7A                    2510 00110$:
                           2511 ;src/main.c:530: if(*getTilePtr(mapa, enemy->x + G_ENEMY_W + 1, enemy->y) <= 2
   0D7A 78            [ 4] 2512 	ld	a,b
   0D7B C6 05         [ 7] 2513 	add	a, #0x05
   0D7D 47            [ 4] 2514 	ld	b,a
   0D7E DD 7E FB      [19] 2515 	ld	a,-5 (ix)
   0D81 F5            [11] 2516 	push	af
   0D82 33            [ 6] 2517 	inc	sp
   0D83 C5            [11] 2518 	push	bc
   0D84 33            [ 6] 2519 	inc	sp
   0D85 2Ar00r00      [16] 2520 	ld	hl,(_mapa)
   0D88 E5            [11] 2521 	push	hl
   0D89 CDr00r00      [17] 2522 	call	_getTilePtr
   0D8C F1            [10] 2523 	pop	af
   0D8D F1            [10] 2524 	pop	af
   0D8E 4E            [ 7] 2525 	ld	c,(hl)
   0D8F 3E 02         [ 7] 2526 	ld	a,#0x02
   0D91 91            [ 4] 2527 	sub	a, c
   0D92 DAr57r13      [10] 2528 	jp	C,00189$
                           2529 ;src/main.c:531: && *getTilePtr(mapa, enemy->x + G_ENEMY_W + 1, enemy->y + G_ENEMY_H/2) <= 2
   0D95 DD 6E F9      [19] 2530 	ld	l,-7 (ix)
   0D98 DD 66 FA      [19] 2531 	ld	h,-6 (ix)
   0D9B 7E            [ 7] 2532 	ld	a,(hl)
   0D9C C6 0B         [ 7] 2533 	add	a, #0x0B
   0D9E 57            [ 4] 2534 	ld	d,a
   0D9F DD 6E F7      [19] 2535 	ld	l,-9 (ix)
   0DA2 DD 66 F8      [19] 2536 	ld	h,-8 (ix)
   0DA5 7E            [ 7] 2537 	ld	a,(hl)
   0DA6 C6 05         [ 7] 2538 	add	a, #0x05
   0DA8 47            [ 4] 2539 	ld	b,a
   0DA9 D5            [11] 2540 	push	de
   0DAA 33            [ 6] 2541 	inc	sp
   0DAB C5            [11] 2542 	push	bc
   0DAC 33            [ 6] 2543 	inc	sp
   0DAD 2Ar00r00      [16] 2544 	ld	hl,(_mapa)
   0DB0 E5            [11] 2545 	push	hl
   0DB1 CDr00r00      [17] 2546 	call	_getTilePtr
   0DB4 F1            [10] 2547 	pop	af
   0DB5 F1            [10] 2548 	pop	af
   0DB6 4E            [ 7] 2549 	ld	c,(hl)
   0DB7 3E 02         [ 7] 2550 	ld	a,#0x02
   0DB9 91            [ 4] 2551 	sub	a, c
   0DBA DAr57r13      [10] 2552 	jp	C,00189$
                           2553 ;src/main.c:532: && *getTilePtr(mapa, enemy->x + G_ENEMY_W + 1, enemy->y + G_ENEMY_H) <= 2) {
   0DBD DD 6E F9      [19] 2554 	ld	l,-7 (ix)
   0DC0 DD 66 FA      [19] 2555 	ld	h,-6 (ix)
   0DC3 7E            [ 7] 2556 	ld	a,(hl)
   0DC4 C6 16         [ 7] 2557 	add	a, #0x16
   0DC6 57            [ 4] 2558 	ld	d,a
   0DC7 DD 6E F7      [19] 2559 	ld	l,-9 (ix)
   0DCA DD 66 F8      [19] 2560 	ld	h,-8 (ix)
   0DCD 7E            [ 7] 2561 	ld	a,(hl)
   0DCE C6 05         [ 7] 2562 	add	a, #0x05
   0DD0 47            [ 4] 2563 	ld	b,a
   0DD1 D5            [11] 2564 	push	de
   0DD2 33            [ 6] 2565 	inc	sp
   0DD3 C5            [11] 2566 	push	bc
   0DD4 33            [ 6] 2567 	inc	sp
   0DD5 2Ar00r00      [16] 2568 	ld	hl,(_mapa)
   0DD8 E5            [11] 2569 	push	hl
   0DD9 CDr00r00      [17] 2570 	call	_getTilePtr
   0DDC F1            [10] 2571 	pop	af
   0DDD F1            [10] 2572 	pop	af
   0DDE 4E            [ 7] 2573 	ld	c,(hl)
   0DDF 3E 02         [ 7] 2574 	ld	a,#0x02
   0DE1 91            [ 4] 2575 	sub	a, c
   0DE2 DAr57r13      [10] 2576 	jp	C,00189$
                           2577 ;src/main.c:533: moverEnemigoDerecha(enemy);
   0DE5 DD 6E F7      [19] 2578 	ld	l,-9 (ix)
   0DE8 DD 66 F8      [19] 2579 	ld	h,-8 (ix)
   0DEB E5            [11] 2580 	push	hl
   0DEC CDrB6r08      [17] 2581 	call	_moverEnemigoDerecha
   0DEF F1            [10] 2582 	pop	af
                           2583 ;src/main.c:535: mov = 1;
   0DF0 C3r57r13      [10] 2584 	jp	00189$
   0DF3                    2585 00187$:
                           2586 ;src/main.c:540: else if (enemy->x == dx) {
   0DF3 DD 6E F7      [19] 2587 	ld	l,-9 (ix)
   0DF6 DD 66 F8      [19] 2588 	ld	h,-8 (ix)
   0DF9 7E            [ 7] 2589 	ld	a,(hl)
   0DFA DD 77 FD      [19] 2590 	ld	-3 (ix), a
   0DFD DD 96 06      [19] 2591 	sub	a, 6 (ix)
   0E00 C2rFDr0E      [10] 2592 	jp	NZ,00184$
                           2593 ;src/main.c:542: if (dist > 10) {
   0E03 DD 7E FC      [19] 2594 	ld	a,-4 (ix)
   0E06 B7            [ 4] 2595 	or	a, a
   0E07 CAr57r13      [10] 2596 	jp	Z,00189$
                           2597 ;src/main.c:543: if (dy < enemy->y) {
   0E0A DD 7E 07      [19] 2598 	ld	a,7 (ix)
   0E0D DD 96 FB      [19] 2599 	sub	a, -5 (ix)
   0E10 30 74         [12] 2600 	jr	NC,00123$
                           2601 ;src/main.c:544: if(*getTilePtr(mapa, enemy->x, enemy->y - 2) <= 2
   0E12 DD 46 FB      [19] 2602 	ld	b,-5 (ix)
   0E15 05            [ 4] 2603 	dec	b
   0E16 05            [ 4] 2604 	dec	b
   0E17 C5            [11] 2605 	push	bc
   0E18 33            [ 6] 2606 	inc	sp
   0E19 DD 7E FD      [19] 2607 	ld	a,-3 (ix)
   0E1C F5            [11] 2608 	push	af
   0E1D 33            [ 6] 2609 	inc	sp
   0E1E 2Ar00r00      [16] 2610 	ld	hl,(_mapa)
   0E21 E5            [11] 2611 	push	hl
   0E22 CDr00r00      [17] 2612 	call	_getTilePtr
   0E25 F1            [10] 2613 	pop	af
   0E26 F1            [10] 2614 	pop	af
   0E27 4E            [ 7] 2615 	ld	c,(hl)
   0E28 3E 02         [ 7] 2616 	ld	a,#0x02
   0E2A 91            [ 4] 2617 	sub	a, c
   0E2B DAr57r13      [10] 2618 	jp	C,00189$
                           2619 ;src/main.c:545: && *getTilePtr(mapa, enemy->x + G_ENEMY_W / 2, enemy->y - 2) <= 2
   0E2E DD 6E F9      [19] 2620 	ld	l,-7 (ix)
   0E31 DD 66 FA      [19] 2621 	ld	h,-6 (ix)
   0E34 46            [ 7] 2622 	ld	b,(hl)
   0E35 05            [ 4] 2623 	dec	b
   0E36 05            [ 4] 2624 	dec	b
   0E37 DD 6E F7      [19] 2625 	ld	l,-9 (ix)
   0E3A DD 66 F8      [19] 2626 	ld	h,-8 (ix)
   0E3D 56            [ 7] 2627 	ld	d,(hl)
   0E3E 14            [ 4] 2628 	inc	d
   0E3F 14            [ 4] 2629 	inc	d
   0E40 4A            [ 4] 2630 	ld	c, d
   0E41 C5            [11] 2631 	push	bc
   0E42 2Ar00r00      [16] 2632 	ld	hl,(_mapa)
   0E45 E5            [11] 2633 	push	hl
   0E46 CDr00r00      [17] 2634 	call	_getTilePtr
   0E49 F1            [10] 2635 	pop	af
   0E4A F1            [10] 2636 	pop	af
   0E4B 4E            [ 7] 2637 	ld	c,(hl)
   0E4C 3E 02         [ 7] 2638 	ld	a,#0x02
   0E4E 91            [ 4] 2639 	sub	a, c
   0E4F DAr57r13      [10] 2640 	jp	C,00189$
                           2641 ;src/main.c:546: && *getTilePtr(mapa, enemy->x + G_ENEMY_W, enemy->y - 2) <= 2) {
   0E52 DD 6E F9      [19] 2642 	ld	l,-7 (ix)
   0E55 DD 66 FA      [19] 2643 	ld	h,-6 (ix)
   0E58 46            [ 7] 2644 	ld	b,(hl)
   0E59 05            [ 4] 2645 	dec	b
   0E5A 05            [ 4] 2646 	dec	b
   0E5B DD 6E F7      [19] 2647 	ld	l,-9 (ix)
   0E5E DD 66 F8      [19] 2648 	ld	h,-8 (ix)
   0E61 7E            [ 7] 2649 	ld	a,(hl)
   0E62 C6 04         [ 7] 2650 	add	a, #0x04
   0E64 C5            [11] 2651 	push	bc
   0E65 33            [ 6] 2652 	inc	sp
   0E66 F5            [11] 2653 	push	af
   0E67 33            [ 6] 2654 	inc	sp
   0E68 2Ar00r00      [16] 2655 	ld	hl,(_mapa)
   0E6B E5            [11] 2656 	push	hl
   0E6C CDr00r00      [17] 2657 	call	_getTilePtr
   0E6F F1            [10] 2658 	pop	af
   0E70 F1            [10] 2659 	pop	af
   0E71 4E            [ 7] 2660 	ld	c,(hl)
   0E72 3E 02         [ 7] 2661 	ld	a,#0x02
   0E74 91            [ 4] 2662 	sub	a, c
   0E75 DAr57r13      [10] 2663 	jp	C,00189$
                           2664 ;src/main.c:547: moverEnemigoArriba(enemy);
   0E78 DD 6E F7      [19] 2665 	ld	l,-9 (ix)
   0E7B DD 66 F8      [19] 2666 	ld	h,-8 (ix)
   0E7E E5            [11] 2667 	push	hl
   0E7F CDr78r08      [17] 2668 	call	_moverEnemigoArriba
   0E82 F1            [10] 2669 	pop	af
                           2670 ;src/main.c:549: mov = 1;
   0E83 C3r57r13      [10] 2671 	jp	00189$
   0E86                    2672 00123$:
                           2673 ;src/main.c:552: if(*getTilePtr(mapa, enemy->x, enemy->y + G_ENEMY_H + 2) <= 2
   0E86 DD 7E FB      [19] 2674 	ld	a,-5 (ix)
   0E89 C6 18         [ 7] 2675 	add	a, #0x18
   0E8B 47            [ 4] 2676 	ld	b,a
   0E8C C5            [11] 2677 	push	bc
   0E8D 33            [ 6] 2678 	inc	sp
   0E8E DD 7E FD      [19] 2679 	ld	a,-3 (ix)
   0E91 F5            [11] 2680 	push	af
   0E92 33            [ 6] 2681 	inc	sp
   0E93 2Ar00r00      [16] 2682 	ld	hl,(_mapa)
   0E96 E5            [11] 2683 	push	hl
   0E97 CDr00r00      [17] 2684 	call	_getTilePtr
   0E9A F1            [10] 2685 	pop	af
   0E9B F1            [10] 2686 	pop	af
   0E9C 4E            [ 7] 2687 	ld	c,(hl)
   0E9D 3E 02         [ 7] 2688 	ld	a,#0x02
   0E9F 91            [ 4] 2689 	sub	a, c
   0EA0 DAr57r13      [10] 2690 	jp	C,00189$
                           2691 ;src/main.c:553: && *getTilePtr(mapa, enemy->x + G_ENEMY_W / 2, enemy->y + G_ENEMY_H + 2) <= 2
   0EA3 DD 6E F9      [19] 2692 	ld	l,-7 (ix)
   0EA6 DD 66 FA      [19] 2693 	ld	h,-6 (ix)
   0EA9 7E            [ 7] 2694 	ld	a,(hl)
   0EAA C6 18         [ 7] 2695 	add	a, #0x18
   0EAC 47            [ 4] 2696 	ld	b,a
   0EAD DD 6E F7      [19] 2697 	ld	l,-9 (ix)
   0EB0 DD 66 F8      [19] 2698 	ld	h,-8 (ix)
   0EB3 56            [ 7] 2699 	ld	d,(hl)
   0EB4 14            [ 4] 2700 	inc	d
   0EB5 14            [ 4] 2701 	inc	d
   0EB6 4A            [ 4] 2702 	ld	c, d
   0EB7 C5            [11] 2703 	push	bc
   0EB8 2Ar00r00      [16] 2704 	ld	hl,(_mapa)
   0EBB E5            [11] 2705 	push	hl
   0EBC CDr00r00      [17] 2706 	call	_getTilePtr
   0EBF F1            [10] 2707 	pop	af
   0EC0 F1            [10] 2708 	pop	af
   0EC1 4E            [ 7] 2709 	ld	c,(hl)
   0EC2 3E 02         [ 7] 2710 	ld	a,#0x02
   0EC4 91            [ 4] 2711 	sub	a, c
   0EC5 DAr57r13      [10] 2712 	jp	C,00189$
                           2713 ;src/main.c:554: && *getTilePtr(mapa, enemy->x + G_ENEMY_W, enemy->y + G_ENEMY_H + 2) <= 2) {
   0EC8 DD 6E F9      [19] 2714 	ld	l,-7 (ix)
   0ECB DD 66 FA      [19] 2715 	ld	h,-6 (ix)
   0ECE 7E            [ 7] 2716 	ld	a,(hl)
   0ECF C6 18         [ 7] 2717 	add	a, #0x18
   0ED1 47            [ 4] 2718 	ld	b,a
   0ED2 DD 6E F7      [19] 2719 	ld	l,-9 (ix)
   0ED5 DD 66 F8      [19] 2720 	ld	h,-8 (ix)
   0ED8 7E            [ 7] 2721 	ld	a,(hl)
   0ED9 C6 04         [ 7] 2722 	add	a, #0x04
   0EDB C5            [11] 2723 	push	bc
   0EDC 33            [ 6] 2724 	inc	sp
   0EDD F5            [11] 2725 	push	af
   0EDE 33            [ 6] 2726 	inc	sp
   0EDF 2Ar00r00      [16] 2727 	ld	hl,(_mapa)
   0EE2 E5            [11] 2728 	push	hl
   0EE3 CDr00r00      [17] 2729 	call	_getTilePtr
   0EE6 F1            [10] 2730 	pop	af
   0EE7 F1            [10] 2731 	pop	af
   0EE8 4E            [ 7] 2732 	ld	c,(hl)
   0EE9 3E 02         [ 7] 2733 	ld	a,#0x02
   0EEB 91            [ 4] 2734 	sub	a, c
   0EEC DAr57r13      [10] 2735 	jp	C,00189$
                           2736 ;src/main.c:555: moverEnemigoAbajo(enemy);
   0EEF DD 6E F7      [19] 2737 	ld	l,-9 (ix)
   0EF2 DD 66 F8      [19] 2738 	ld	h,-8 (ix)
   0EF5 E5            [11] 2739 	push	hl
   0EF6 CDr97r08      [17] 2740 	call	_moverEnemigoAbajo
   0EF9 F1            [10] 2741 	pop	af
                           2742 ;src/main.c:557: mov = 1;
   0EFA C3r57r13      [10] 2743 	jp	00189$
   0EFD                    2744 00184$:
                           2745 ;src/main.c:563: if (dist > 20) {
   0EFD 3E 14         [ 7] 2746 	ld	a,#0x14
   0EFF DD 96 F3      [19] 2747 	sub	a, -13 (ix)
   0F02 D2r57r13      [10] 2748 	jp	NC,00189$
                           2749 ;src/main.c:564: if (dx < enemy->x) {
   0F05 DD 7E 06      [19] 2750 	ld	a,6 (ix)
   0F08 DD 96 FD      [19] 2751 	sub	a, -3 (ix)
   0F0B D2r8Dr0F      [10] 2752 	jp	NC,00136$
                           2753 ;src/main.c:565: if(*getTilePtr(mapa, enemy->x - 1, enemy->y) <= 2
   0F0E DD 46 FD      [19] 2754 	ld	b,-3 (ix)
   0F11 05            [ 4] 2755 	dec	b
   0F12 DD 7E FB      [19] 2756 	ld	a,-5 (ix)
   0F15 F5            [11] 2757 	push	af
   0F16 33            [ 6] 2758 	inc	sp
   0F17 C5            [11] 2759 	push	bc
   0F18 33            [ 6] 2760 	inc	sp
   0F19 2Ar00r00      [16] 2761 	ld	hl,(_mapa)
   0F1C E5            [11] 2762 	push	hl
   0F1D CDr00r00      [17] 2763 	call	_getTilePtr
   0F20 F1            [10] 2764 	pop	af
   0F21 F1            [10] 2765 	pop	af
   0F22 4E            [ 7] 2766 	ld	c,(hl)
   0F23 3E 02         [ 7] 2767 	ld	a,#0x02
   0F25 91            [ 4] 2768 	sub	a, c
   0F26 DAr0Ar10      [10] 2769 	jp	C,00137$
                           2770 ;src/main.c:566: && *getTilePtr(mapa, enemy->x - 1, enemy->y + G_ENEMY_H/2) <= 2
   0F29 DD 6E F9      [19] 2771 	ld	l,-7 (ix)
   0F2C DD 66 FA      [19] 2772 	ld	h,-6 (ix)
   0F2F 7E            [ 7] 2773 	ld	a,(hl)
   0F30 C6 0B         [ 7] 2774 	add	a, #0x0B
   0F32 4F            [ 4] 2775 	ld	c,a
   0F33 DD 6E F7      [19] 2776 	ld	l,-9 (ix)
   0F36 DD 66 F8      [19] 2777 	ld	h,-8 (ix)
   0F39 46            [ 7] 2778 	ld	b,(hl)
   0F3A 05            [ 4] 2779 	dec	b
   0F3B 79            [ 4] 2780 	ld	a,c
   0F3C F5            [11] 2781 	push	af
   0F3D 33            [ 6] 2782 	inc	sp
   0F3E C5            [11] 2783 	push	bc
   0F3F 33            [ 6] 2784 	inc	sp
   0F40 2Ar00r00      [16] 2785 	ld	hl,(_mapa)
   0F43 E5            [11] 2786 	push	hl
   0F44 CDr00r00      [17] 2787 	call	_getTilePtr
   0F47 F1            [10] 2788 	pop	af
   0F48 F1            [10] 2789 	pop	af
   0F49 4E            [ 7] 2790 	ld	c,(hl)
   0F4A 3E 02         [ 7] 2791 	ld	a,#0x02
   0F4C 91            [ 4] 2792 	sub	a, c
   0F4D DAr0Ar10      [10] 2793 	jp	C,00137$
                           2794 ;src/main.c:567: && *getTilePtr(mapa, enemy->x - 1, enemy->y + G_ENEMY_H) <= 2) {
   0F50 DD 6E F9      [19] 2795 	ld	l,-7 (ix)
   0F53 DD 66 FA      [19] 2796 	ld	h,-6 (ix)
   0F56 7E            [ 7] 2797 	ld	a,(hl)
   0F57 C6 16         [ 7] 2798 	add	a, #0x16
   0F59 4F            [ 4] 2799 	ld	c,a
   0F5A DD 6E F7      [19] 2800 	ld	l,-9 (ix)
   0F5D DD 66 F8      [19] 2801 	ld	h,-8 (ix)
   0F60 46            [ 7] 2802 	ld	b,(hl)
   0F61 05            [ 4] 2803 	dec	b
   0F62 79            [ 4] 2804 	ld	a,c
   0F63 F5            [11] 2805 	push	af
   0F64 33            [ 6] 2806 	inc	sp
   0F65 C5            [11] 2807 	push	bc
   0F66 33            [ 6] 2808 	inc	sp
   0F67 2Ar00r00      [16] 2809 	ld	hl,(_mapa)
   0F6A E5            [11] 2810 	push	hl
   0F6B CDr00r00      [17] 2811 	call	_getTilePtr
   0F6E F1            [10] 2812 	pop	af
   0F6F F1            [10] 2813 	pop	af
   0F70 4E            [ 7] 2814 	ld	c,(hl)
   0F71 3E 02         [ 7] 2815 	ld	a,#0x02
   0F73 91            [ 4] 2816 	sub	a, c
   0F74 DAr0Ar10      [10] 2817 	jp	C,00137$
                           2818 ;src/main.c:568: moverEnemigoIzquierda(enemy);
   0F77 DD 6E F7      [19] 2819 	ld	l,-9 (ix)
   0F7A DD 66 F8      [19] 2820 	ld	h,-8 (ix)
   0F7D E5            [11] 2821 	push	hl
   0F7E CDrC6r08      [17] 2822 	call	_moverEnemigoIzquierda
   0F81 F1            [10] 2823 	pop	af
                           2824 ;src/main.c:569: movX = 1;
   0F82 DD 36 F6 01   [19] 2825 	ld	-10 (ix),#0x01
                           2826 ;src/main.c:570: mov = 1;
   0F86 DD 36 F4 01   [19] 2827 	ld	-12 (ix),#0x01
   0F8A C3r0Ar10      [10] 2828 	jp	00137$
   0F8D                    2829 00136$:
                           2830 ;src/main.c:573: if(*getTilePtr(mapa, enemy->x + G_ENEMY_W + 1, enemy->y) <= 2
   0F8D DD 7E FD      [19] 2831 	ld	a,-3 (ix)
   0F90 C6 05         [ 7] 2832 	add	a, #0x05
   0F92 47            [ 4] 2833 	ld	b,a
   0F93 DD 7E FB      [19] 2834 	ld	a,-5 (ix)
   0F96 F5            [11] 2835 	push	af
   0F97 33            [ 6] 2836 	inc	sp
   0F98 C5            [11] 2837 	push	bc
   0F99 33            [ 6] 2838 	inc	sp
   0F9A 2Ar00r00      [16] 2839 	ld	hl,(_mapa)
   0F9D E5            [11] 2840 	push	hl
   0F9E CDr00r00      [17] 2841 	call	_getTilePtr
   0FA1 F1            [10] 2842 	pop	af
   0FA2 F1            [10] 2843 	pop	af
   0FA3 4E            [ 7] 2844 	ld	c,(hl)
   0FA4 3E 02         [ 7] 2845 	ld	a,#0x02
   0FA6 91            [ 4] 2846 	sub	a, c
   0FA7 38 61         [12] 2847 	jr	C,00137$
                           2848 ;src/main.c:574: && *getTilePtr(mapa, enemy->x + G_ENEMY_W + 1, enemy->y + G_ENEMY_H/2) <= 2
   0FA9 DD 6E F9      [19] 2849 	ld	l,-7 (ix)
   0FAC DD 66 FA      [19] 2850 	ld	h,-6 (ix)
   0FAF 7E            [ 7] 2851 	ld	a,(hl)
   0FB0 C6 0B         [ 7] 2852 	add	a, #0x0B
   0FB2 57            [ 4] 2853 	ld	d,a
   0FB3 DD 6E F7      [19] 2854 	ld	l,-9 (ix)
   0FB6 DD 66 F8      [19] 2855 	ld	h,-8 (ix)
   0FB9 7E            [ 7] 2856 	ld	a,(hl)
   0FBA C6 05         [ 7] 2857 	add	a, #0x05
   0FBC 47            [ 4] 2858 	ld	b,a
   0FBD D5            [11] 2859 	push	de
   0FBE 33            [ 6] 2860 	inc	sp
   0FBF C5            [11] 2861 	push	bc
   0FC0 33            [ 6] 2862 	inc	sp
   0FC1 2Ar00r00      [16] 2863 	ld	hl,(_mapa)
   0FC4 E5            [11] 2864 	push	hl
   0FC5 CDr00r00      [17] 2865 	call	_getTilePtr
   0FC8 F1            [10] 2866 	pop	af
   0FC9 F1            [10] 2867 	pop	af
   0FCA 4E            [ 7] 2868 	ld	c,(hl)
   0FCB 3E 02         [ 7] 2869 	ld	a,#0x02
   0FCD 91            [ 4] 2870 	sub	a, c
   0FCE 38 3A         [12] 2871 	jr	C,00137$
                           2872 ;src/main.c:575: && *getTilePtr(mapa, enemy->x + G_ENEMY_W + 1, enemy->y + G_ENEMY_H) <= 2) {
   0FD0 DD 6E F9      [19] 2873 	ld	l,-7 (ix)
   0FD3 DD 66 FA      [19] 2874 	ld	h,-6 (ix)
   0FD6 7E            [ 7] 2875 	ld	a,(hl)
   0FD7 C6 16         [ 7] 2876 	add	a, #0x16
   0FD9 57            [ 4] 2877 	ld	d,a
   0FDA DD 6E F7      [19] 2878 	ld	l,-9 (ix)
   0FDD DD 66 F8      [19] 2879 	ld	h,-8 (ix)
   0FE0 7E            [ 7] 2880 	ld	a,(hl)
   0FE1 C6 05         [ 7] 2881 	add	a, #0x05
   0FE3 47            [ 4] 2882 	ld	b,a
   0FE4 D5            [11] 2883 	push	de
   0FE5 33            [ 6] 2884 	inc	sp
   0FE6 C5            [11] 2885 	push	bc
   0FE7 33            [ 6] 2886 	inc	sp
   0FE8 2Ar00r00      [16] 2887 	ld	hl,(_mapa)
   0FEB E5            [11] 2888 	push	hl
   0FEC CDr00r00      [17] 2889 	call	_getTilePtr
   0FEF F1            [10] 2890 	pop	af
   0FF0 F1            [10] 2891 	pop	af
   0FF1 4E            [ 7] 2892 	ld	c,(hl)
   0FF2 3E 02         [ 7] 2893 	ld	a,#0x02
   0FF4 91            [ 4] 2894 	sub	a, c
   0FF5 38 13         [12] 2895 	jr	C,00137$
                           2896 ;src/main.c:576: moverEnemigoDerecha(enemy);
   0FF7 DD 6E F7      [19] 2897 	ld	l,-9 (ix)
   0FFA DD 66 F8      [19] 2898 	ld	h,-8 (ix)
   0FFD E5            [11] 2899 	push	hl
   0FFE CDrB6r08      [17] 2900 	call	_moverEnemigoDerecha
   1001 F1            [10] 2901 	pop	af
                           2902 ;src/main.c:577: movX = 1;
   1002 DD 36 F6 01   [19] 2903 	ld	-10 (ix),#0x01
                           2904 ;src/main.c:578: mov = 1;
   1006 DD 36 F4 01   [19] 2905 	ld	-12 (ix),#0x01
   100A                    2906 00137$:
                           2907 ;src/main.c:581: if (dy < enemy->y) {
   100A DD 6E F9      [19] 2908 	ld	l,-7 (ix)
   100D DD 66 FA      [19] 2909 	ld	h,-6 (ix)
   1010 7E            [ 7] 2910 	ld	a,(hl)
   1011 DD 77 FD      [19] 2911 	ld	-3 (ix),a
                           2912 ;src/main.c:510: u8 difx = abs(enemy->x - prota.x); // calculo distancia para mantener una dist
   1014 DD 6E F7      [19] 2913 	ld	l,-9 (ix)
   1017 DD 66 F8      [19] 2914 	ld	h,-8 (ix)
   101A 7E            [ 7] 2915 	ld	a,(hl)
   101B DD 77 FC      [19] 2916 	ld	-4 (ix),a
                           2917 ;src/main.c:581: if (dy < enemy->y) {
   101E DD 7E 07      [19] 2918 	ld	a,7 (ix)
   1021 DD 96 FD      [19] 2919 	sub	a, -3 (ix)
   1024 D2rBAr10      [10] 2920 	jp	NC,00147$
                           2921 ;src/main.c:582: if(*getTilePtr(mapa, enemy->x, enemy->y - 2) <= 2
   1027 DD 7E FD      [19] 2922 	ld	a,-3 (ix)
   102A C6 FE         [ 7] 2923 	add	a,#0xFE
   102C DD 77 FB      [19] 2924 	ld	-5 (ix), a
   102F F5            [11] 2925 	push	af
   1030 33            [ 6] 2926 	inc	sp
   1031 DD 7E FC      [19] 2927 	ld	a,-4 (ix)
   1034 F5            [11] 2928 	push	af
   1035 33            [ 6] 2929 	inc	sp
   1036 2Ar00r00      [16] 2930 	ld	hl,(_mapa)
   1039 E5            [11] 2931 	push	hl
   103A CDr00r00      [17] 2932 	call	_getTilePtr
   103D F1            [10] 2933 	pop	af
   103E F1            [10] 2934 	pop	af
   103F DD 74 FF      [19] 2935 	ld	-1 (ix),h
   1042 DD 75 FE      [19] 2936 	ld	-2 (ix), l
   1045 DD 66 FF      [19] 2937 	ld	h,-1 (ix)
   1048 4E            [ 7] 2938 	ld	c,(hl)
   1049 3E 02         [ 7] 2939 	ld	a,#0x02
   104B 91            [ 4] 2940 	sub	a, c
   104C DAr35r11      [10] 2941 	jp	C,00148$
                           2942 ;src/main.c:583: && *getTilePtr(mapa, enemy->x + G_ENEMY_W / 2, enemy->y - 2) <= 2
   104F DD 6E F9      [19] 2943 	ld	l,-7 (ix)
   1052 DD 66 FA      [19] 2944 	ld	h,-6 (ix)
   1055 7E            [ 7] 2945 	ld	a,(hl)
   1056 DD 77 FE      [19] 2946 	ld	-2 (ix), a
   1059 C6 FE         [ 7] 2947 	add	a,#0xFE
   105B DD 77 FE      [19] 2948 	ld	-2 (ix),a
   105E DD 6E F7      [19] 2949 	ld	l,-9 (ix)
   1061 DD 66 F8      [19] 2950 	ld	h,-8 (ix)
   1064 46            [ 7] 2951 	ld	b,(hl)
   1065 04            [ 4] 2952 	inc	b
   1066 04            [ 4] 2953 	inc	b
   1067 DD 7E FE      [19] 2954 	ld	a,-2 (ix)
   106A F5            [11] 2955 	push	af
   106B 33            [ 6] 2956 	inc	sp
   106C C5            [11] 2957 	push	bc
   106D 33            [ 6] 2958 	inc	sp
   106E 2Ar00r00      [16] 2959 	ld	hl,(_mapa)
   1071 E5            [11] 2960 	push	hl
   1072 CDr00r00      [17] 2961 	call	_getTilePtr
   1075 F1            [10] 2962 	pop	af
   1076 F1            [10] 2963 	pop	af
   1077 4E            [ 7] 2964 	ld	c,(hl)
   1078 3E 02         [ 7] 2965 	ld	a,#0x02
   107A 91            [ 4] 2966 	sub	a, c
   107B DAr35r11      [10] 2967 	jp	C,00148$
                           2968 ;src/main.c:584: && *getTilePtr(mapa, enemy->x + G_ENEMY_W, enemy->y - 2) <= 2) {
   107E DD 6E F9      [19] 2969 	ld	l,-7 (ix)
   1081 DD 66 FA      [19] 2970 	ld	h,-6 (ix)
   1084 46            [ 7] 2971 	ld	b,(hl)
   1085 05            [ 4] 2972 	dec	b
   1086 05            [ 4] 2973 	dec	b
   1087 DD 6E F7      [19] 2974 	ld	l,-9 (ix)
   108A DD 66 F8      [19] 2975 	ld	h,-8 (ix)
   108D 7E            [ 7] 2976 	ld	a,(hl)
   108E C6 04         [ 7] 2977 	add	a, #0x04
   1090 C5            [11] 2978 	push	bc
   1091 33            [ 6] 2979 	inc	sp
   1092 F5            [11] 2980 	push	af
   1093 33            [ 6] 2981 	inc	sp
   1094 2Ar00r00      [16] 2982 	ld	hl,(_mapa)
   1097 E5            [11] 2983 	push	hl
   1098 CDr00r00      [17] 2984 	call	_getTilePtr
   109B F1            [10] 2985 	pop	af
   109C F1            [10] 2986 	pop	af
   109D 4E            [ 7] 2987 	ld	c,(hl)
   109E 3E 02         [ 7] 2988 	ld	a,#0x02
   10A0 91            [ 4] 2989 	sub	a, c
   10A1 DAr35r11      [10] 2990 	jp	C,00148$
                           2991 ;src/main.c:585: moverEnemigoArriba(enemy);
   10A4 DD 6E F7      [19] 2992 	ld	l,-9 (ix)
   10A7 DD 66 F8      [19] 2993 	ld	h,-8 (ix)
   10AA E5            [11] 2994 	push	hl
   10AB CDr78r08      [17] 2995 	call	_moverEnemigoArriba
   10AE F1            [10] 2996 	pop	af
                           2997 ;src/main.c:586: movY = 1;
   10AF DD 36 F5 01   [19] 2998 	ld	-11 (ix),#0x01
                           2999 ;src/main.c:587: mov = 1;
   10B3 DD 36 F4 01   [19] 3000 	ld	-12 (ix),#0x01
   10B7 C3r35r11      [10] 3001 	jp	00148$
   10BA                    3002 00147$:
                           3003 ;src/main.c:590: if(*getTilePtr(mapa, enemy->x, enemy->y + G_ENEMY_H + 2) <= 2
   10BA DD 7E FD      [19] 3004 	ld	a,-3 (ix)
   10BD C6 18         [ 7] 3005 	add	a, #0x18
   10BF 47            [ 4] 3006 	ld	b,a
   10C0 C5            [11] 3007 	push	bc
   10C1 33            [ 6] 3008 	inc	sp
   10C2 DD 7E FC      [19] 3009 	ld	a,-4 (ix)
   10C5 F5            [11] 3010 	push	af
   10C6 33            [ 6] 3011 	inc	sp
   10C7 2Ar00r00      [16] 3012 	ld	hl,(_mapa)
   10CA E5            [11] 3013 	push	hl
   10CB CDr00r00      [17] 3014 	call	_getTilePtr
   10CE F1            [10] 3015 	pop	af
   10CF F1            [10] 3016 	pop	af
   10D0 4E            [ 7] 3017 	ld	c,(hl)
   10D1 3E 02         [ 7] 3018 	ld	a,#0x02
   10D3 91            [ 4] 3019 	sub	a, c
   10D4 38 5F         [12] 3020 	jr	C,00148$
                           3021 ;src/main.c:591: && *getTilePtr(mapa, enemy->x + G_ENEMY_W / 2, enemy->y + G_ENEMY_H + 2) <= 2
   10D6 DD 6E F9      [19] 3022 	ld	l,-7 (ix)
   10D9 DD 66 FA      [19] 3023 	ld	h,-6 (ix)
   10DC 7E            [ 7] 3024 	ld	a,(hl)
   10DD C6 18         [ 7] 3025 	add	a, #0x18
   10DF 57            [ 4] 3026 	ld	d,a
   10E0 DD 6E F7      [19] 3027 	ld	l,-9 (ix)
   10E3 DD 66 F8      [19] 3028 	ld	h,-8 (ix)
   10E6 46            [ 7] 3029 	ld	b,(hl)
   10E7 04            [ 4] 3030 	inc	b
   10E8 04            [ 4] 3031 	inc	b
   10E9 D5            [11] 3032 	push	de
   10EA 33            [ 6] 3033 	inc	sp
   10EB C5            [11] 3034 	push	bc
   10EC 33            [ 6] 3035 	inc	sp
   10ED 2Ar00r00      [16] 3036 	ld	hl,(_mapa)
   10F0 E5            [11] 3037 	push	hl
   10F1 CDr00r00      [17] 3038 	call	_getTilePtr
   10F4 F1            [10] 3039 	pop	af
   10F5 F1            [10] 3040 	pop	af
   10F6 4E            [ 7] 3041 	ld	c,(hl)
   10F7 3E 02         [ 7] 3042 	ld	a,#0x02
   10F9 91            [ 4] 3043 	sub	a, c
   10FA 38 39         [12] 3044 	jr	C,00148$
                           3045 ;src/main.c:592: && *getTilePtr(mapa, enemy->x + G_ENEMY_W, enemy->y + G_ENEMY_H + 2) <= 2) {
   10FC DD 6E F9      [19] 3046 	ld	l,-7 (ix)
   10FF DD 66 FA      [19] 3047 	ld	h,-6 (ix)
   1102 7E            [ 7] 3048 	ld	a,(hl)
   1103 C6 18         [ 7] 3049 	add	a, #0x18
   1105 47            [ 4] 3050 	ld	b,a
   1106 DD 6E F7      [19] 3051 	ld	l,-9 (ix)
   1109 DD 66 F8      [19] 3052 	ld	h,-8 (ix)
   110C 7E            [ 7] 3053 	ld	a,(hl)
   110D C6 04         [ 7] 3054 	add	a, #0x04
   110F C5            [11] 3055 	push	bc
   1110 33            [ 6] 3056 	inc	sp
   1111 F5            [11] 3057 	push	af
   1112 33            [ 6] 3058 	inc	sp
   1113 2Ar00r00      [16] 3059 	ld	hl,(_mapa)
   1116 E5            [11] 3060 	push	hl
   1117 CDr00r00      [17] 3061 	call	_getTilePtr
   111A F1            [10] 3062 	pop	af
   111B F1            [10] 3063 	pop	af
   111C 4E            [ 7] 3064 	ld	c,(hl)
   111D 3E 02         [ 7] 3065 	ld	a,#0x02
   111F 91            [ 4] 3066 	sub	a, c
   1120 38 13         [12] 3067 	jr	C,00148$
                           3068 ;src/main.c:593: moverEnemigoAbajo(enemy);
   1122 DD 6E F7      [19] 3069 	ld	l,-9 (ix)
   1125 DD 66 F8      [19] 3070 	ld	h,-8 (ix)
   1128 E5            [11] 3071 	push	hl
   1129 CDr97r08      [17] 3072 	call	_moverEnemigoAbajo
   112C F1            [10] 3073 	pop	af
                           3074 ;src/main.c:594: movY = 1;
   112D DD 36 F5 01   [19] 3075 	ld	-11 (ix),#0x01
                           3076 ;src/main.c:595: mov = 1;
   1131 DD 36 F4 01   [19] 3077 	ld	-12 (ix),#0x01
   1135                    3078 00148$:
                           3079 ;src/main.c:598: if (!mov) {
   1135 DD 7E F4      [19] 3080 	ld	a,-12 (ix)
   1138 B7            [ 4] 3081 	or	a, a
   1139 C2r57r13      [10] 3082 	jp	NZ,00189$
                           3083 ;src/main.c:599: if (!movX) {
   113C DD 7E F6      [19] 3084 	ld	a,-10 (ix)
   113F B7            [ 4] 3085 	or	a, a
   1140 C2r47r12      [10] 3086 	jp	NZ,00163$
                           3087 ;src/main.c:600: if (enemy->y > (ORIGEN_MAPA_Y + ALTO_MAPA/2)) {
   1143 DD 6E F9      [19] 3088 	ld	l,-7 (ix)
   1146 DD 66 FA      [19] 3089 	ld	h,-6 (ix)
   1149 5E            [ 7] 3090 	ld	e,(hl)
                           3091 ;src/main.c:510: u8 difx = abs(enemy->x - prota.x); // calculo distancia para mantener una dist
   114A DD 6E F7      [19] 3092 	ld	l,-9 (ix)
   114D DD 66 F8      [19] 3093 	ld	h,-8 (ix)
   1150 4E            [ 7] 3094 	ld	c,(hl)
                           3095 ;src/main.c:600: if (enemy->y > (ORIGEN_MAPA_Y + ALTO_MAPA/2)) {
   1151 3E 70         [ 7] 3096 	ld	a,#0x70
   1153 93            [ 4] 3097 	sub	a, e
   1154 30 7C         [12] 3098 	jr	NC,00160$
                           3099 ;src/main.c:601: if(*getTilePtr(mapa, enemy->x, enemy->y + G_ENEMY_H + 2) <= 2
   1156 7B            [ 4] 3100 	ld	a,e
   1157 C6 18         [ 7] 3101 	add	a, #0x18
   1159 47            [ 4] 3102 	ld	b,a
   115A C5            [11] 3103 	push	bc
   115B 2Ar00r00      [16] 3104 	ld	hl,(_mapa)
   115E E5            [11] 3105 	push	hl
   115F CDr00r00      [17] 3106 	call	_getTilePtr
   1162 F1            [10] 3107 	pop	af
   1163 F1            [10] 3108 	pop	af
   1164 4E            [ 7] 3109 	ld	c,(hl)
   1165 3E 02         [ 7] 3110 	ld	a,#0x02
   1167 91            [ 4] 3111 	sub	a, c
   1168 38 5B         [12] 3112 	jr	C,00150$
                           3113 ;src/main.c:602: && *getTilePtr(mapa, enemy->x + G_ENEMY_W / 2, enemy->y + G_ENEMY_H + 2) <= 2
   116A DD 6E F9      [19] 3114 	ld	l,-7 (ix)
   116D DD 66 FA      [19] 3115 	ld	h,-6 (ix)
   1170 7E            [ 7] 3116 	ld	a,(hl)
   1171 C6 18         [ 7] 3117 	add	a, #0x18
   1173 57            [ 4] 3118 	ld	d,a
   1174 DD 6E F7      [19] 3119 	ld	l,-9 (ix)
   1177 DD 66 F8      [19] 3120 	ld	h,-8 (ix)
   117A 4E            [ 7] 3121 	ld	c,(hl)
   117B 41            [ 4] 3122 	ld	b,c
   117C 04            [ 4] 3123 	inc	b
   117D 04            [ 4] 3124 	inc	b
   117E D5            [11] 3125 	push	de
   117F 33            [ 6] 3126 	inc	sp
   1180 C5            [11] 3127 	push	bc
   1181 33            [ 6] 3128 	inc	sp
   1182 2Ar00r00      [16] 3129 	ld	hl,(_mapa)
   1185 E5            [11] 3130 	push	hl
   1186 CDr00r00      [17] 3131 	call	_getTilePtr
   1189 F1            [10] 3132 	pop	af
   118A F1            [10] 3133 	pop	af
   118B 4E            [ 7] 3134 	ld	c,(hl)
   118C 3E 02         [ 7] 3135 	ld	a,#0x02
   118E 91            [ 4] 3136 	sub	a, c
   118F 38 34         [12] 3137 	jr	C,00150$
                           3138 ;src/main.c:603: && *getTilePtr(mapa, enemy->x + G_ENEMY_W, enemy->y + G_ENEMY_H + 2) <= 2)
   1191 DD 6E F9      [19] 3139 	ld	l,-7 (ix)
   1194 DD 66 FA      [19] 3140 	ld	h,-6 (ix)
   1197 7E            [ 7] 3141 	ld	a,(hl)
   1198 C6 18         [ 7] 3142 	add	a, #0x18
   119A 47            [ 4] 3143 	ld	b,a
   119B DD 6E F7      [19] 3144 	ld	l,-9 (ix)
   119E DD 66 F8      [19] 3145 	ld	h,-8 (ix)
   11A1 7E            [ 7] 3146 	ld	a,(hl)
   11A2 C6 04         [ 7] 3147 	add	a, #0x04
   11A4 C5            [11] 3148 	push	bc
   11A5 33            [ 6] 3149 	inc	sp
   11A6 F5            [11] 3150 	push	af
   11A7 33            [ 6] 3151 	inc	sp
   11A8 2Ar00r00      [16] 3152 	ld	hl,(_mapa)
   11AB E5            [11] 3153 	push	hl
   11AC CDr00r00      [17] 3154 	call	_getTilePtr
   11AF F1            [10] 3155 	pop	af
   11B0 F1            [10] 3156 	pop	af
   11B1 4E            [ 7] 3157 	ld	c,(hl)
   11B2 3E 02         [ 7] 3158 	ld	a,#0x02
   11B4 91            [ 4] 3159 	sub	a, c
   11B5 38 0E         [12] 3160 	jr	C,00150$
                           3161 ;src/main.c:604: moverEnemigoAbajo(enemy);
   11B7 DD 6E F7      [19] 3162 	ld	l,-9 (ix)
   11BA DD 66 F8      [19] 3163 	ld	h,-8 (ix)
   11BD E5            [11] 3164 	push	hl
   11BE CDr97r08      [17] 3165 	call	_moverEnemigoAbajo
   11C1 F1            [10] 3166 	pop	af
   11C2 C3r47r12      [10] 3167 	jp	00163$
   11C5                    3168 00150$:
                           3169 ;src/main.c:606: moverEnemigoArriba(enemy);
   11C5 DD 6E F7      [19] 3170 	ld	l,-9 (ix)
   11C8 DD 66 F8      [19] 3171 	ld	h,-8 (ix)
   11CB E5            [11] 3172 	push	hl
   11CC CDr78r08      [17] 3173 	call	_moverEnemigoArriba
   11CF F1            [10] 3174 	pop	af
   11D0 18 75         [12] 3175 	jr	00163$
   11D2                    3176 00160$:
                           3177 ;src/main.c:608: if(*getTilePtr(mapa, enemy->x, enemy->y - 2) <= 2
   11D2 43            [ 4] 3178 	ld	b,e
   11D3 05            [ 4] 3179 	dec	b
   11D4 05            [ 4] 3180 	dec	b
   11D5 C5            [11] 3181 	push	bc
   11D6 2Ar00r00      [16] 3182 	ld	hl,(_mapa)
   11D9 E5            [11] 3183 	push	hl
   11DA CDr00r00      [17] 3184 	call	_getTilePtr
   11DD F1            [10] 3185 	pop	af
   11DE F1            [10] 3186 	pop	af
   11DF 4E            [ 7] 3187 	ld	c,(hl)
   11E0 3E 02         [ 7] 3188 	ld	a,#0x02
   11E2 91            [ 4] 3189 	sub	a, c
   11E3 38 57         [12] 3190 	jr	C,00155$
                           3191 ;src/main.c:609: && *getTilePtr(mapa, enemy->x + G_ENEMY_W / 2, enemy->y - 2) <= 2
   11E5 DD 6E F9      [19] 3192 	ld	l,-7 (ix)
   11E8 DD 66 FA      [19] 3193 	ld	h,-6 (ix)
   11EB 56            [ 7] 3194 	ld	d,(hl)
   11EC 15            [ 4] 3195 	dec	d
   11ED 15            [ 4] 3196 	dec	d
   11EE DD 6E F7      [19] 3197 	ld	l,-9 (ix)
   11F1 DD 66 F8      [19] 3198 	ld	h,-8 (ix)
   11F4 46            [ 7] 3199 	ld	b,(hl)
   11F5 04            [ 4] 3200 	inc	b
   11F6 04            [ 4] 3201 	inc	b
   11F7 D5            [11] 3202 	push	de
   11F8 33            [ 6] 3203 	inc	sp
   11F9 C5            [11] 3204 	push	bc
   11FA 33            [ 6] 3205 	inc	sp
   11FB 2Ar00r00      [16] 3206 	ld	hl,(_mapa)
   11FE E5            [11] 3207 	push	hl
   11FF CDr00r00      [17] 3208 	call	_getTilePtr
   1202 F1            [10] 3209 	pop	af
   1203 F1            [10] 3210 	pop	af
   1204 4E            [ 7] 3211 	ld	c,(hl)
   1205 3E 02         [ 7] 3212 	ld	a,#0x02
   1207 91            [ 4] 3213 	sub	a, c
   1208 38 32         [12] 3214 	jr	C,00155$
                           3215 ;src/main.c:610: && *getTilePtr(mapa, enemy->x + G_ENEMY_W, enemy->y - 2) <= 2)
   120A DD 6E F9      [19] 3216 	ld	l,-7 (ix)
   120D DD 66 FA      [19] 3217 	ld	h,-6 (ix)
   1210 46            [ 7] 3218 	ld	b,(hl)
   1211 05            [ 4] 3219 	dec	b
   1212 05            [ 4] 3220 	dec	b
   1213 DD 6E F7      [19] 3221 	ld	l,-9 (ix)
   1216 DD 66 F8      [19] 3222 	ld	h,-8 (ix)
   1219 7E            [ 7] 3223 	ld	a,(hl)
   121A C6 04         [ 7] 3224 	add	a, #0x04
   121C C5            [11] 3225 	push	bc
   121D 33            [ 6] 3226 	inc	sp
   121E F5            [11] 3227 	push	af
   121F 33            [ 6] 3228 	inc	sp
   1220 2Ar00r00      [16] 3229 	ld	hl,(_mapa)
   1223 E5            [11] 3230 	push	hl
   1224 CDr00r00      [17] 3231 	call	_getTilePtr
   1227 F1            [10] 3232 	pop	af
   1228 F1            [10] 3233 	pop	af
   1229 4E            [ 7] 3234 	ld	c,(hl)
   122A 3E 02         [ 7] 3235 	ld	a,#0x02
   122C 91            [ 4] 3236 	sub	a, c
   122D 38 0D         [12] 3237 	jr	C,00155$
                           3238 ;src/main.c:611: moverEnemigoArriba(enemy);
   122F DD 6E F7      [19] 3239 	ld	l,-9 (ix)
   1232 DD 66 F8      [19] 3240 	ld	h,-8 (ix)
   1235 E5            [11] 3241 	push	hl
   1236 CDr78r08      [17] 3242 	call	_moverEnemigoArriba
   1239 F1            [10] 3243 	pop	af
   123A 18 0B         [12] 3244 	jr	00163$
   123C                    3245 00155$:
                           3246 ;src/main.c:613: moverEnemigoAbajo(enemy);
   123C DD 6E F7      [19] 3247 	ld	l,-9 (ix)
   123F DD 66 F8      [19] 3248 	ld	h,-8 (ix)
   1242 E5            [11] 3249 	push	hl
   1243 CDr97r08      [17] 3250 	call	_moverEnemigoAbajo
   1246 F1            [10] 3251 	pop	af
   1247                    3252 00163$:
                           3253 ;src/main.c:617: if (!movY) {
   1247 DD 7E F5      [19] 3254 	ld	a,-11 (ix)
   124A B7            [ 4] 3255 	or	a, a
   124B C2r57r13      [10] 3256 	jp	NZ,00189$
                           3257 ;src/main.c:618: if (enemy->x < ANCHO_PANTALLA/2) {
   124E DD 6E F7      [19] 3258 	ld	l,-9 (ix)
   1251 DD 66 F8      [19] 3259 	ld	h,-8 (ix)
   1254 4E            [ 7] 3260 	ld	c,(hl)
                           3261 ;src/main.c:511: u8 dify = abs(enemy->y - prota.y);
   1255 DD 6E F9      [19] 3262 	ld	l,-7 (ix)
   1258 DD 66 FA      [19] 3263 	ld	h,-6 (ix)
   125B 5E            [ 7] 3264 	ld	e,(hl)
                           3265 ;src/main.c:618: if (enemy->x < ANCHO_PANTALLA/2) {
   125C 79            [ 4] 3266 	ld	a,c
   125D D6 28         [ 7] 3267 	sub	a, #0x28
   125F D2rDFr12      [10] 3268 	jp	NC,00175$
                           3269 ;src/main.c:619: if(*getTilePtr(mapa, enemy->x - 1, enemy->y) <= 2
   1262 41            [ 4] 3270 	ld	b,c
   1263 05            [ 4] 3271 	dec	b
   1264 7B            [ 4] 3272 	ld	a,e
   1265 F5            [11] 3273 	push	af
   1266 33            [ 6] 3274 	inc	sp
   1267 C5            [11] 3275 	push	bc
   1268 33            [ 6] 3276 	inc	sp
   1269 2Ar00r00      [16] 3277 	ld	hl,(_mapa)
   126C E5            [11] 3278 	push	hl
   126D CDr00r00      [17] 3279 	call	_getTilePtr
   1270 F1            [10] 3280 	pop	af
   1271 F1            [10] 3281 	pop	af
   1272 4E            [ 7] 3282 	ld	c,(hl)
   1273 3E 02         [ 7] 3283 	ld	a,#0x02
   1275 91            [ 4] 3284 	sub	a, c
   1276 38 5A         [12] 3285 	jr	C,00165$
                           3286 ;src/main.c:620: && *getTilePtr(mapa, enemy->x - 1, enemy->y + G_ENEMY_H/2) <= 2
   1278 DD 6E F9      [19] 3287 	ld	l,-7 (ix)
   127B DD 66 FA      [19] 3288 	ld	h,-6 (ix)
   127E 7E            [ 7] 3289 	ld	a,(hl)
   127F C6 0B         [ 7] 3290 	add	a, #0x0B
   1281 4F            [ 4] 3291 	ld	c,a
   1282 DD 6E F7      [19] 3292 	ld	l,-9 (ix)
   1285 DD 66 F8      [19] 3293 	ld	h,-8 (ix)
   1288 46            [ 7] 3294 	ld	b,(hl)
   1289 05            [ 4] 3295 	dec	b
   128A 79            [ 4] 3296 	ld	a,c
   128B F5            [11] 3297 	push	af
   128C 33            [ 6] 3298 	inc	sp
   128D C5            [11] 3299 	push	bc
   128E 33            [ 6] 3300 	inc	sp
   128F 2Ar00r00      [16] 3301 	ld	hl,(_mapa)
   1292 E5            [11] 3302 	push	hl
   1293 CDr00r00      [17] 3303 	call	_getTilePtr
   1296 F1            [10] 3304 	pop	af
   1297 F1            [10] 3305 	pop	af
   1298 4E            [ 7] 3306 	ld	c,(hl)
   1299 3E 02         [ 7] 3307 	ld	a,#0x02
   129B 91            [ 4] 3308 	sub	a, c
   129C 38 34         [12] 3309 	jr	C,00165$
                           3310 ;src/main.c:621: && *getTilePtr(mapa, enemy->x - 1, enemy->y + G_ENEMY_H) <= 2) {
   129E DD 6E F9      [19] 3311 	ld	l,-7 (ix)
   12A1 DD 66 FA      [19] 3312 	ld	h,-6 (ix)
   12A4 7E            [ 7] 3313 	ld	a,(hl)
   12A5 C6 16         [ 7] 3314 	add	a, #0x16
   12A7 4F            [ 4] 3315 	ld	c,a
   12A8 DD 6E F7      [19] 3316 	ld	l,-9 (ix)
   12AB DD 66 F8      [19] 3317 	ld	h,-8 (ix)
   12AE 46            [ 7] 3318 	ld	b,(hl)
   12AF 05            [ 4] 3319 	dec	b
   12B0 79            [ 4] 3320 	ld	a,c
   12B1 F5            [11] 3321 	push	af
   12B2 33            [ 6] 3322 	inc	sp
   12B3 C5            [11] 3323 	push	bc
   12B4 33            [ 6] 3324 	inc	sp
   12B5 2Ar00r00      [16] 3325 	ld	hl,(_mapa)
   12B8 E5            [11] 3326 	push	hl
   12B9 CDr00r00      [17] 3327 	call	_getTilePtr
   12BC F1            [10] 3328 	pop	af
   12BD F1            [10] 3329 	pop	af
   12BE 4E            [ 7] 3330 	ld	c,(hl)
   12BF 3E 02         [ 7] 3331 	ld	a,#0x02
   12C1 91            [ 4] 3332 	sub	a, c
   12C2 38 0E         [12] 3333 	jr	C,00165$
                           3334 ;src/main.c:622: moverEnemigoIzquierda(enemy);
   12C4 DD 6E F7      [19] 3335 	ld	l,-9 (ix)
   12C7 DD 66 F8      [19] 3336 	ld	h,-8 (ix)
   12CA E5            [11] 3337 	push	hl
   12CB CDrC6r08      [17] 3338 	call	_moverEnemigoIzquierda
   12CE F1            [10] 3339 	pop	af
   12CF C3r57r13      [10] 3340 	jp	00189$
   12D2                    3341 00165$:
                           3342 ;src/main.c:624: moverEnemigoDerecha(enemy);
   12D2 DD 6E F7      [19] 3343 	ld	l,-9 (ix)
   12D5 DD 66 F8      [19] 3344 	ld	h,-8 (ix)
   12D8 E5            [11] 3345 	push	hl
   12D9 CDrB6r08      [17] 3346 	call	_moverEnemigoDerecha
   12DC F1            [10] 3347 	pop	af
   12DD 18 78         [12] 3348 	jr	00189$
   12DF                    3349 00175$:
                           3350 ;src/main.c:627: if(*getTilePtr(mapa, enemy->x + G_ENEMY_W + 1, enemy->y) <= 2
   12DF 79            [ 4] 3351 	ld	a,c
   12E0 C6 05         [ 7] 3352 	add	a, #0x05
   12E2 47            [ 4] 3353 	ld	b,a
   12E3 7B            [ 4] 3354 	ld	a,e
   12E4 F5            [11] 3355 	push	af
   12E5 33            [ 6] 3356 	inc	sp
   12E6 C5            [11] 3357 	push	bc
   12E7 33            [ 6] 3358 	inc	sp
   12E8 2Ar00r00      [16] 3359 	ld	hl,(_mapa)
   12EB E5            [11] 3360 	push	hl
   12EC CDr00r00      [17] 3361 	call	_getTilePtr
   12EF F1            [10] 3362 	pop	af
   12F0 F1            [10] 3363 	pop	af
   12F1 4E            [ 7] 3364 	ld	c,(hl)
   12F2 3E 02         [ 7] 3365 	ld	a,#0x02
   12F4 91            [ 4] 3366 	sub	a, c
   12F5 38 55         [12] 3367 	jr	C,00170$
                           3368 ;src/main.c:628: && *getTilePtr(mapa, enemy->x + G_ENEMY_W + 1, enemy->y + G_ENEMY_H/2) <= 2
   12F7 DD 6E F9      [19] 3369 	ld	l,-7 (ix)
   12FA DD 66 FA      [19] 3370 	ld	h,-6 (ix)
   12FD 7E            [ 7] 3371 	ld	a,(hl)
   12FE C6 0B         [ 7] 3372 	add	a, #0x0B
   1300 47            [ 4] 3373 	ld	b,a
   1301 DD 6E F7      [19] 3374 	ld	l,-9 (ix)
   1304 DD 66 F8      [19] 3375 	ld	h,-8 (ix)
   1307 7E            [ 7] 3376 	ld	a,(hl)
   1308 C6 05         [ 7] 3377 	add	a, #0x05
   130A 4F            [ 4] 3378 	ld	c,a
   130B C5            [11] 3379 	push	bc
   130C 2Ar00r00      [16] 3380 	ld	hl,(_mapa)
   130F E5            [11] 3381 	push	hl
   1310 CDr00r00      [17] 3382 	call	_getTilePtr
   1313 F1            [10] 3383 	pop	af
   1314 F1            [10] 3384 	pop	af
   1315 4E            [ 7] 3385 	ld	c,(hl)
   1316 3E 02         [ 7] 3386 	ld	a,#0x02
   1318 91            [ 4] 3387 	sub	a, c
   1319 38 31         [12] 3388 	jr	C,00170$
                           3389 ;src/main.c:629: && *getTilePtr(mapa, enemy->x + G_ENEMY_W + 1, enemy->y + G_ENEMY_H) <= 2) {
   131B DD 6E F9      [19] 3390 	ld	l,-7 (ix)
   131E DD 66 FA      [19] 3391 	ld	h,-6 (ix)
   1321 7E            [ 7] 3392 	ld	a,(hl)
   1322 C6 16         [ 7] 3393 	add	a, #0x16
   1324 47            [ 4] 3394 	ld	b,a
   1325 DD 6E F7      [19] 3395 	ld	l,-9 (ix)
   1328 DD 66 F8      [19] 3396 	ld	h,-8 (ix)
   132B 7E            [ 7] 3397 	ld	a,(hl)
   132C C6 05         [ 7] 3398 	add	a, #0x05
   132E 4F            [ 4] 3399 	ld	c,a
   132F C5            [11] 3400 	push	bc
   1330 2Ar00r00      [16] 3401 	ld	hl,(_mapa)
   1333 E5            [11] 3402 	push	hl
   1334 CDr00r00      [17] 3403 	call	_getTilePtr
   1337 F1            [10] 3404 	pop	af
   1338 F1            [10] 3405 	pop	af
   1339 4E            [ 7] 3406 	ld	c,(hl)
   133A 3E 02         [ 7] 3407 	ld	a,#0x02
   133C 91            [ 4] 3408 	sub	a, c
   133D 38 0D         [12] 3409 	jr	C,00170$
                           3410 ;src/main.c:630: moverEnemigoDerecha(enemy);
   133F DD 6E F7      [19] 3411 	ld	l,-9 (ix)
   1342 DD 66 F8      [19] 3412 	ld	h,-8 (ix)
   1345 E5            [11] 3413 	push	hl
   1346 CDrB6r08      [17] 3414 	call	_moverEnemigoDerecha
   1349 F1            [10] 3415 	pop	af
   134A 18 0B         [12] 3416 	jr	00189$
   134C                    3417 00170$:
                           3418 ;src/main.c:633: moverEnemigoIzquierda(enemy);
   134C DD 6E F7      [19] 3419 	ld	l,-9 (ix)
   134F DD 66 F8      [19] 3420 	ld	h,-8 (ix)
   1352 E5            [11] 3421 	push	hl
   1353 CDrC6r08      [17] 3422 	call	_moverEnemigoIzquierda
   1356 F1            [10] 3423 	pop	af
   1357                    3424 00189$:
   1357 DD F9         [10] 3425 	ld	sp, ix
   1359 DD E1         [14] 3426 	pop	ix
   135B C9            [10] 3427 	ret
                           3428 ;src/main.c:642: void updateEnemies() { // maquina de estados
                           3429 ;	---------------------------------
                           3430 ; Function updateEnemies
                           3431 ; ---------------------------------
   135C                    3432 _updateEnemies::
   135C DD E5         [15] 3433 	push	ix
   135E DD 21 00 00   [14] 3434 	ld	ix,#0
   1362 DD 39         [15] 3435 	add	ix,sp
   1364 F5            [11] 3436 	push	af
   1365 F5            [11] 3437 	push	af
                           3438 ;src/main.c:643: u8 i = (2 + num_mapa) + 1;
   1366 3Ar02r00      [13] 3439 	ld	a,(#_num_mapa + 0)
   1369 C6 03         [ 7] 3440 	add	a, #0x03
   136B DD 77 FC      [19] 3441 	ld	-4 (ix),a
                           3442 ;src/main.c:647: actual = enemy;
                           3443 ;src/main.c:649: while (--i) {
   136E DD 36 FEr00   [19] 3444 	ld	-2 (ix),#<(_enemy)
   1372 DD 36 FFs00   [19] 3445 	ld	-1 (ix),#>(_enemy)
   1376                    3446 00123$:
   1376 DD 35 FC      [23] 3447 	dec	-4 (ix)
   1379 DD 4E FC      [19] 3448 	ld	c, -4 (ix)
   137C 79            [ 4] 3449 	ld	a,c
   137D B7            [ 4] 3450 	or	a, a
   137E CAr8Dr14      [10] 3451 	jp	Z,00126$
                           3452 ;src/main.c:650: if (actual->engage) { // prioridad a la persecucion, nunca te deja
   1381 3Ar16r00      [13] 3453 	ld	a, (#(_enemy + 0x0016) + 0)
   1384 B7            [ 4] 3454 	or	a, a
   1385 28 1C         [12] 3455 	jr	Z,00121$
                           3456 ;src/main.c:651: engage(actual, prota.x, prota.y);
   1387 3Ar19r05      [13] 3457 	ld	a,(#(_prota + 0x0001) + 0)
   138A DD 77 FD      [19] 3458 	ld	-3 (ix),a
   138D 21r18r05      [10] 3459 	ld	hl, #_prota + 0
   1390 46            [ 7] 3460 	ld	b,(hl)
   1391 DD 7E FD      [19] 3461 	ld	a,-3 (ix)
   1394 F5            [11] 3462 	push	af
   1395 33            [ 6] 3463 	inc	sp
   1396 C5            [11] 3464 	push	bc
   1397 33            [ 6] 3465 	inc	sp
   1398 21r00r00      [10] 3466 	ld	hl,#_enemy
   139B E5            [11] 3467 	push	hl
   139C CDr66r0C      [17] 3468 	call	_engage
   139F F1            [10] 3469 	pop	af
   13A0 F1            [10] 3470 	pop	af
   13A1 18 D3         [12] 3471 	jr	00123$
   13A3                    3472 00121$:
                           3473 ;src/main.c:653: lookFor(actual); // actualiza si el enemigo tiene el prota al alcance o lo ha visto
   13A3 21r00r00      [10] 3474 	ld	hl,#_enemy
   13A6 E5            [11] 3475 	push	hl
   13A7 CDr58r0A      [17] 3476 	call	_lookFor
   13AA F1            [10] 3477 	pop	af
                           3478 ;src/main.c:654: if (actual->patrolling) { // esta patrullando
   13AB 3Ar0Br00      [13] 3479 	ld	a, (#(_enemy + 0x000b) + 0)
   13AE B7            [ 4] 3480 	or	a, a
   13AF CAr4Cr14      [10] 3481 	jp	Z,00118$
                           3482 ;src/main.c:655: if (!actual->seen && !actual->inRange) {
   13B2 21r12r00      [10] 3483 	ld	hl, #(_enemy + 0x0012) + 0
   13B5 4E            [ 7] 3484 	ld	c,(hl)
   13B6 79            [ 4] 3485 	ld	a,c
   13B7 B7            [ 4] 3486 	or	a, a
   13B8 20 10         [12] 3487 	jr	NZ,00107$
   13BA 3Ar11r00      [13] 3488 	ld	a, (#(_enemy + 0x0011) + 0)
   13BD B7            [ 4] 3489 	or	a, a
   13BE 20 0A         [12] 3490 	jr	NZ,00107$
                           3491 ;src/main.c:656: patrol(actual);
   13C0 21r00r00      [10] 3492 	ld	hl,#_enemy
   13C3 E5            [11] 3493 	push	hl
   13C4 CDr4Ar0C      [17] 3494 	call	_patrol
   13C7 F1            [10] 3495 	pop	af
   13C8 18 AC         [12] 3496 	jr	00123$
   13CA                    3497 00107$:
                           3498 ;src/main.c:657: }else if (actual->inRange) {
                           3499 ;src/main.c:660: actual->onPathPatrol = 0;
                           3500 ;src/main.c:657: }else if (actual->inRange) {
   13CA 3Ar11r00      [13] 3501 	ld	a,(#(_enemy + 0x0011) + 0)
   13CD B7            [ 4] 3502 	or	a, a
   13CE 28 24         [12] 3503 	jr	Z,00104$
                           3504 ;src/main.c:658: engage(actual, prota.x, prota.y);
   13D0 21r19r05      [10] 3505 	ld	hl, #(_prota + 0x0001) + 0
   13D3 46            [ 7] 3506 	ld	b,(hl)
   13D4 21r18r05      [10] 3507 	ld	hl, #_prota + 0
   13D7 4E            [ 7] 3508 	ld	c, (hl)
   13D8 C5            [11] 3509 	push	bc
   13D9 21r00r00      [10] 3510 	ld	hl,#_enemy
   13DC E5            [11] 3511 	push	hl
   13DD CDr66r0C      [17] 3512 	call	_engage
   13E0 F1            [10] 3513 	pop	af
   13E1 F1            [10] 3514 	pop	af
                           3515 ;src/main.c:659: actual->patrolling = 0;
   13E2 21r0Br00      [10] 3516 	ld	hl,#(_enemy + 0x000b)
   13E5 36 00         [10] 3517 	ld	(hl),#0x00
                           3518 ;src/main.c:660: actual->onPathPatrol = 0;
   13E7 21r0Cr00      [10] 3519 	ld	hl,#(_enemy + 0x000c)
   13EA 36 00         [10] 3520 	ld	(hl),#0x00
                           3521 ;src/main.c:661: actual->engage = 1;
   13EC 21r16r00      [10] 3522 	ld	hl,#(_enemy + 0x0016)
   13EF 36 01         [10] 3523 	ld	(hl),#0x01
   13F1 C3r76r13      [10] 3524 	jp	00123$
   13F4                    3525 00104$:
                           3526 ;src/main.c:662: } else if (actual->seen) {
   13F4 79            [ 4] 3527 	ld	a,c
   13F5 B7            [ 4] 3528 	or	a, a
   13F6 CAr76r13      [10] 3529 	jp	Z,00123$
                           3530 ;src/main.c:663: pathFinding(actual->x, actual->y, prota.x, prota.y, actual, mapa);
   13F9 21r19r05      [10] 3531 	ld	hl, #(_prota + 0x0001) + 0
   13FC 46            [ 7] 3532 	ld	b,(hl)
   13FD 21r18r05      [10] 3533 	ld	hl, #_prota + 0
   1400 4E            [ 7] 3534 	ld	c,(hl)
   1401 21r01r00      [10] 3535 	ld	hl, #(_enemy + 0x0001) + 0
   1404 5E            [ 7] 3536 	ld	e,(hl)
   1405 21r00r00      [10] 3537 	ld	hl, #_enemy + 0
   1408 56            [ 7] 3538 	ld	d,(hl)
   1409 2Ar00r00      [16] 3539 	ld	hl,(_mapa)
   140C E5            [11] 3540 	push	hl
   140D 21r00r00      [10] 3541 	ld	hl,#_enemy
   1410 E5            [11] 3542 	push	hl
   1411 C5            [11] 3543 	push	bc
   1412 7B            [ 4] 3544 	ld	a,e
   1413 F5            [11] 3545 	push	af
   1414 33            [ 6] 3546 	inc	sp
   1415 D5            [11] 3547 	push	de
   1416 33            [ 6] 3548 	inc	sp
   1417 CDr00r00      [17] 3549 	call	_pathFinding
   141A 21 08 00      [10] 3550 	ld	hl,#8
   141D 39            [11] 3551 	add	hl,sp
   141E F9            [ 6] 3552 	ld	sp,hl
                           3553 ;src/main.c:664: actual->p_seek_x = actual->x;
   141F 3Ar00r00      [13] 3554 	ld	a, (#_enemy + 0)
   1422 32r17r00      [13] 3555 	ld	(#(_enemy + 0x0017)),a
                           3556 ;src/main.c:665: actual->p_seek_y = actual->y;
   1425 3Ar01r00      [13] 3557 	ld	a, (#(_enemy + 0x0001) + 0)
   1428 32r18r00      [13] 3558 	ld	(#(_enemy + 0x0018)),a
                           3559 ;src/main.c:666: actual->seek = 1;
   142B 21r14r00      [10] 3560 	ld	hl,#(_enemy + 0x0014)
   142E 36 01         [10] 3561 	ld	(hl),#0x01
                           3562 ;src/main.c:667: actual->iter=0;
   1430 21r0Fr00      [10] 3563 	ld	hl,#(_enemy + 0x000f)
   1433 36 00         [10] 3564 	ld	(hl),#0x00
                           3565 ;src/main.c:668: actual->reversePatrol = NO;
   1435 21r0Dr00      [10] 3566 	ld	hl,#(_enemy + 0x000d)
   1438 36 00         [10] 3567 	ld	(hl),#0x00
                           3568 ;src/main.c:669: actual->patrolling = 0;
   143A 21r0Br00      [10] 3569 	ld	hl,#(_enemy + 0x000b)
   143D 36 00         [10] 3570 	ld	(hl),#0x00
                           3571 ;src/main.c:670: actual->onPathPatrol = 0;
   143F 21r0Cr00      [10] 3572 	ld	hl,#(_enemy + 0x000c)
   1442 36 00         [10] 3573 	ld	(hl),#0x00
                           3574 ;src/main.c:671: actual->seen = 0;
   1444 21r12r00      [10] 3575 	ld	hl,#(_enemy + 0x0012)
   1447 36 00         [10] 3576 	ld	(hl),#0x00
   1449 C3r76r13      [10] 3577 	jp	00123$
   144C                    3578 00118$:
                           3579 ;src/main.c:673: } else if (actual->seek) { // esta buscando
   144C 3Ar14r00      [13] 3580 	ld	a, (#(_enemy + 0x0014) + 0)
   144F B7            [ 4] 3581 	or	a, a
   1450 CAr76r13      [10] 3582 	jp	Z,00123$
                           3583 ;src/main.c:674: if (!actual->found /*&& actual->seekTimer <= 5*/) {
   1453 DD 6E FE      [19] 3584 	ld	l,-2 (ix)
   1456 DD 66 FF      [19] 3585 	ld	h,-1 (ix)
   1459 11 13 00      [10] 3586 	ld	de, #0x0013
   145C 19            [11] 3587 	add	hl, de
   145D 7E            [ 7] 3588 	ld	a,(hl)
   145E B7            [ 4] 3589 	or	a, a
   145F 20 0B         [12] 3590 	jr	NZ,00113$
                           3591 ;src/main.c:675: seek(actual); // buscar en posiciones cercanas a la actual
   1461 21r00r00      [10] 3592 	ld	hl,#_enemy
   1464 E5            [11] 3593 	push	hl
   1465 CDr5Cr0C      [17] 3594 	call	_seek
   1468 F1            [10] 3595 	pop	af
   1469 C3r76r13      [10] 3596 	jp	00123$
   146C                    3597 00113$:
                           3598 ;src/main.c:676: } else if (actual->inRange) {
   146C 3Ar11r00      [13] 3599 	ld	a, (#(_enemy + 0x0011) + 0)
   146F B7            [ 4] 3600 	or	a, a
   1470 CAr76r13      [10] 3601 	jp	Z,00123$
                           3602 ;src/main.c:677: engage(actual, prota.x, prota.y);
   1473 21r19r05      [10] 3603 	ld	hl, #(_prota + 0x0001) + 0
   1476 46            [ 7] 3604 	ld	b,(hl)
   1477 21r18r05      [10] 3605 	ld	hl, #_prota + 0
   147A 4E            [ 7] 3606 	ld	c, (hl)
   147B C5            [11] 3607 	push	bc
   147C 21r00r00      [10] 3608 	ld	hl,#_enemy
   147F E5            [11] 3609 	push	hl
   1480 CDr66r0C      [17] 3610 	call	_engage
   1483 F1            [10] 3611 	pop	af
   1484 F1            [10] 3612 	pop	af
                           3613 ;src/main.c:678: actual->engage = 1;
   1485 21r16r00      [10] 3614 	ld	hl,#(_enemy + 0x0016)
   1488 36 01         [10] 3615 	ld	(hl),#0x01
   148A C3r76r13      [10] 3616 	jp	00123$
   148D                    3617 00126$:
   148D DD F9         [10] 3618 	ld	sp, ix
   148F DD E1         [14] 3619 	pop	ix
   1491 C9            [10] 3620 	ret
                           3621 ;src/main.c:685: void inicializarEnemy() {
                           3622 ;	---------------------------------
                           3623 ; Function inicializarEnemy
                           3624 ; ---------------------------------
   1492                    3625 _inicializarEnemy::
   1492 DD E5         [15] 3626 	push	ix
   1494 DD 21 00 00   [14] 3627 	ld	ix,#0
   1498 DD 39         [15] 3628 	add	ix,sp
   149A F5            [11] 3629 	push	af
   149B F5            [11] 3630 	push	af
                           3631 ;src/main.c:686: u8 i = (2 + num_mapa) + 1; //sacar distinto numero dependiendo del mapa
   149C 3Ar02r00      [13] 3632 	ld	a,(#_num_mapa + 0)
   149F C6 03         [ 7] 3633 	add	a, #0x03
   14A1 DD 77 FD      [19] 3634 	ld	-3 (ix),a
                           3635 ;src/main.c:696: actual = enemy;
   14A4 11r00r00      [10] 3636 	ld	de,#_enemy+0
                           3637 ;src/main.c:697: while(--i){
   14A7                    3638 00101$:
   14A7 DD 35 FD      [23] 3639 	dec	-3 (ix)
   14AA DD 7E FD      [19] 3640 	ld	a,-3 (ix)
   14AD B7            [ 4] 3641 	or	a, a
   14AE CAr8Ar15      [10] 3642 	jp	Z,00104$
                           3643 ;src/main.c:698: actual->x = actual->px = spawnX[i];
   14B1 4B            [ 4] 3644 	ld	c, e
   14B2 42            [ 4] 3645 	ld	b, d
   14B3 03            [ 6] 3646 	inc	bc
   14B4 03            [ 6] 3647 	inc	bc
   14B5 3Er1C         [ 7] 3648 	ld	a,#<(_spawnX)
   14B7 DD 86 FD      [19] 3649 	add	a, -3 (ix)
   14BA 6F            [ 4] 3650 	ld	l,a
   14BB 3Es00         [ 7] 3651 	ld	a,#>(_spawnX)
   14BD CE 00         [ 7] 3652 	adc	a, #0x00
   14BF 67            [ 4] 3653 	ld	h,a
   14C0 7E            [ 7] 3654 	ld	a,(hl)
   14C1 DD 77 FE      [19] 3655 	ld	-2 (ix), a
   14C4 02            [ 7] 3656 	ld	(bc),a
   14C5 DD 7E FE      [19] 3657 	ld	a,-2 (ix)
   14C8 12            [ 7] 3658 	ld	(de),a
                           3659 ;src/main.c:699: actual->y = actual->py = spawnY[i];
   14C9 D5            [11] 3660 	push	de
   14CA FD E1         [14] 3661 	pop	iy
   14CC FD 23         [10] 3662 	inc	iy
   14CE 4B            [ 4] 3663 	ld	c, e
   14CF 42            [ 4] 3664 	ld	b, d
   14D0 03            [ 6] 3665 	inc	bc
   14D1 03            [ 6] 3666 	inc	bc
   14D2 03            [ 6] 3667 	inc	bc
   14D3 3Er21         [ 7] 3668 	ld	a,#<(_spawnY)
   14D5 DD 86 FD      [19] 3669 	add	a, -3 (ix)
   14D8 6F            [ 4] 3670 	ld	l,a
   14D9 3Es00         [ 7] 3671 	ld	a,#>(_spawnY)
   14DB CE 00         [ 7] 3672 	adc	a, #0x00
   14DD 67            [ 4] 3673 	ld	h,a
   14DE 7E            [ 7] 3674 	ld	a,(hl)
   14DF DD 77 FF      [19] 3675 	ld	-1 (ix), a
   14E2 02            [ 7] 3676 	ld	(bc),a
   14E3 DD 7E FF      [19] 3677 	ld	a,-1 (ix)
   14E6 FD 77 00      [19] 3678 	ld	0 (iy), a
                           3679 ;src/main.c:700: actual->mover  = NO;
   14E9 21 06 00      [10] 3680 	ld	hl,#0x0006
   14EC 19            [11] 3681 	add	hl,de
   14ED 36 00         [10] 3682 	ld	(hl),#0x00
                           3683 ;src/main.c:701: actual->mira   = M_abajo;
   14EF 21 07 00      [10] 3684 	ld	hl,#0x0007
   14F2 19            [11] 3685 	add	hl,de
   14F3 36 03         [10] 3686 	ld	(hl),#0x03
                           3687 ;src/main.c:702: actual->sprite = g_enemy;
   14F5 21 04 00      [10] 3688 	ld	hl,#0x0004
   14F8 19            [11] 3689 	add	hl,de
   14F9 36r00         [10] 3690 	ld	(hl),#<(_g_enemy)
   14FB 23            [ 6] 3691 	inc	hl
   14FC 36s00         [10] 3692 	ld	(hl),#>(_g_enemy)
                           3693 ;src/main.c:703: actual->muerto = NO;
   14FE 21 08 00      [10] 3694 	ld	hl,#0x0008
   1501 19            [11] 3695 	add	hl,de
   1502 36 00         [10] 3696 	ld	(hl),#0x00
                           3697 ;src/main.c:704: actual->muertes = 0;
   1504 21 0A 00      [10] 3698 	ld	hl,#0x000A
   1507 19            [11] 3699 	add	hl,de
   1508 36 00         [10] 3700 	ld	(hl),#0x00
                           3701 ;src/main.c:705: actual->patrolling = SI;
   150A 21 0B 00      [10] 3702 	ld	hl,#0x000B
   150D 19            [11] 3703 	add	hl,de
   150E 36 01         [10] 3704 	ld	(hl),#0x01
                           3705 ;src/main.c:706: actual->onPathPatrol = SI;
   1510 21 0C 00      [10] 3706 	ld	hl,#0x000C
   1513 19            [11] 3707 	add	hl,de
   1514 36 01         [10] 3708 	ld	(hl),#0x01
                           3709 ;src/main.c:707: actual->reversePatrol = NO;
   1516 21 0D 00      [10] 3710 	ld	hl,#0x000D
   1519 19            [11] 3711 	add	hl,de
   151A 36 00         [10] 3712 	ld	(hl),#0x00
                           3713 ;src/main.c:708: actual->iter = 0;
   151C 21 0F 00      [10] 3714 	ld	hl,#0x000F
   151F 19            [11] 3715 	add	hl,de
   1520 36 00         [10] 3716 	ld	(hl),#0x00
                           3717 ;src/main.c:709: actual->lastIter = 0;
   1522 21 10 00      [10] 3718 	ld	hl,#0x0010
   1525 19            [11] 3719 	add	hl,de
   1526 36 00         [10] 3720 	ld	(hl),#0x00
                           3721 ;src/main.c:710: actual->seen = 0;
   1528 21 12 00      [10] 3722 	ld	hl,#0x0012
   152B 19            [11] 3723 	add	hl,de
   152C 36 00         [10] 3724 	ld	(hl),#0x00
                           3725 ;src/main.c:711: actual->found = 0;
   152E 21 13 00      [10] 3726 	ld	hl,#0x0013
   1531 19            [11] 3727 	add	hl,de
   1532 36 00         [10] 3728 	ld	(hl),#0x00
                           3729 ;src/main.c:712: pathFinding(actual->x, actual->y, patrolX[num_mapa + 1][i], patrolY[num_mapa + 1][i], actual, mapa); // calculo rutas de patrulla
   1534 21r02r00      [10] 3730 	ld	hl,#_num_mapa + 0
   1537 4E            [ 7] 3731 	ld	c, (hl)
   1538 0C            [ 4] 3732 	inc	c
   1539 06 00         [ 7] 3733 	ld	b,#0x00
   153B 69            [ 4] 3734 	ld	l, c
   153C 60            [ 4] 3735 	ld	h, b
   153D 29            [11] 3736 	add	hl, hl
   153E 29            [11] 3737 	add	hl, hl
   153F 09            [11] 3738 	add	hl, bc
   1540 4D            [ 4] 3739 	ld	c,l
   1541 44            [ 4] 3740 	ld	b,h
   1542 21r3Ar00      [10] 3741 	ld	hl,#_patrolY
   1545 09            [11] 3742 	add	hl,bc
   1546 DD 7E FD      [19] 3743 	ld	a,-3 (ix)
   1549 85            [ 4] 3744 	add	a, l
   154A 6F            [ 4] 3745 	ld	l,a
   154B 3E 00         [ 7] 3746 	ld	a,#0x00
   154D 8C            [ 4] 3747 	adc	a, h
   154E 67            [ 4] 3748 	ld	h,a
   154F 7E            [ 7] 3749 	ld	a,(hl)
   1550 DD 77 FC      [19] 3750 	ld	-4 (ix),a
   1553 21r26r00      [10] 3751 	ld	hl,#_patrolX
   1556 09            [11] 3752 	add	hl,bc
   1557 DD 4E FD      [19] 3753 	ld	c,-3 (ix)
   155A 06 00         [ 7] 3754 	ld	b,#0x00
   155C 09            [11] 3755 	add	hl,bc
   155D 46            [ 7] 3756 	ld	b,(hl)
   155E D5            [11] 3757 	push	de
   155F 2Ar00r00      [16] 3758 	ld	hl,(_mapa)
   1562 E5            [11] 3759 	push	hl
   1563 D5            [11] 3760 	push	de
   1564 DD 7E FC      [19] 3761 	ld	a,-4 (ix)
   1567 F5            [11] 3762 	push	af
   1568 33            [ 6] 3763 	inc	sp
   1569 C5            [11] 3764 	push	bc
   156A 33            [ 6] 3765 	inc	sp
   156B DD 66 FF      [19] 3766 	ld	h,-1 (ix)
   156E DD 6E FE      [19] 3767 	ld	l,-2 (ix)
   1571 E5            [11] 3768 	push	hl
   1572 CDr00r00      [17] 3769 	call	_pathFinding
   1575 21 08 00      [10] 3770 	ld	hl,#8
   1578 39            [11] 3771 	add	hl,sp
   1579 F9            [ 6] 3772 	ld	sp,hl
   157A D1            [10] 3773 	pop	de
                           3774 ;src/main.c:735: dibujarEnemigo(actual);
   157B D5            [11] 3775 	push	de
   157C D5            [11] 3776 	push	de
   157D CDrD8r02      [17] 3777 	call	_dibujarEnemigo
   1580 F1            [10] 3778 	pop	af
   1581 D1            [10] 3779 	pop	de
                           3780 ;src/main.c:737: ++actual;
   1582 21 46 01      [10] 3781 	ld	hl,#0x0146
   1585 19            [11] 3782 	add	hl,de
   1586 EB            [ 4] 3783 	ex	de,hl
   1587 C3rA7r14      [10] 3784 	jp	00101$
   158A                    3785 00104$:
   158A DD F9         [10] 3786 	ld	sp, ix
   158C DD E1         [14] 3787 	pop	ix
   158E C9            [10] 3788 	ret
                           3789 ;src/main.c:741: void avanzarMapa() {
                           3790 ;	---------------------------------
                           3791 ; Function avanzarMapa
                           3792 ; ---------------------------------
   158F                    3793 _avanzarMapa::
                           3794 ;src/main.c:742: if(num_mapa < NUM_MAPAS -1) {
   158F 3Ar02r00      [13] 3795 	ld	a,(#_num_mapa + 0)
   1592 D6 02         [ 7] 3796 	sub	a, #0x02
   1594 30 34         [12] 3797 	jr	NC,00102$
                           3798 ;src/main.c:743: mapa = mapas[++num_mapa];
   1596 01r16r00      [10] 3799 	ld	bc,#_mapas+0
   1599 21r02r00      [10] 3800 	ld	hl, #_num_mapa+0
   159C 34            [11] 3801 	inc	(hl)
   159D FD 21r02r00   [14] 3802 	ld	iy,#_num_mapa
   15A1 FD 6E 00      [19] 3803 	ld	l,0 (iy)
   15A4 26 00         [ 7] 3804 	ld	h,#0x00
   15A6 29            [11] 3805 	add	hl, hl
   15A7 09            [11] 3806 	add	hl,bc
   15A8 7E            [ 7] 3807 	ld	a,(hl)
   15A9 FD 21r00r00   [14] 3808 	ld	iy,#_mapa
   15AD FD 77 00      [19] 3809 	ld	0 (iy),a
   15B0 23            [ 6] 3810 	inc	hl
   15B1 7E            [ 7] 3811 	ld	a,(hl)
   15B2 32r01r00      [13] 3812 	ld	(#_mapa + 1),a
                           3813 ;src/main.c:744: prota.x = prota.px = 2;
   15B5 21r1Ar05      [10] 3814 	ld	hl,#(_prota + 0x0002)
   15B8 36 02         [10] 3815 	ld	(hl),#0x02
   15BA 21r18r05      [10] 3816 	ld	hl,#_prota
   15BD 36 02         [10] 3817 	ld	(hl),#0x02
                           3818 ;src/main.c:745: prota.mover = SI;
   15BF 21r1Er05      [10] 3819 	ld	hl,#(_prota + 0x0006)
   15C2 36 01         [10] 3820 	ld	(hl),#0x01
                           3821 ;src/main.c:746: dibujarMapa();
   15C4 CDr00r00      [17] 3822 	call	_dibujarMapa
                           3823 ;src/main.c:747: inicializarEnemy();
   15C7 C3r92r14      [10] 3824 	jp  _inicializarEnemy
   15CA                    3825 00102$:
                           3826 ;src/main.c:750: menuFin(puntuacion);
   15CA FD 21r03r00   [14] 3827 	ld	iy,#_puntuacion
   15CE FD 6E 00      [19] 3828 	ld	l,0 (iy)
   15D1 26 00         [ 7] 3829 	ld	h,#0x00
   15D3 C3r00r00      [10] 3830 	jp  _menuFin
                           3831 ;src/main.c:754: void moverIzquierda() {
                           3832 ;	---------------------------------
                           3833 ; Function moverIzquierda
                           3834 ; ---------------------------------
   15D6                    3835 _moverIzquierda::
                           3836 ;src/main.c:755: prota.mira = M_izquierda;
   15D6 01r18r05      [10] 3837 	ld	bc,#_prota+0
   15D9 21r1Fr05      [10] 3838 	ld	hl,#(_prota + 0x0007)
   15DC 36 01         [10] 3839 	ld	(hl),#0x01
                           3840 ;src/main.c:756: if (!checkCollision(M_izquierda)) {
   15DE C5            [11] 3841 	push	bc
   15DF 3E 01         [ 7] 3842 	ld	a,#0x01
   15E1 F5            [11] 3843 	push	af
   15E2 33            [ 6] 3844 	inc	sp
   15E3 CDr63r01      [17] 3845 	call	_checkCollision
   15E6 33            [ 6] 3846 	inc	sp
   15E7 C1            [10] 3847 	pop	bc
   15E8 7D            [ 4] 3848 	ld	a,l
   15E9 B7            [ 4] 3849 	or	a, a
   15EA C0            [11] 3850 	ret	NZ
                           3851 ;src/main.c:757: prota.x--;
   15EB 0A            [ 7] 3852 	ld	a,(bc)
   15EC C6 FF         [ 7] 3853 	add	a,#0xFF
   15EE 02            [ 7] 3854 	ld	(bc),a
                           3855 ;src/main.c:758: prota.mover = SI;
   15EF 21r1Er05      [10] 3856 	ld	hl,#(_prota + 0x0006)
   15F2 36 01         [10] 3857 	ld	(hl),#0x01
                           3858 ;src/main.c:759: prota.sprite = g_hero_left;
   15F4 21r00r00      [10] 3859 	ld	hl,#_g_hero_left
   15F7 22r1Cr05      [16] 3860 	ld	((_prota + 0x0004)), hl
   15FA C9            [10] 3861 	ret
                           3862 ;src/main.c:763: void moverDerecha() {
                           3863 ;	---------------------------------
                           3864 ; Function moverDerecha
                           3865 ; ---------------------------------
   15FB                    3866 _moverDerecha::
                           3867 ;src/main.c:764: prota.mira = M_derecha;
   15FB 21r1Fr05      [10] 3868 	ld	hl,#(_prota + 0x0007)
   15FE 36 00         [10] 3869 	ld	(hl),#0x00
                           3870 ;src/main.c:765: if (!checkCollision(M_derecha) && ( prota.x + G_HERO_W < 80)) {
   1600 AF            [ 4] 3871 	xor	a, a
   1601 F5            [11] 3872 	push	af
   1602 33            [ 6] 3873 	inc	sp
   1603 CDr63r01      [17] 3874 	call	_checkCollision
   1606 33            [ 6] 3875 	inc	sp
   1607 45            [ 4] 3876 	ld	b,l
   1608 21r18r05      [10] 3877 	ld	hl, #_prota + 0
   160B 4E            [ 7] 3878 	ld	c,(hl)
   160C 59            [ 4] 3879 	ld	e,c
   160D 16 00         [ 7] 3880 	ld	d,#0x00
   160F 21 07 00      [10] 3881 	ld	hl,#0x0007
   1612 19            [11] 3882 	add	hl,de
   1613 11 50 80      [10] 3883 	ld	de, #0x8050
   1616 29            [11] 3884 	add	hl, hl
   1617 3F            [ 4] 3885 	ccf
   1618 CB 1C         [ 8] 3886 	rr	h
   161A CB 1D         [ 8] 3887 	rr	l
   161C ED 52         [15] 3888 	sbc	hl, de
   161E 3E 00         [ 7] 3889 	ld	a,#0x00
   1620 17            [ 4] 3890 	rla
   1621 5F            [ 4] 3891 	ld	e,a
   1622 78            [ 4] 3892 	ld	a,b
   1623 B7            [ 4] 3893 	or	a,a
   1624 20 14         [12] 3894 	jr	NZ,00104$
   1626 B3            [ 4] 3895 	or	a,e
   1627 28 11         [12] 3896 	jr	Z,00104$
                           3897 ;src/main.c:766: prota.x++;
   1629 0C            [ 4] 3898 	inc	c
   162A 21r18r05      [10] 3899 	ld	hl,#_prota
   162D 71            [ 7] 3900 	ld	(hl),c
                           3901 ;src/main.c:767: prota.mover = SI;
   162E 21r1Er05      [10] 3902 	ld	hl,#(_prota + 0x0006)
   1631 36 01         [10] 3903 	ld	(hl),#0x01
                           3904 ;src/main.c:768: prota.sprite = g_hero;
   1633 21r00r00      [10] 3905 	ld	hl,#_g_hero
   1636 22r1Cr05      [16] 3906 	ld	((_prota + 0x0004)), hl
   1639 C9            [10] 3907 	ret
   163A                    3908 00104$:
                           3909 ;src/main.c:770: }else if( prota.x + G_HERO_W >= 80){
   163A 7B            [ 4] 3910 	ld	a,e
   163B B7            [ 4] 3911 	or	a, a
   163C C0            [11] 3912 	ret	NZ
                           3913 ;src/main.c:771: avanzarMapa();
   163D C3r8Fr15      [10] 3914 	jp  _avanzarMapa
                           3915 ;src/main.c:775: void moverArriba() {
                           3916 ;	---------------------------------
                           3917 ; Function moverArriba
                           3918 ; ---------------------------------
   1640                    3919 _moverArriba::
                           3920 ;src/main.c:776: prota.mira = M_arriba;
   1640 21r1Fr05      [10] 3921 	ld	hl,#(_prota + 0x0007)
   1643 36 02         [10] 3922 	ld	(hl),#0x02
                           3923 ;src/main.c:777: if (!checkCollision(M_arriba)) {
   1645 3E 02         [ 7] 3924 	ld	a,#0x02
   1647 F5            [11] 3925 	push	af
   1648 33            [ 6] 3926 	inc	sp
   1649 CDr63r01      [17] 3927 	call	_checkCollision
   164C 33            [ 6] 3928 	inc	sp
   164D 7D            [ 4] 3929 	ld	a,l
   164E B7            [ 4] 3930 	or	a, a
   164F C0            [11] 3931 	ret	NZ
                           3932 ;src/main.c:778: prota.y--;
   1650 21r19r05      [10] 3933 	ld	hl,#_prota + 1
   1653 4E            [ 7] 3934 	ld	c,(hl)
   1654 0D            [ 4] 3935 	dec	c
   1655 71            [ 7] 3936 	ld	(hl),c
                           3937 ;src/main.c:779: prota.y--;
   1656 0D            [ 4] 3938 	dec	c
   1657 71            [ 7] 3939 	ld	(hl),c
                           3940 ;src/main.c:780: prota.mover  = SI;
   1658 21r1Er05      [10] 3941 	ld	hl,#(_prota + 0x0006)
   165B 36 01         [10] 3942 	ld	(hl),#0x01
                           3943 ;src/main.c:781: prota.sprite = g_hero_up;
   165D 21r00r00      [10] 3944 	ld	hl,#_g_hero_up
   1660 22r1Cr05      [16] 3945 	ld	((_prota + 0x0004)), hl
   1663 C9            [10] 3946 	ret
                           3947 ;src/main.c:785: void moverAbajo() {
                           3948 ;	---------------------------------
                           3949 ; Function moverAbajo
                           3950 ; ---------------------------------
   1664                    3951 _moverAbajo::
                           3952 ;src/main.c:786: prota.mira = M_abajo;
   1664 21r1Fr05      [10] 3953 	ld	hl,#(_prota + 0x0007)
   1667 36 03         [10] 3954 	ld	(hl),#0x03
                           3955 ;src/main.c:787: if (!checkCollision(M_abajo) ) {
   1669 3E 03         [ 7] 3956 	ld	a,#0x03
   166B F5            [11] 3957 	push	af
   166C 33            [ 6] 3958 	inc	sp
   166D CDr63r01      [17] 3959 	call	_checkCollision
   1670 33            [ 6] 3960 	inc	sp
   1671 7D            [ 4] 3961 	ld	a,l
   1672 B7            [ 4] 3962 	or	a, a
   1673 C0            [11] 3963 	ret	NZ
                           3964 ;src/main.c:788: prota.y++;
   1674 01r19r05      [10] 3965 	ld	bc,#_prota + 1
   1677 0A            [ 7] 3966 	ld	a,(bc)
   1678 3C            [ 4] 3967 	inc	a
   1679 02            [ 7] 3968 	ld	(bc),a
                           3969 ;src/main.c:789: prota.y++;
   167A 3C            [ 4] 3970 	inc	a
   167B 02            [ 7] 3971 	ld	(bc),a
                           3972 ;src/main.c:790: prota.mover  = SI;
   167C 21r1Er05      [10] 3973 	ld	hl,#(_prota + 0x0006)
   167F 36 01         [10] 3974 	ld	(hl),#0x01
                           3975 ;src/main.c:791: prota.sprite = g_hero_down;
   1681 21r00r00      [10] 3976 	ld	hl,#_g_hero_down
   1684 22r1Cr05      [16] 3977 	ld	((_prota + 0x0004)), hl
   1687 C9            [10] 3978 	ret
                           3979 ;src/main.c:798: void intHandler() {
                           3980 ;	---------------------------------
                           3981 ; Function intHandler
                           3982 ; ---------------------------------
   1688                    3983 _intHandler::
                           3984 ;src/main.c:799: if (++i == 6) {
   1688 21r2Ar05      [10] 3985 	ld	hl, #_i+0
   168B 34            [11] 3986 	inc	(hl)
   168C 3Ar2Ar05      [13] 3987 	ld	a,(#_i + 0)
   168F D6 06         [ 7] 3988 	sub	a, #0x06
   1691 C0            [11] 3989 	ret	NZ
                           3990 ;src/main.c:800: play();
   1692 CDr00r00      [17] 3991 	call	_play
                           3992 ;src/main.c:801: i=0;
   1695 21r2Ar05      [10] 3993 	ld	hl,#_i + 0
   1698 36 00         [10] 3994 	ld	(hl), #0x00
   169A C9            [10] 3995 	ret
                           3996 ;src/main.c:805: void inicializarCPC() {
                           3997 ;	---------------------------------
                           3998 ; Function inicializarCPC
                           3999 ; ---------------------------------
   169B                    4000 _inicializarCPC::
                           4001 ;src/main.c:806: cpct_disableFirmware();
   169B CDr00r00      [17] 4002 	call	_cpct_disableFirmware
                           4003 ;src/main.c:807: cpct_setVideoMode(0);
   169E 2E 00         [ 7] 4004 	ld	l,#0x00
   16A0 CDr00r00      [17] 4005 	call	_cpct_setVideoMode
                           4006 ;src/main.c:808: cpct_setBorder(HW_BLACK);
   16A3 21 10 14      [10] 4007 	ld	hl,#0x1410
   16A6 E5            [11] 4008 	push	hl
   16A7 CDr00r00      [17] 4009 	call	_cpct_setPALColour
                           4010 ;src/main.c:809: cpct_setPalette(g_palette, 16);
   16AA 21 10 00      [10] 4011 	ld	hl,#0x0010
   16AD E5            [11] 4012 	push	hl
   16AE 21r00r00      [10] 4013 	ld	hl,#_g_palette
   16B1 E5            [11] 4014 	push	hl
   16B2 CDr00r00      [17] 4015 	call	_cpct_setPalette
   16B5 C9            [10] 4016 	ret
                           4017 ;src/main.c:814: void inicializarJuego() {
                           4018 ;	---------------------------------
                           4019 ; Function inicializarJuego
                           4020 ; ---------------------------------
   16B6                    4021 _inicializarJuego::
                           4022 ;src/main.c:816: num_mapa = 0;
   16B6 21r02r00      [10] 4023 	ld	hl,#_num_mapa + 0
   16B9 36 00         [10] 4024 	ld	(hl), #0x00
                           4025 ;src/main.c:817: mapa = mapas[num_mapa];
   16BB 21r16r00      [10] 4026 	ld	hl, #_mapas + 0
   16BE 7E            [ 7] 4027 	ld	a,(hl)
   16BF FD 21r00r00   [14] 4028 	ld	iy,#_mapa
   16C3 FD 77 00      [19] 4029 	ld	0 (iy),a
   16C6 23            [ 6] 4030 	inc	hl
   16C7 7E            [ 7] 4031 	ld	a,(hl)
   16C8 32r01r00      [13] 4032 	ld	(#_mapa + 1),a
                           4033 ;src/main.c:818: cpct_etm_setTileset2x4(g_tileset);
   16CB 21r00r00      [10] 4034 	ld	hl,#_g_tileset
   16CE CDr00r00      [17] 4035 	call	_cpct_etm_setTileset2x4
                           4036 ;src/main.c:820: dibujarMapa();
   16D1 CDr00r00      [17] 4037 	call	_dibujarMapa
                           4038 ;src/main.c:823: barraPuntuacionInicial();
   16D4 CDr00r00      [17] 4039 	call	_barraPuntuacionInicial
                           4040 ;src/main.c:826: prota.x = prota.px = 4;
   16D7 21r1Ar05      [10] 4041 	ld	hl,#(_prota + 0x0002)
   16DA 36 04         [10] 4042 	ld	(hl),#0x04
   16DC 21r18r05      [10] 4043 	ld	hl,#_prota
   16DF 36 04         [10] 4044 	ld	(hl),#0x04
                           4045 ;src/main.c:827: prota.y = prota.py = 80 + ORIGEN_MAPA_Y;
   16E1 21r1Br05      [10] 4046 	ld	hl,#(_prota + 0x0003)
   16E4 36 68         [10] 4047 	ld	(hl),#0x68
   16E6 21r19r05      [10] 4048 	ld	hl,#(_prota + 0x0001)
   16E9 36 68         [10] 4049 	ld	(hl),#0x68
                           4050 ;src/main.c:828: prota.mover  = NO;
   16EB 21r1Er05      [10] 4051 	ld	hl,#(_prota + 0x0006)
   16EE 36 00         [10] 4052 	ld	(hl),#0x00
                           4053 ;src/main.c:829: prota.mira=M_derecha;
   16F0 21r1Fr05      [10] 4054 	ld	hl,#(_prota + 0x0007)
   16F3 36 00         [10] 4055 	ld	(hl),#0x00
                           4056 ;src/main.c:830: prota.sprite = g_hero;
   16F5 21r00r00      [10] 4057 	ld	hl,#_g_hero
   16F8 22r1Cr05      [16] 4058 	ld	((_prota + 0x0004)), hl
                           4059 ;src/main.c:834: cu.x = cu.px = 0;
   16FB 21r22r05      [10] 4060 	ld	hl,#(_cu + 0x0002)
   16FE 36 00         [10] 4061 	ld	(hl),#0x00
   1700 21r20r05      [10] 4062 	ld	hl,#_cu
   1703 36 00         [10] 4063 	ld	(hl),#0x00
                           4064 ;src/main.c:835: cu.y = cu.py = 0;
   1705 21r23r05      [10] 4065 	ld	hl,#(_cu + 0x0003)
   1708 36 00         [10] 4066 	ld	(hl),#0x00
   170A 21r21r05      [10] 4067 	ld	hl,#(_cu + 0x0001)
   170D 36 00         [10] 4068 	ld	(hl),#0x00
                           4069 ;src/main.c:836: cu.lanzado = NO;
   170F 21r26r05      [10] 4070 	ld	hl,#(_cu + 0x0006)
   1712 36 00         [10] 4071 	ld	(hl),#0x00
                           4072 ;src/main.c:837: cu.mover = NO;
   1714 21r29r05      [10] 4073 	ld	hl,#(_cu + 0x0009)
   1717 36 00         [10] 4074 	ld	(hl),#0x00
                           4075 ;src/main.c:839: inicializarEnemy();
   1719 CDr92r14      [17] 4076 	call	_inicializarEnemy
                           4077 ;src/main.c:841: dibujarProta();
   171C C3r4Er00      [10] 4078 	jp  _dibujarProta
                           4079 ;src/main.c:844: void main(void) {
                           4080 ;	---------------------------------
                           4081 ; Function main
                           4082 ; ---------------------------------
   171F                    4083 _main::
   171F DD E5         [15] 4084 	push	ix
   1721 DD 21 00 00   [14] 4085 	ld	ix,#0
   1725 DD 39         [15] 4086 	add	ix,sp
   1727 3B            [ 6] 4087 	dec	sp
                           4088 ;src/main.c:849: inicializarCPC();
   1728 CDr9Br16      [17] 4089 	call	_inicializarCPC
                           4090 ;src/main.c:851: menuInicio();
   172B CDr00r00      [17] 4091 	call	_menuInicio
                           4092 ;src/main.c:853: inicializarJuego();
   172E CDrB6r16      [17] 4093 	call	_inicializarJuego
                           4094 ;src/main.c:857: while (1) {
   1731                    4095 00119$:
                           4096 ;src/main.c:859: i = (2 + num_mapa) + 1;
   1731 3Ar02r00      [13] 4097 	ld	a,(#_num_mapa + 0)
   1734 C6 03         [ 7] 4098 	add	a, #0x03
   1736 DD 77 FF      [19] 4099 	ld	-1 (ix),a
                           4100 ;src/main.c:860: actual = enemy;
                           4101 ;src/main.c:862: comprobarTeclado(&cu, &prota, mapa, g_tablatrans);
   1739 21r00r01      [10] 4102 	ld	hl,#_g_tablatrans
   173C E5            [11] 4103 	push	hl
   173D 2Ar00r00      [16] 4104 	ld	hl,(_mapa)
   1740 E5            [11] 4105 	push	hl
   1741 21r18r05      [10] 4106 	ld	hl,#_prota
   1744 E5            [11] 4107 	push	hl
   1745 21r20r05      [10] 4108 	ld	hl,#_cu
   1748 E5            [11] 4109 	push	hl
   1749 CDrFCr00      [17] 4110 	call	_comprobarTeclado
   174C 21 08 00      [10] 4111 	ld	hl,#8
   174F 39            [11] 4112 	add	hl,sp
   1750 F9            [ 6] 4113 	ld	sp,hl
                           4114 ;src/main.c:863: moverCuchillo(&cu, mapa);
   1751 2Ar00r00      [16] 4115 	ld	hl,(_mapa)
   1754 E5            [11] 4116 	push	hl
   1755 21r20r05      [10] 4117 	ld	hl,#_cu
   1758 E5            [11] 4118 	push	hl
   1759 CDr00r00      [17] 4119 	call	_moverCuchillo
   175C F1            [10] 4120 	pop	af
   175D F1            [10] 4121 	pop	af
                           4122 ;src/main.c:864: updateEnemies();
   175E CDr5Cr13      [17] 4123 	call	_updateEnemies
                           4124 ;src/main.c:866: cpct_waitVSYNC();
   1761 CDr00r00      [17] 4125 	call	_cpct_waitVSYNC
                           4126 ;src/main.c:869: if (prota.mover) {
   1764 01r1Er05      [10] 4127 	ld	bc,#_prota + 6
   1767 0A            [ 7] 4128 	ld	a,(bc)
   1768 B7            [ 4] 4129 	or	a, a
   1769 28 07         [12] 4130 	jr	Z,00102$
                           4131 ;src/main.c:870: redibujarProta();
   176B C5            [11] 4132 	push	bc
   176C CDrE8r00      [17] 4133 	call	_redibujarProta
   176F C1            [10] 4134 	pop	bc
                           4135 ;src/main.c:871: prota.mover = NO;
   1770 AF            [ 4] 4136 	xor	a, a
   1771 02            [ 7] 4137 	ld	(bc),a
   1772                    4138 00102$:
                           4139 ;src/main.c:873: if(cu.lanzado && cu.mover){
   1772 21r26r05      [10] 4140 	ld	hl, #(_cu + 0x0006) + 0
   1775 4E            [ 7] 4141 	ld	c,(hl)
                           4142 ;src/main.c:874: redibujarCuchillo(cu.eje, cu.x, cu.y, &cu, g_tablatrans, mapa);
                           4143 ;src/main.c:873: if(cu.lanzado && cu.mover){
   1776 79            [ 4] 4144 	ld	a,c
   1777 B7            [ 4] 4145 	or	a, a
   1778 28 30         [12] 4146 	jr	Z,00107$
   177A 3Ar29r05      [13] 4147 	ld	a, (#(_cu + 0x0009) + 0)
   177D B7            [ 4] 4148 	or	a, a
   177E 28 2A         [12] 4149 	jr	Z,00107$
                           4150 ;src/main.c:874: redibujarCuchillo(cu.eje, cu.x, cu.y, &cu, g_tablatrans, mapa);
   1780 21r21r05      [10] 4151 	ld	hl, #(_cu + 0x0001) + 0
   1783 4E            [ 7] 4152 	ld	c,(hl)
   1784 21r20r05      [10] 4153 	ld	hl, #_cu + 0
   1787 46            [ 7] 4154 	ld	b,(hl)
   1788 21r28r05      [10] 4155 	ld	hl, #(_cu + 0x0008) + 0
   178B 5E            [ 7] 4156 	ld	e,(hl)
   178C 2Ar00r00      [16] 4157 	ld	hl,(_mapa)
   178F E5            [11] 4158 	push	hl
   1790 21r00r01      [10] 4159 	ld	hl,#_g_tablatrans
   1793 E5            [11] 4160 	push	hl
   1794 21r20r05      [10] 4161 	ld	hl,#_cu
   1797 E5            [11] 4162 	push	hl
   1798 79            [ 4] 4163 	ld	a,c
   1799 F5            [11] 4164 	push	af
   179A 33            [ 6] 4165 	inc	sp
   179B C5            [11] 4166 	push	bc
   179C 33            [ 6] 4167 	inc	sp
   179D 7B            [ 4] 4168 	ld	a,e
   179E F5            [11] 4169 	push	af
   179F 33            [ 6] 4170 	inc	sp
   17A0 CDr00r00      [17] 4171 	call	_redibujarCuchillo
   17A3 21 09 00      [10] 4172 	ld	hl,#9
   17A6 39            [11] 4173 	add	hl,sp
   17A7 F9            [ 6] 4174 	ld	sp,hl
   17A8 18 28         [12] 4175 	jr	00132$
   17AA                    4176 00107$:
                           4177 ;src/main.c:875: }else if (cu.lanzado && !cu.mover){
   17AA 79            [ 4] 4178 	ld	a,c
   17AB B7            [ 4] 4179 	or	a, a
   17AC 28 24         [12] 4180 	jr	Z,00132$
   17AE 3Ar29r05      [13] 4181 	ld	a, (#(_cu + 0x0009) + 0)
   17B1 B7            [ 4] 4182 	or	a, a
   17B2 20 1E         [12] 4183 	jr	NZ,00132$
                           4184 ;src/main.c:876: borrarCuchillo(cu.eje, cu.x, cu.y, mapa);
   17B4 21r21r05      [10] 4185 	ld	hl, #(_cu + 0x0001) + 0
   17B7 46            [ 7] 4186 	ld	b,(hl)
   17B8 21r20r05      [10] 4187 	ld	hl, #_cu + 0
   17BB 4E            [ 7] 4188 	ld	c,(hl)
   17BC 21r28r05      [10] 4189 	ld	hl, #(_cu + 0x0008) + 0
   17BF 56            [ 7] 4190 	ld	d,(hl)
   17C0 2Ar00r00      [16] 4191 	ld	hl,(_mapa)
   17C3 E5            [11] 4192 	push	hl
   17C4 C5            [11] 4193 	push	bc
   17C5 D5            [11] 4194 	push	de
   17C6 33            [ 6] 4195 	inc	sp
   17C7 CDr00r00      [17] 4196 	call	_borrarCuchillo
   17CA F1            [10] 4197 	pop	af
   17CB F1            [10] 4198 	pop	af
   17CC 33            [ 6] 4199 	inc	sp
                           4200 ;src/main.c:877: cu.lanzado = NO;
   17CD 21r26r05      [10] 4201 	ld	hl,#(_cu + 0x0006)
   17D0 36 00         [10] 4202 	ld	(hl),#0x00
                           4203 ;src/main.c:880: while(--i){
   17D2                    4204 00132$:
   17D2 01r00r00      [10] 4205 	ld	bc,#_enemy
   17D5                    4206 00115$:
   17D5 DD 35 FF      [23] 4207 	dec	-1 (ix)
   17D8 DD 7E FF      [19] 4208 	ld	a, -1 (ix)
   17DB B7            [ 4] 4209 	or	a, a
   17DC 28 71         [12] 4210 	jr	Z,00117$
                           4211 ;src/main.c:881: if(actual->mover){
   17DE C5            [11] 4212 	push	bc
   17DF FD E1         [14] 4213 	pop	iy
   17E1 FD 7E 06      [19] 4214 	ld	a,6 (iy)
   17E4 B7            [ 4] 4215 	or	a, a
   17E5 28 07         [12] 4216 	jr	Z,00111$
                           4217 ;src/main.c:882: redibujarEnemigo(actual);
   17E7 C5            [11] 4218 	push	bc
   17E8 C5            [11] 4219 	push	bc
   17E9 CDr4Cr04      [17] 4220 	call	_redibujarEnemigo
   17EC F1            [10] 4221 	pop	af
   17ED C1            [10] 4222 	pop	bc
   17EE                    4223 00111$:
                           4224 ;src/main.c:884: if (actual->muerto && actual->muertes == 0){
   17EE C5            [11] 4225 	push	bc
   17EF FD E1         [14] 4226 	pop	iy
   17F1 FD 7E 08      [19] 4227 	ld	a,8 (iy)
   17F4 B7            [ 4] 4228 	or	a, a
   17F5 28 50         [12] 4229 	jr	Z,00113$
   17F7 21 0A 00      [10] 4230 	ld	hl,#0x000A
   17FA 09            [11] 4231 	add	hl,bc
   17FB EB            [ 4] 4232 	ex	de,hl
   17FC 1A            [ 7] 4233 	ld	a,(de)
   17FD B7            [ 4] 4234 	or	a, a
   17FE 20 47         [12] 4235 	jr	NZ,00113$
                           4236 ;src/main.c:885: borrarEnemigo(actual);
   1800 C5            [11] 4237 	push	bc
   1801 D5            [11] 4238 	push	de
   1802 C5            [11] 4239 	push	bc
   1803 CDrB8r03      [17] 4240 	call	_borrarEnemigo
   1806 F1            [10] 4241 	pop	af
   1807 D1            [10] 4242 	pop	de
   1808 C1            [10] 4243 	pop	bc
                           4244 ;src/main.c:886: dibujarExplosion(actual);
   1809 C5            [11] 4245 	push	bc
   180A D5            [11] 4246 	push	de
   180B C5            [11] 4247 	push	bc
   180C CDr10r03      [17] 4248 	call	_dibujarExplosion
   180F F1            [10] 4249 	pop	af
   1810 D1            [10] 4250 	pop	de
   1811 C1            [10] 4251 	pop	bc
                           4252 ;src/main.c:887: puntuacion_aux = puntuacion;
   1812 FD 21r03r00   [14] 4253 	ld	iy,#_puntuacion
   1816 FD 6E 00      [19] 4254 	ld	l,0 (iy)
   1819 26 00         [ 7] 4255 	ld	h,#0x00
                           4256 ;src/main.c:888: puntuacion = aumentarPuntuacion(puntuacion_aux);
   181B C5            [11] 4257 	push	bc
   181C D5            [11] 4258 	push	de
   181D E5            [11] 4259 	push	hl
   181E CDr00r00      [17] 4260 	call	_aumentarPuntuacion
   1821 F1            [10] 4261 	pop	af
   1822 D1            [10] 4262 	pop	de
   1823 C1            [10] 4263 	pop	bc
   1824 FD 21r03r00   [14] 4264 	ld	iy,#_puntuacion
   1828 FD 75 00      [19] 4265 	ld	0 (iy),l
                           4266 ;src/main.c:889: modificarPuntuacion(puntuacion);
   182B FD 21r03r00   [14] 4267 	ld	iy,#_puntuacion
   182F FD 6E 00      [19] 4268 	ld	l,0 (iy)
   1832 26 00         [ 7] 4269 	ld	h,#0x00
   1834 C5            [11] 4270 	push	bc
   1835 D5            [11] 4271 	push	de
   1836 E5            [11] 4272 	push	hl
   1837 CDr00r00      [17] 4273 	call	_modificarPuntuacion
   183A F1            [10] 4274 	pop	af
   183B D1            [10] 4275 	pop	de
   183C C1            [10] 4276 	pop	bc
                           4277 ;src/main.c:891: actual->muertes++;
   183D 1A            [ 7] 4278 	ld	a,(de)
   183E 3C            [ 4] 4279 	inc	a
   183F 12            [ 7] 4280 	ld	(de),a
                           4281 ;src/main.c:892: actual->x = 0;
   1840 AF            [ 4] 4282 	xor	a, a
   1841 02            [ 7] 4283 	ld	(bc),a
                           4284 ;src/main.c:893: actual->y = 0;
   1842 59            [ 4] 4285 	ld	e, c
   1843 50            [ 4] 4286 	ld	d, b
   1844 13            [ 6] 4287 	inc	de
   1845 AF            [ 4] 4288 	xor	a, a
   1846 12            [ 7] 4289 	ld	(de),a
   1847                    4290 00113$:
                           4291 ;src/main.c:895: ++actual;
   1847 21 46 01      [10] 4292 	ld	hl,#0x0146
   184A 09            [11] 4293 	add	hl,bc
   184B 4D            [ 4] 4294 	ld	c,l
   184C 44            [ 4] 4295 	ld	b,h
   184D 18 86         [12] 4296 	jr	00115$
   184F                    4297 00117$:
                           4298 ;src/main.c:897: cpct_waitVSYNC();
   184F CDr00r00      [17] 4299 	call	_cpct_waitVSYNC
   1852 C3r31r17      [10] 4300 	jp	00119$
   1855 33            [ 6] 4301 	inc	sp
   1856 DD E1         [14] 4302 	pop	ix
   1858 C9            [10] 4303 	ret
                           4304 	.area _CODE
                           4305 	.area _INITIALIZER
   0000                    4306 __xinit__mapa:
   0000 00 00              4307 	.dw #0x0000
   0002                    4308 __xinit__num_mapa:
   0002 00                 4309 	.db #0x00	; 0
   0003                    4310 __xinit__puntuacion:
   0003 00                 4311 	.db #0x00	; 0
   0004                    4312 __xinit__vidas:
   0004 05                 4313 	.db #0x05	; 5
                           4314 	.area _CABS (ABS)
