                              1 ;--------------------------------------------------------
                              2 ; File Created by SDCC : free open source ANSI-C Compiler
                              3 ; Version 3.5.5 #9498 (Linux)
                              4 ;--------------------------------------------------------
                              5 	.module main
                              6 	.optsdcc -mz80
                              7 	
                              8 ;--------------------------------------------------------
                              9 ; Public variables in this module
                             10 ;--------------------------------------------------------
                             11 	.globl _main
                             12 	.globl _inicializarJuego
                             13 	.globl _inicializarCPC
                             14 	.globl _intHandler
                             15 	.globl _moverAbajo
                             16 	.globl _moverArriba
                             17 	.globl _moverDerecha
                             18 	.globl _moverIzquierda
                             19 	.globl _avanzarMapa
                             20 	.globl _inicializarEnemy
                             21 	.globl _updateEnemy
                             22 	.globl _engage
                             23 	.globl _moverEnemigoSeek
                             24 	.globl _lookFor
                             25 	.globl _moverEnemigoPatrol
                             26 	.globl _moverEnemigoIzquierda
                             27 	.globl _moverEnemigoDerecha
                             28 	.globl _moverEnemigoAbajo
                             29 	.globl _moverEnemigoArriba
                             30 	.globl _checkEnemyDead
                             31 	.globl _redibujarEnemigo
                             32 	.globl _borrarEnemigo
                             33 	.globl _borrarExplosion
                             34 	.globl _dibujarExplosion
                             35 	.globl _dibujarEnemigo
                             36 	.globl _checkCollision
                             37 	.globl _comprobarTeclado
                             38 	.globl _redibujarProta
                             39 	.globl _borrarProta
                             40 	.globl _dibujarProta
                             41 	.globl _dibujarMapa
                             42 	.globl _play
                             43 	.globl _pathFinding
                             44 	.globl _moverCuchillo
                             45 	.globl _lanzarCuchillo
                             46 	.globl _redibujarCuchillo
                             47 	.globl _borrarCuchillo
                             48 	.globl _abs
                             49 	.globl _getTilePtr
                             50 	.globl _aumentarPuntuacion
                             51 	.globl _modificarPuntuacion
                             52 	.globl _barraPuntuacionInicial
                             53 	.globl _menuInicio
                             54 	.globl _menuFin
                             55 	.globl _cpct_etm_setTileset2x4
                             56 	.globl _cpct_etm_drawTileBox2x4
                             57 	.globl _cpct_getScreenPtr
                             58 	.globl _cpct_setPALColour
                             59 	.globl _cpct_setPalette
                             60 	.globl _cpct_waitVSYNC
                             61 	.globl _cpct_setVideoMode
                             62 	.globl _cpct_drawSpriteMaskedAlignedTable
                             63 	.globl _cpct_isAnyKeyPressed
                             64 	.globl _cpct_isKeyPressed
                             65 	.globl _cpct_scanKeyboard_if
                             66 	.globl _cpct_disableFirmware
                             67 	.globl _i
                             68 	.globl _vidas
                             69 	.globl _puntuacion
                             70 	.globl _num_mapa
                             71 	.globl _mapa
                             72 	.globl _cu
                             73 	.globl _prota
                             74 	.globl _enemy
                             75 	.globl _patrolY
                             76 	.globl _patrolX
                             77 	.globl _spawnY
                             78 	.globl _spawnX
                             79 	.globl _mapas
                             80 ;--------------------------------------------------------
                             81 ; special function registers
                             82 ;--------------------------------------------------------
                             83 ;--------------------------------------------------------
                             84 ; ram data
                             85 ;--------------------------------------------------------
                             86 	.area _DATA
   0000                      87 _enemy::
   0000                      88 	.ds 904
   0388                      89 _prota::
   0388                      90 	.ds 8
   0390                      91 _cu::
   0390                      92 	.ds 11
   039B                      93 _mapa::
   039B                      94 	.ds 2
   039D                      95 _num_mapa::
   039D                      96 	.ds 1
   039E                      97 _puntuacion::
   039E                      98 	.ds 1
   039F                      99 _vidas::
   039F                     100 	.ds 1
   03A0                     101 _i::
   03A0                     102 	.ds 1
                            103 ;--------------------------------------------------------
                            104 ; ram data
                            105 ;--------------------------------------------------------
                            106 	.area _INITIALIZED
                            107 ;--------------------------------------------------------
                            108 ; absolute external ram data
                            109 ;--------------------------------------------------------
                            110 	.area _DABS (ABS)
                            111 ;--------------------------------------------------------
                            112 ; global & static initialisations
                            113 ;--------------------------------------------------------
                            114 	.area _HOME
                            115 	.area _GSINIT
                            116 	.area _GSFINAL
                            117 	.area _GSINIT
                            118 ;--------------------------------------------------------
                            119 ; Home
                            120 ;--------------------------------------------------------
                            121 	.area _HOME
                            122 	.area _HOME
                            123 ;--------------------------------------------------------
                            124 ; code
                            125 ;--------------------------------------------------------
                            126 	.area _CODE
                            127 ;src/main.c:109: cpctm_createTransparentMaskTable(g_tablatrans, 0x0100, M0, 0);
                            128 ;	---------------------------------
                            129 ; Function dummy_cpct_transparentMaskTable0M0_container
                            130 ; ---------------------------------
   0000                     131 _dummy_cpct_transparentMaskTable0M0_container::
                            132 	.area _g_tablatrans_ (ABS) 
   0100                     133 	.org 0x0100 
   0100                     134 	 _g_tablatrans::
   0100 FF AA 55 00 AA AA   135 	.db 0xFF, 0xAA, 0x55, 0x00, 0xAA, 0xAA, 0x00, 0x00 
        00 00
   0108 55 00 55 00 00 00   136 	.db 0x55, 0x00, 0x55, 0x00, 0x00, 0x00, 0x00, 0x00 
        00 00
   0110 AA AA 00 00 AA AA   137 	.db 0xAA, 0xAA, 0x00, 0x00, 0xAA, 0xAA, 0x00, 0x00 
        00 00
   0118 00 00 00 00 00 00   138 	.db 0x00, 0x00, 0x00, 0x00, 0x00, 0x00, 0x00, 0x00 
        00 00
   0120 55 00 55 00 00 00   139 	.db 0x55, 0x00, 0x55, 0x00, 0x00, 0x00, 0x00, 0x00 
        00 00
   0128 55 00 55 00 00 00   140 	.db 0x55, 0x00, 0x55, 0x00, 0x00, 0x00, 0x00, 0x00 
        00 00
   0130 00 00 00 00 00 00   141 	.db 0x00, 0x00, 0x00, 0x00, 0x00, 0x00, 0x00, 0x00 
        00 00
   0138 00 00 00 00 00 00   142 	.db 0x00, 0x00, 0x00, 0x00, 0x00, 0x00, 0x00, 0x00 
        00 00
   0140 AA AA 00 00 AA AA   143 	.db 0xAA, 0xAA, 0x00, 0x00, 0xAA, 0xAA, 0x00, 0x00 
        00 00
   0148 00 00 00 00 00 00   144 	.db 0x00, 0x00, 0x00, 0x00, 0x00, 0x00, 0x00, 0x00 
        00 00
   0150 AA AA 00 00 AA AA   145 	.db 0xAA, 0xAA, 0x00, 0x00, 0xAA, 0xAA, 0x00, 0x00 
        00 00
   0158 00 00 00 00 00 00   146 	.db 0x00, 0x00, 0x00, 0x00, 0x00, 0x00, 0x00, 0x00 
        00 00
   0160 00 00 00 00 00 00   147 	.db 0x00, 0x00, 0x00, 0x00, 0x00, 0x00, 0x00, 0x00 
        00 00
   0168 00 00 00 00 00 00   148 	.db 0x00, 0x00, 0x00, 0x00, 0x00, 0x00, 0x00, 0x00 
        00 00
   0170 00 00 00 00 00 00   149 	.db 0x00, 0x00, 0x00, 0x00, 0x00, 0x00, 0x00, 0x00 
        00 00
   0178 00 00 00 00 00 00   150 	.db 0x00, 0x00, 0x00, 0x00, 0x00, 0x00, 0x00, 0x00 
        00 00
   0180 55 00 55 00 00 00   151 	.db 0x55, 0x00, 0x55, 0x00, 0x00, 0x00, 0x00, 0x00 
        00 00
   0188 55 00 55 00 00 00   152 	.db 0x55, 0x00, 0x55, 0x00, 0x00, 0x00, 0x00, 0x00 
        00 00
   0190 00 00 00 00 00 00   153 	.db 0x00, 0x00, 0x00, 0x00, 0x00, 0x00, 0x00, 0x00 
        00 00
   0198 00 00 00 00 00 00   154 	.db 0x00, 0x00, 0x00, 0x00, 0x00, 0x00, 0x00, 0x00 
        00 00
   01A0 55 00 55 00 00 00   155 	.db 0x55, 0x00, 0x55, 0x00, 0x00, 0x00, 0x00, 0x00 
        00 00
   01A8 55 00 55 00 00 00   156 	.db 0x55, 0x00, 0x55, 0x00, 0x00, 0x00, 0x00, 0x00 
        00 00
   01B0 00 00 00 00 00 00   157 	.db 0x00, 0x00, 0x00, 0x00, 0x00, 0x00, 0x00, 0x00 
        00 00
   01B8 00 00 00 00 00 00   158 	.db 0x00, 0x00, 0x00, 0x00, 0x00, 0x00, 0x00, 0x00 
        00 00
   01C0 00 00 00 00 00 00   159 	.db 0x00, 0x00, 0x00, 0x00, 0x00, 0x00, 0x00, 0x00 
        00 00
   01C8 00 00 00 00 00 00   160 	.db 0x00, 0x00, 0x00, 0x00, 0x00, 0x00, 0x00, 0x00 
        00 00
   01D0 00 00 00 00 00 00   161 	.db 0x00, 0x00, 0x00, 0x00, 0x00, 0x00, 0x00, 0x00 
        00 00
   01D8 00 00 00 00 00 00   162 	.db 0x00, 0x00, 0x00, 0x00, 0x00, 0x00, 0x00, 0x00 
        00 00
   01E0 00 00 00 00 00 00   163 	.db 0x00, 0x00, 0x00, 0x00, 0x00, 0x00, 0x00, 0x00 
        00 00
   01E8 00 00 00 00 00 00   164 	.db 0x00, 0x00, 0x00, 0x00, 0x00, 0x00, 0x00, 0x00 
        00 00
   01F0 00 00 00 00 00 00   165 	.db 0x00, 0x00, 0x00, 0x00, 0x00, 0x00, 0x00, 0x00 
        00 00
   01F8 00 00 00 00 00 00   166 	.db 0x00, 0x00, 0x00, 0x00, 0x00, 0x00, 0x00, 0x00 
        00 00
                            167 	.area _CSEG (REL, CON) 
                            168 ;src/main.c:112: void dibujarMapa() {
                            169 ;	---------------------------------
                            170 ; Function dibujarMapa
                            171 ; ---------------------------------
   0000                     172 _dibujarMapa::
                            173 ;src/main.c:115: cpct_etm_drawTilemap2x4 (g_map1_W, g_map1_H, p, mapa);
   0000 2Ar9Br03      [16]  174 	ld	hl,(_mapa)
   0003 E5            [11]  175 	push	hl
   0004 21 F0 C0      [10]  176 	ld	hl,#0xC0F0
   0007 E5            [11]  177 	push	hl
   0008 21 2C 28      [10]  178 	ld	hl,#0x282C
   000B E5            [11]  179 	push	hl
   000C 2E 00         [ 7]  180 	ld	l, #0x00
   000E E5            [11]  181 	push	hl
   000F AF            [ 4]  182 	xor	a, a
   0010 F5            [11]  183 	push	af
   0011 33            [ 6]  184 	inc	sp
   0012 CDr00r00      [17]  185 	call	_cpct_etm_drawTileBox2x4
   0015 C9            [10]  186 	ret
   0016                     187 _mapas:
   0016r00r00               188 	.dw _g_map1
   0018r00r00               189 	.dw _g_map2
   001Ar00r00               190 	.dw _g_map3
   001C                     191 _spawnX:
   001C 24                  192 	.db #0x24	; 36
   001D 47                  193 	.db #0x47	; 71	'G'
   001E 30                  194 	.db #0x30	; 48	'0'
   001F 18                  195 	.db #0x18	; 24
   0020                     196 _spawnY:
   0020 2C                  197 	.db #0x2C	; 44
   0021 66                  198 	.db #0x66	; 102	'f'
   0022 9A                  199 	.db #0x9A	; 154
   0023 40                  200 	.db #0x40	; 64
   0024                     201 _patrolX:
   0024 00                  202 	.db #0x00	; 0
   0025 00                  203 	.db #0x00	; 0
   0026 00                  204 	.db #0x00	; 0
   0027 00                  205 	.db #0x00	; 0
   0028 00                  206 	.db #0x00	; 0
   0029 42                  207 	.db #0x42	; 66	'B'
   002A 33                  208 	.db #0x33	; 51	'3'
   002B 00                  209 	.db #0x00	; 0
   002C 00                  210 	.db #0x00	; 0
   002D 00                  211 	.db 0x00
   002E 10                  212 	.db #0x10	; 16
   002F 33                  213 	.db #0x33	; 51	'3'
   0030 19                  214 	.db #0x19	; 25
   0031 00                  215 	.db #0x00	; 0
   0032 00                  216 	.db 0x00
   0033 24                  217 	.db #0x24	; 36
   0034 3C                  218 	.db #0x3C	; 60
   0035 30                  219 	.db #0x30	; 48	'0'
   0036 18                  220 	.db #0x18	; 24
   0037 00                  221 	.db 0x00
   0038                     222 _patrolY:
   0038 00                  223 	.db #0x00	; 0
   0039 00                  224 	.db #0x00	; 0
   003A 00                  225 	.db #0x00	; 0
   003B 00                  226 	.db #0x00	; 0
   003C 00                  227 	.db 0x00
   003D 5E                  228 	.db #0x5E	; 94
   003E A6                  229 	.db #0xA6	; 166
   003F 00                  230 	.db #0x00	; 0
   0040 00                  231 	.db #0x00	; 0
   0041 00                  232 	.db 0x00
   0042 2C                  233 	.db #0x2C	; 44
   0043 66                  234 	.db #0x66	; 102	'f'
   0044 9A                  235 	.db #0x9A	; 154
   0045 00                  236 	.db #0x00	; 0
   0046 00                  237 	.db 0x00
   0047 90                  238 	.db #0x90	; 144
   0048 66                  239 	.db #0x66	; 102	'f'
   0049 2C                  240 	.db #0x2C	; 44
   004A 86                  241 	.db #0x86	; 134
   004B 00                  242 	.db 0x00
                            243 ;src/main.c:118: void dibujarProta() {
                            244 ;	---------------------------------
                            245 ; Function dibujarProta
                            246 ; ---------------------------------
   004C                     247 _dibujarProta::
                            248 ;src/main.c:119: u8* pvmem = cpct_getScreenPtr(CPCT_VMEM_START, prota.x, prota.y);
   004C 21r89r03      [10]  249 	ld	hl, #_prota + 1
   004F 56            [ 7]  250 	ld	d,(hl)
   0050 21r88r03      [10]  251 	ld	hl, #_prota + 0
   0053 46            [ 7]  252 	ld	b,(hl)
   0054 D5            [11]  253 	push	de
   0055 33            [ 6]  254 	inc	sp
   0056 C5            [11]  255 	push	bc
   0057 33            [ 6]  256 	inc	sp
   0058 21 00 C0      [10]  257 	ld	hl,#0xC000
   005B E5            [11]  258 	push	hl
   005C CDr00r00      [17]  259 	call	_cpct_getScreenPtr
   005F EB            [ 4]  260 	ex	de,hl
                            261 ;src/main.c:120: cpct_drawSpriteMaskedAlignedTable (prota.sprite, pvmem, G_HERO_W, G_HERO_H, g_tablatrans);
   0060 ED 4Br8Cr03   [20]  262 	ld	bc, (#_prota + 4)
   0064 21r00r01      [10]  263 	ld	hl,#_g_tablatrans
   0067 E5            [11]  264 	push	hl
   0068 21 07 16      [10]  265 	ld	hl,#0x1607
   006B E5            [11]  266 	push	hl
   006C D5            [11]  267 	push	de
   006D C5            [11]  268 	push	bc
   006E CDr00r00      [17]  269 	call	_cpct_drawSpriteMaskedAlignedTable
   0071 C9            [10]  270 	ret
                            271 ;src/main.c:123: void borrarProta() {
                            272 ;	---------------------------------
                            273 ; Function borrarProta
                            274 ; ---------------------------------
   0072                     275 _borrarProta::
   0072 DD E5         [15]  276 	push	ix
   0074 DD 21 00 00   [14]  277 	ld	ix,#0
   0078 DD 39         [15]  278 	add	ix,sp
   007A F5            [11]  279 	push	af
   007B 3B            [ 6]  280 	dec	sp
                            281 ;src/main.c:127: u8 w = 4 + (prota.px & 1);
   007C 21r8Ar03      [10]  282 	ld	hl, #_prota + 2
   007F 4E            [ 7]  283 	ld	c,(hl)
   0080 79            [ 4]  284 	ld	a,c
   0081 E6 01         [ 7]  285 	and	a, #0x01
   0083 47            [ 4]  286 	ld	b,a
   0084 04            [ 4]  287 	inc	b
   0085 04            [ 4]  288 	inc	b
   0086 04            [ 4]  289 	inc	b
   0087 04            [ 4]  290 	inc	b
                            291 ;src/main.c:130: u8 h = 6 + (prota.py & 2 ? 1 : 0);
   0088 21r8Br03      [10]  292 	ld	hl, #_prota + 3
   008B 5E            [ 7]  293 	ld	e,(hl)
   008C CB 4B         [ 8]  294 	bit	1, e
   008E 28 04         [12]  295 	jr	Z,00103$
   0090 3E 01         [ 7]  296 	ld	a,#0x01
   0092 18 02         [12]  297 	jr	00104$
   0094                     298 00103$:
   0094 3E 00         [ 7]  299 	ld	a,#0x00
   0096                     300 00104$:
   0096 C6 06         [ 7]  301 	add	a, #0x06
   0098 DD 77 FD      [19]  302 	ld	-3 (ix),a
                            303 ;src/main.c:132: cpct_etm_drawTileBox2x4 (prota.px / 2, (prota.py - ORIGEN_MAPA_Y)/4, w, h, g_map1_W, p, mapa);
   009B FD 2Ar9Br03   [20]  304 	ld	iy,(_mapa)
   009F 16 00         [ 7]  305 	ld	d,#0x00
   00A1 7B            [ 4]  306 	ld	a,e
   00A2 C6 E8         [ 7]  307 	add	a,#0xE8
   00A4 DD 77 FE      [19]  308 	ld	-2 (ix),a
   00A7 7A            [ 4]  309 	ld	a,d
   00A8 CE FF         [ 7]  310 	adc	a,#0xFF
   00AA DD 77 FF      [19]  311 	ld	-1 (ix),a
   00AD DD 6E FE      [19]  312 	ld	l,-2 (ix)
   00B0 DD 66 FF      [19]  313 	ld	h,-1 (ix)
   00B3 DD CB FF 7E   [20]  314 	bit	7, -1 (ix)
   00B7 28 04         [12]  315 	jr	Z,00105$
   00B9 21 EB FF      [10]  316 	ld	hl,#0xFFEB
   00BC 19            [11]  317 	add	hl,de
   00BD                     318 00105$:
   00BD CB 2C         [ 8]  319 	sra	h
   00BF CB 1D         [ 8]  320 	rr	l
   00C1 CB 2C         [ 8]  321 	sra	h
   00C3 CB 1D         [ 8]  322 	rr	l
   00C5 55            [ 4]  323 	ld	d,l
   00C6 CB 39         [ 8]  324 	srl	c
   00C8 FD E5         [15]  325 	push	iy
   00CA 21 F0 C0      [10]  326 	ld	hl,#0xC0F0
   00CD E5            [11]  327 	push	hl
   00CE 3E 28         [ 7]  328 	ld	a,#0x28
   00D0 F5            [11]  329 	push	af
   00D1 33            [ 6]  330 	inc	sp
   00D2 DD 7E FD      [19]  331 	ld	a,-3 (ix)
   00D5 F5            [11]  332 	push	af
   00D6 33            [ 6]  333 	inc	sp
   00D7 C5            [11]  334 	push	bc
   00D8 33            [ 6]  335 	inc	sp
   00D9 D5            [11]  336 	push	de
   00DA 33            [ 6]  337 	inc	sp
   00DB 79            [ 4]  338 	ld	a,c
   00DC F5            [11]  339 	push	af
   00DD 33            [ 6]  340 	inc	sp
   00DE CDr00r00      [17]  341 	call	_cpct_etm_drawTileBox2x4
   00E1 DD F9         [10]  342 	ld	sp, ix
   00E3 DD E1         [14]  343 	pop	ix
   00E5 C9            [10]  344 	ret
                            345 ;src/main.c:135: void redibujarProta() {
                            346 ;	---------------------------------
                            347 ; Function redibujarProta
                            348 ; ---------------------------------
   00E6                     349 _redibujarProta::
                            350 ;src/main.c:136: borrarProta();
   00E6 CDr72r00      [17]  351 	call	_borrarProta
                            352 ;src/main.c:137: prota.px = prota.x;
   00E9 01r8Ar03      [10]  353 	ld	bc,#_prota + 2
   00EC 3Ar88r03      [13]  354 	ld	a, (#_prota + 0)
   00EF 02            [ 7]  355 	ld	(bc),a
                            356 ;src/main.c:138: prota.py = prota.y;
   00F0 01r8Br03      [10]  357 	ld	bc,#_prota + 3
   00F3 3Ar89r03      [13]  358 	ld	a, (#_prota + 1)
   00F6 02            [ 7]  359 	ld	(bc),a
                            360 ;src/main.c:139: dibujarProta();
   00F7 C3r4Cr00      [10]  361 	jp  _dibujarProta
                            362 ;src/main.c:142: void comprobarTeclado(TKnife* cu, TProta* prota, u8* mapa, u8* g_tablatrans) {
                            363 ;	---------------------------------
                            364 ; Function comprobarTeclado
                            365 ; ---------------------------------
   00FA                     366 _comprobarTeclado::
                            367 ;src/main.c:143: cpct_scanKeyboard_if();
   00FA CDr00r00      [17]  368 	call	_cpct_scanKeyboard_if
                            369 ;src/main.c:145: if (cpct_isAnyKeyPressed()) {
   00FD CDr00r00      [17]  370 	call	_cpct_isAnyKeyPressed
   0100 7D            [ 4]  371 	ld	a,l
   0101 B7            [ 4]  372 	or	a, a
   0102 C8            [11]  373 	ret	Z
                            374 ;src/main.c:146: if (cpct_isKeyPressed(Key_CursorLeft)){
   0103 21 01 01      [10]  375 	ld	hl,#0x0101
   0106 CDr00r00      [17]  376 	call	_cpct_isKeyPressed
   0109 7D            [ 4]  377 	ld	a,l
   010A B7            [ 4]  378 	or	a, a
                            379 ;src/main.c:147: moverIzquierda();
   010B C2r51r15      [10]  380 	jp	NZ,_moverIzquierda
                            381 ;src/main.c:148: }else if (cpct_isKeyPressed(Key_CursorRight)){
   010E 21 00 02      [10]  382 	ld	hl,#0x0200
   0111 CDr00r00      [17]  383 	call	_cpct_isKeyPressed
   0114 7D            [ 4]  384 	ld	a,l
   0115 B7            [ 4]  385 	or	a, a
                            386 ;src/main.c:149: moverDerecha();
   0116 C2r76r15      [10]  387 	jp	NZ,_moverDerecha
                            388 ;src/main.c:150: }else if (cpct_isKeyPressed(Key_CursorUp)){
   0119 21 00 01      [10]  389 	ld	hl,#0x0100
   011C CDr00r00      [17]  390 	call	_cpct_isKeyPressed
   011F 7D            [ 4]  391 	ld	a,l
   0120 B7            [ 4]  392 	or	a, a
                            393 ;src/main.c:151: moverArriba();
   0121 C2rBBr15      [10]  394 	jp	NZ,_moverArriba
                            395 ;src/main.c:152: }else if (cpct_isKeyPressed(Key_CursorDown)){
   0124 21 00 04      [10]  396 	ld	hl,#0x0400
   0127 CDr00r00      [17]  397 	call	_cpct_isKeyPressed
   012A 7D            [ 4]  398 	ld	a,l
   012B B7            [ 4]  399 	or	a, a
                            400 ;src/main.c:153: moverAbajo();
   012C C2rDFr15      [10]  401 	jp	NZ,_moverAbajo
                            402 ;src/main.c:154: }else if (cpct_isKeyPressed(Key_Space)){
   012F 21 05 80      [10]  403 	ld	hl,#0x8005
   0132 CDr00r00      [17]  404 	call	_cpct_isKeyPressed
   0135 7D            [ 4]  405 	ld	a,l
   0136 B7            [ 4]  406 	or	a, a
   0137 C8            [11]  407 	ret	Z
                            408 ;src/main.c:155: lanzarCuchillo(cu, prota, mapa, g_tablatrans);
   0138 21 08 00      [10]  409 	ld	hl, #8
   013B 39            [11]  410 	add	hl, sp
   013C 4E            [ 7]  411 	ld	c, (hl)
   013D 23            [ 6]  412 	inc	hl
   013E 46            [ 7]  413 	ld	b, (hl)
   013F C5            [11]  414 	push	bc
   0140 21 08 00      [10]  415 	ld	hl, #8
   0143 39            [11]  416 	add	hl, sp
   0144 4E            [ 7]  417 	ld	c, (hl)
   0145 23            [ 6]  418 	inc	hl
   0146 46            [ 7]  419 	ld	b, (hl)
   0147 C5            [11]  420 	push	bc
   0148 21 08 00      [10]  421 	ld	hl, #8
   014B 39            [11]  422 	add	hl, sp
   014C 4E            [ 7]  423 	ld	c, (hl)
   014D 23            [ 6]  424 	inc	hl
   014E 46            [ 7]  425 	ld	b, (hl)
   014F C5            [11]  426 	push	bc
   0150 21 08 00      [10]  427 	ld	hl, #8
   0153 39            [11]  428 	add	hl, sp
   0154 4E            [ 7]  429 	ld	c, (hl)
   0155 23            [ 6]  430 	inc	hl
   0156 46            [ 7]  431 	ld	b, (hl)
   0157 C5            [11]  432 	push	bc
   0158 CDr00r00      [17]  433 	call	_lanzarCuchillo
   015B 21 08 00      [10]  434 	ld	hl,#8
   015E 39            [11]  435 	add	hl,sp
   015F F9            [ 6]  436 	ld	sp,hl
   0160 C9            [10]  437 	ret
                            438 ;src/main.c:160: u8 checkCollision(u8 direction) { // check optimization
                            439 ;	---------------------------------
                            440 ; Function checkCollision
                            441 ; ---------------------------------
   0161                     442 _checkCollision::
   0161 DD E5         [15]  443 	push	ix
   0163 DD 21 00 00   [14]  444 	ld	ix,#0
   0167 DD 39         [15]  445 	add	ix,sp
   0169 F5            [11]  446 	push	af
                            447 ;src/main.c:161: u8 *headTile=0, *feetTile=0, *waistTile=0;
   016A 21 00 00      [10]  448 	ld	hl,#0x0000
   016D E3            [19]  449 	ex	(sp), hl
   016E 11 00 00      [10]  450 	ld	de,#0x0000
   0171 01 00 00      [10]  451 	ld	bc,#0x0000
                            452 ;src/main.c:163: switch (direction) {
   0174 3E 03         [ 7]  453 	ld	a,#0x03
   0176 DD 96 04      [19]  454 	sub	a, 4 (ix)
   0179 DArB1r02      [10]  455 	jp	C,00105$
   017C DD 5E 04      [19]  456 	ld	e,4 (ix)
   017F 16 00         [ 7]  457 	ld	d,#0x00
   0181 21r88r01      [10]  458 	ld	hl,#00124$
   0184 19            [11]  459 	add	hl,de
   0185 19            [11]  460 	add	hl,de
   0186 19            [11]  461 	add	hl,de
   0187 E9            [ 4]  462 	jp	(hl)
   0188                     463 00124$:
   0188 C3r94r01      [10]  464 	jp	00101$
   018B C3rE9r01      [10]  465 	jp	00102$
   018E C3r39r02      [10]  466 	jp	00103$
   0191 C3r76r02      [10]  467 	jp	00104$
                            468 ;src/main.c:164: case 0:
   0194                     469 00101$:
                            470 ;src/main.c:165: headTile  = getTilePtr(mapa, prota.x + G_HERO_W, prota.y);
   0194 21r89r03      [10]  471 	ld	hl, #(_prota + 0x0001) + 0
   0197 4E            [ 7]  472 	ld	c,(hl)
   0198 3Ar88r03      [13]  473 	ld	a, (#_prota + 0)
   019B C6 07         [ 7]  474 	add	a, #0x07
   019D 47            [ 4]  475 	ld	b,a
   019E 79            [ 4]  476 	ld	a,c
   019F F5            [11]  477 	push	af
   01A0 33            [ 6]  478 	inc	sp
   01A1 C5            [11]  479 	push	bc
   01A2 33            [ 6]  480 	inc	sp
   01A3 2Ar9Br03      [16]  481 	ld	hl,(_mapa)
   01A6 E5            [11]  482 	push	hl
   01A7 CDr00r00      [17]  483 	call	_getTilePtr
   01AA F1            [10]  484 	pop	af
   01AB F1            [10]  485 	pop	af
   01AC 33            [ 6]  486 	inc	sp
   01AD 33            [ 6]  487 	inc	sp
   01AE E5            [11]  488 	push	hl
                            489 ;src/main.c:166: feetTile  = getTilePtr(mapa, prota.x + G_HERO_W, prota.y + ALTO_PROTA - 2);
   01AF 3Ar89r03      [13]  490 	ld	a, (#(_prota + 0x0001) + 0)
   01B2 C6 14         [ 7]  491 	add	a, #0x14
   01B4 4F            [ 4]  492 	ld	c,a
   01B5 3Ar88r03      [13]  493 	ld	a, (#_prota + 0)
   01B8 C6 07         [ 7]  494 	add	a, #0x07
   01BA 47            [ 4]  495 	ld	b,a
   01BB 79            [ 4]  496 	ld	a,c
   01BC F5            [11]  497 	push	af
   01BD 33            [ 6]  498 	inc	sp
   01BE C5            [11]  499 	push	bc
   01BF 33            [ 6]  500 	inc	sp
   01C0 2Ar9Br03      [16]  501 	ld	hl,(_mapa)
   01C3 E5            [11]  502 	push	hl
   01C4 CDr00r00      [17]  503 	call	_getTilePtr
   01C7 F1            [10]  504 	pop	af
   01C8 F1            [10]  505 	pop	af
   01C9 EB            [ 4]  506 	ex	de,hl
                            507 ;src/main.c:167: waistTile = getTilePtr(mapa, prota.x + G_HERO_W, prota.y + ALTO_PROTA/2);
   01CA 3Ar89r03      [13]  508 	ld	a, (#(_prota + 0x0001) + 0)
   01CD C6 0B         [ 7]  509 	add	a, #0x0B
   01CF 47            [ 4]  510 	ld	b,a
   01D0 3Ar88r03      [13]  511 	ld	a, (#_prota + 0)
   01D3 C6 07         [ 7]  512 	add	a, #0x07
   01D5 D5            [11]  513 	push	de
   01D6 C5            [11]  514 	push	bc
   01D7 33            [ 6]  515 	inc	sp
   01D8 F5            [11]  516 	push	af
   01D9 33            [ 6]  517 	inc	sp
   01DA 2Ar9Br03      [16]  518 	ld	hl,(_mapa)
   01DD E5            [11]  519 	push	hl
   01DE CDr00r00      [17]  520 	call	_getTilePtr
   01E1 F1            [10]  521 	pop	af
   01E2 F1            [10]  522 	pop	af
   01E3 4D            [ 4]  523 	ld	c,l
   01E4 44            [ 4]  524 	ld	b,h
   01E5 D1            [10]  525 	pop	de
                            526 ;src/main.c:168: break;
   01E6 C3rB1r02      [10]  527 	jp	00105$
                            528 ;src/main.c:169: case 1:
   01E9                     529 00102$:
                            530 ;src/main.c:170: headTile  = getTilePtr(mapa, prota.x - 1, prota.y);
   01E9 21r89r03      [10]  531 	ld	hl, #(_prota + 0x0001) + 0
   01EC 56            [ 7]  532 	ld	d,(hl)
   01ED 21r88r03      [10]  533 	ld	hl, #_prota + 0
   01F0 46            [ 7]  534 	ld	b,(hl)
   01F1 05            [ 4]  535 	dec	b
   01F2 D5            [11]  536 	push	de
   01F3 33            [ 6]  537 	inc	sp
   01F4 C5            [11]  538 	push	bc
   01F5 33            [ 6]  539 	inc	sp
   01F6 2Ar9Br03      [16]  540 	ld	hl,(_mapa)
   01F9 E5            [11]  541 	push	hl
   01FA CDr00r00      [17]  542 	call	_getTilePtr
   01FD F1            [10]  543 	pop	af
   01FE F1            [10]  544 	pop	af
   01FF 33            [ 6]  545 	inc	sp
   0200 33            [ 6]  546 	inc	sp
   0201 E5            [11]  547 	push	hl
                            548 ;src/main.c:171: feetTile  = getTilePtr(mapa, prota.x - 1, prota.y + ALTO_PROTA - 2);
   0202 3Ar89r03      [13]  549 	ld	a, (#(_prota + 0x0001) + 0)
   0205 C6 14         [ 7]  550 	add	a, #0x14
   0207 57            [ 4]  551 	ld	d,a
   0208 21r88r03      [10]  552 	ld	hl, #_prota + 0
   020B 46            [ 7]  553 	ld	b,(hl)
   020C 05            [ 4]  554 	dec	b
   020D D5            [11]  555 	push	de
   020E 33            [ 6]  556 	inc	sp
   020F C5            [11]  557 	push	bc
   0210 33            [ 6]  558 	inc	sp
   0211 2Ar9Br03      [16]  559 	ld	hl,(_mapa)
   0214 E5            [11]  560 	push	hl
   0215 CDr00r00      [17]  561 	call	_getTilePtr
   0218 F1            [10]  562 	pop	af
   0219 F1            [10]  563 	pop	af
   021A EB            [ 4]  564 	ex	de,hl
                            565 ;src/main.c:172: waistTile = getTilePtr(mapa, prota.x - 1, prota.y + ALTO_PROTA/2);
   021B 3Ar89r03      [13]  566 	ld	a, (#(_prota + 0x0001) + 0)
   021E C6 0B         [ 7]  567 	add	a, #0x0B
   0220 47            [ 4]  568 	ld	b,a
   0221 3Ar88r03      [13]  569 	ld	a, (#_prota + 0)
   0224 C6 FF         [ 7]  570 	add	a,#0xFF
   0226 D5            [11]  571 	push	de
   0227 C5            [11]  572 	push	bc
   0228 33            [ 6]  573 	inc	sp
   0229 F5            [11]  574 	push	af
   022A 33            [ 6]  575 	inc	sp
   022B 2Ar9Br03      [16]  576 	ld	hl,(_mapa)
   022E E5            [11]  577 	push	hl
   022F CDr00r00      [17]  578 	call	_getTilePtr
   0232 F1            [10]  579 	pop	af
   0233 F1            [10]  580 	pop	af
   0234 4D            [ 4]  581 	ld	c,l
   0235 44            [ 4]  582 	ld	b,h
   0236 D1            [10]  583 	pop	de
                            584 ;src/main.c:173: break;
   0237 18 78         [12]  585 	jr	00105$
                            586 ;src/main.c:174: case 2:
   0239                     587 00103$:
                            588 ;src/main.c:175: headTile   = getTilePtr(mapa, prota.x, prota.y - 2);
   0239 3Ar89r03      [13]  589 	ld	a, (#(_prota + 0x0001) + 0)
   023C C6 FE         [ 7]  590 	add	a,#0xFE
   023E 21r88r03      [10]  591 	ld	hl, #_prota + 0
   0241 56            [ 7]  592 	ld	d,(hl)
   0242 C5            [11]  593 	push	bc
   0243 F5            [11]  594 	push	af
   0244 33            [ 6]  595 	inc	sp
   0245 D5            [11]  596 	push	de
   0246 33            [ 6]  597 	inc	sp
   0247 2Ar9Br03      [16]  598 	ld	hl,(_mapa)
   024A E5            [11]  599 	push	hl
   024B CDr00r00      [17]  600 	call	_getTilePtr
   024E F1            [10]  601 	pop	af
   024F F1            [10]  602 	pop	af
   0250 C1            [10]  603 	pop	bc
   0251 33            [ 6]  604 	inc	sp
   0252 33            [ 6]  605 	inc	sp
   0253 E5            [11]  606 	push	hl
                            607 ;src/main.c:176: feetTile   = getTilePtr(mapa, prota.x + G_HERO_W - 4, prota.y - 2);
   0254 21r89r03      [10]  608 	ld	hl, #(_prota + 0x0001) + 0
   0257 56            [ 7]  609 	ld	d,(hl)
   0258 15            [ 4]  610 	dec	d
   0259 15            [ 4]  611 	dec	d
   025A 3Ar88r03      [13]  612 	ld	a, (#_prota + 0)
   025D C6 03         [ 7]  613 	add	a, #0x03
   025F C5            [11]  614 	push	bc
   0260 D5            [11]  615 	push	de
   0261 33            [ 6]  616 	inc	sp
   0262 F5            [11]  617 	push	af
   0263 33            [ 6]  618 	inc	sp
   0264 2Ar9Br03      [16]  619 	ld	hl,(_mapa)
   0267 E5            [11]  620 	push	hl
   0268 CDr00r00      [17]  621 	call	_getTilePtr
   026B F1            [10]  622 	pop	af
   026C F1            [10]  623 	pop	af
   026D EB            [ 4]  624 	ex	de,hl
   026E C1            [10]  625 	pop	bc
                            626 ;src/main.c:177: *waistTile = 0;
   026F 21 00 00      [10]  627 	ld	hl,#0x0000
   0272 36 00         [10]  628 	ld	(hl),#0x00
                            629 ;src/main.c:178: break;
   0274 18 3B         [12]  630 	jr	00105$
                            631 ;src/main.c:179: case 3:
   0276                     632 00104$:
                            633 ;src/main.c:180: headTile  = getTilePtr(mapa, prota.x, prota.y + ALTO_PROTA  );
   0276 3Ar89r03      [13]  634 	ld	a, (#(_prota + 0x0001) + 0)
   0279 C6 16         [ 7]  635 	add	a, #0x16
   027B 21r88r03      [10]  636 	ld	hl, #_prota + 0
   027E 56            [ 7]  637 	ld	d,(hl)
   027F C5            [11]  638 	push	bc
   0280 F5            [11]  639 	push	af
   0281 33            [ 6]  640 	inc	sp
   0282 D5            [11]  641 	push	de
   0283 33            [ 6]  642 	inc	sp
   0284 2Ar9Br03      [16]  643 	ld	hl,(_mapa)
   0287 E5            [11]  644 	push	hl
   0288 CDr00r00      [17]  645 	call	_getTilePtr
   028B F1            [10]  646 	pop	af
   028C F1            [10]  647 	pop	af
   028D C1            [10]  648 	pop	bc
   028E 33            [ 6]  649 	inc	sp
   028F 33            [ 6]  650 	inc	sp
   0290 E5            [11]  651 	push	hl
                            652 ;src/main.c:181: feetTile  = getTilePtr(mapa, prota.x + G_HERO_W - 4, prota.y + ALTO_PROTA );
   0291 3Ar89r03      [13]  653 	ld	a, (#(_prota + 0x0001) + 0)
   0294 C6 16         [ 7]  654 	add	a, #0x16
   0296 57            [ 4]  655 	ld	d,a
   0297 3Ar88r03      [13]  656 	ld	a, (#_prota + 0)
   029A C6 03         [ 7]  657 	add	a, #0x03
   029C C5            [11]  658 	push	bc
   029D D5            [11]  659 	push	de
   029E 33            [ 6]  660 	inc	sp
   029F F5            [11]  661 	push	af
   02A0 33            [ 6]  662 	inc	sp
   02A1 2Ar9Br03      [16]  663 	ld	hl,(_mapa)
   02A4 E5            [11]  664 	push	hl
   02A5 CDr00r00      [17]  665 	call	_getTilePtr
   02A8 F1            [10]  666 	pop	af
   02A9 F1            [10]  667 	pop	af
   02AA EB            [ 4]  668 	ex	de,hl
   02AB C1            [10]  669 	pop	bc
                            670 ;src/main.c:182: *waistTile = 0;
   02AC 21 00 00      [10]  671 	ld	hl,#0x0000
   02AF 36 00         [10]  672 	ld	(hl),#0x00
                            673 ;src/main.c:184: }
   02B1                     674 00105$:
                            675 ;src/main.c:186: if (*headTile > 2 || *feetTile > 2 || *waistTile > 2)
   02B1 E1            [10]  676 	pop	hl
   02B2 E5            [11]  677 	push	hl
   02B3 6E            [ 7]  678 	ld	l,(hl)
   02B4 3E 02         [ 7]  679 	ld	a,#0x02
   02B6 95            [ 4]  680 	sub	a, l
   02B7 38 0E         [12]  681 	jr	C,00106$
   02B9 1A            [ 7]  682 	ld	a,(de)
   02BA 5F            [ 4]  683 	ld	e,a
   02BB 3E 02         [ 7]  684 	ld	a,#0x02
   02BD 93            [ 4]  685 	sub	a, e
   02BE 38 07         [12]  686 	jr	C,00106$
   02C0 0A            [ 7]  687 	ld	a,(bc)
   02C1 4F            [ 4]  688 	ld	c,a
   02C2 3E 02         [ 7]  689 	ld	a,#0x02
   02C4 91            [ 4]  690 	sub	a, c
   02C5 30 04         [12]  691 	jr	NC,00107$
   02C7                     692 00106$:
                            693 ;src/main.c:187: return 1;
   02C7 2E 01         [ 7]  694 	ld	l,#0x01
   02C9 18 02         [12]  695 	jr	00110$
   02CB                     696 00107$:
                            697 ;src/main.c:189: return 0;
   02CB 2E 00         [ 7]  698 	ld	l,#0x00
   02CD                     699 00110$:
   02CD DD F9         [10]  700 	ld	sp, ix
   02CF DD E1         [14]  701 	pop	ix
   02D1 C9            [10]  702 	ret
                            703 ;src/main.c:192: void dibujarEnemigo(TEnemy *enemy) {
                            704 ;	---------------------------------
                            705 ; Function dibujarEnemigo
                            706 ; ---------------------------------
   02D2                     707 _dibujarEnemigo::
   02D2 DD E5         [15]  708 	push	ix
   02D4 DD 21 00 00   [14]  709 	ld	ix,#0
   02D8 DD 39         [15]  710 	add	ix,sp
                            711 ;src/main.c:193: u8* pvmem = cpct_getScreenPtr(CPCT_VMEM_START, enemy->x, enemy->y);
   02DA DD 4E 04      [19]  712 	ld	c,4 (ix)
   02DD DD 46 05      [19]  713 	ld	b,5 (ix)
   02E0 69            [ 4]  714 	ld	l, c
   02E1 60            [ 4]  715 	ld	h, b
   02E2 23            [ 6]  716 	inc	hl
   02E3 56            [ 7]  717 	ld	d,(hl)
   02E4 0A            [ 7]  718 	ld	a,(bc)
   02E5 C5            [11]  719 	push	bc
   02E6 D5            [11]  720 	push	de
   02E7 33            [ 6]  721 	inc	sp
   02E8 F5            [11]  722 	push	af
   02E9 33            [ 6]  723 	inc	sp
   02EA 21 00 C0      [10]  724 	ld	hl,#0xC000
   02ED E5            [11]  725 	push	hl
   02EE CDr00r00      [17]  726 	call	_cpct_getScreenPtr
   02F1 EB            [ 4]  727 	ex	de,hl
                            728 ;src/main.c:194: cpct_drawSpriteMaskedAlignedTable (enemy->sprite, pvmem, G_ENEMY_W, G_ENEMY_H, g_tablatrans);
   02F2 E1            [10]  729 	pop	hl
   02F3 01 04 00      [10]  730 	ld	bc, #0x0004
   02F6 09            [11]  731 	add	hl, bc
   02F7 4E            [ 7]  732 	ld	c,(hl)
   02F8 23            [ 6]  733 	inc	hl
   02F9 46            [ 7]  734 	ld	b,(hl)
   02FA 21r00r01      [10]  735 	ld	hl,#_g_tablatrans
   02FD E5            [11]  736 	push	hl
   02FE 21 04 16      [10]  737 	ld	hl,#0x1604
   0301 E5            [11]  738 	push	hl
   0302 D5            [11]  739 	push	de
   0303 C5            [11]  740 	push	bc
   0304 CDr00r00      [17]  741 	call	_cpct_drawSpriteMaskedAlignedTable
   0307 DD E1         [14]  742 	pop	ix
   0309 C9            [10]  743 	ret
                            744 ;src/main.c:197: void dibujarExplosion(TEnemy *enemy) {
                            745 ;	---------------------------------
                            746 ; Function dibujarExplosion
                            747 ; ---------------------------------
   030A                     748 _dibujarExplosion::
   030A DD E5         [15]  749 	push	ix
   030C DD 21 00 00   [14]  750 	ld	ix,#0
   0310 DD 39         [15]  751 	add	ix,sp
                            752 ;src/main.c:198: u8* pvmem = cpct_getScreenPtr(CPCT_VMEM_START, enemy->x, enemy->y);
   0312 DD 4E 04      [19]  753 	ld	c,4 (ix)
   0315 DD 46 05      [19]  754 	ld	b,5 (ix)
   0318 69            [ 4]  755 	ld	l, c
   0319 60            [ 4]  756 	ld	h, b
   031A 23            [ 6]  757 	inc	hl
   031B 56            [ 7]  758 	ld	d,(hl)
   031C 0A            [ 7]  759 	ld	a,(bc)
   031D 47            [ 4]  760 	ld	b,a
   031E D5            [11]  761 	push	de
   031F 33            [ 6]  762 	inc	sp
   0320 C5            [11]  763 	push	bc
   0321 33            [ 6]  764 	inc	sp
   0322 21 00 C0      [10]  765 	ld	hl,#0xC000
   0325 E5            [11]  766 	push	hl
   0326 CDr00r00      [17]  767 	call	_cpct_getScreenPtr
   0329 4D            [ 4]  768 	ld	c,l
   032A 44            [ 4]  769 	ld	b,h
                            770 ;src/main.c:199: cpct_drawSpriteMaskedAlignedTable (g_explosion, pvmem, G_EXPLOSION_W, G_EXPLOSION_H, g_tablatrans);
   032B 11r00r01      [10]  771 	ld	de,#_g_tablatrans+0
   032E D5            [11]  772 	push	de
   032F 21 04 16      [10]  773 	ld	hl,#0x1604
   0332 E5            [11]  774 	push	hl
   0333 C5            [11]  775 	push	bc
   0334 21r00r00      [10]  776 	ld	hl,#_g_explosion
   0337 E5            [11]  777 	push	hl
   0338 CDr00r00      [17]  778 	call	_cpct_drawSpriteMaskedAlignedTable
   033B DD E1         [14]  779 	pop	ix
   033D C9            [10]  780 	ret
                            781 ;src/main.c:202: void borrarExplosion(TEnemy *enemy) {
                            782 ;	---------------------------------
                            783 ; Function borrarExplosion
                            784 ; ---------------------------------
   033E                     785 _borrarExplosion::
   033E DD E5         [15]  786 	push	ix
   0340 DD 21 00 00   [14]  787 	ld	ix,#0
   0344 DD 39         [15]  788 	add	ix,sp
   0346 F5            [11]  789 	push	af
   0347 3B            [ 6]  790 	dec	sp
                            791 ;src/main.c:205: u8 w = 4 + (enemy->px & 1);
   0348 DD 5E 04      [19]  792 	ld	e,4 (ix)
   034B DD 56 05      [19]  793 	ld	d,5 (ix)
   034E 6B            [ 4]  794 	ld	l, e
   034F 62            [ 4]  795 	ld	h, d
   0350 23            [ 6]  796 	inc	hl
   0351 23            [ 6]  797 	inc	hl
   0352 4E            [ 7]  798 	ld	c,(hl)
   0353 79            [ 4]  799 	ld	a,c
   0354 E6 01         [ 7]  800 	and	a, #0x01
   0356 47            [ 4]  801 	ld	b,a
   0357 04            [ 4]  802 	inc	b
   0358 04            [ 4]  803 	inc	b
   0359 04            [ 4]  804 	inc	b
   035A 04            [ 4]  805 	inc	b
                            806 ;src/main.c:206: u8 h = 6 + (enemy->py & 2 ? 1 : 0);
   035B EB            [ 4]  807 	ex	de,hl
   035C 23            [ 6]  808 	inc	hl
   035D 23            [ 6]  809 	inc	hl
   035E 23            [ 6]  810 	inc	hl
   035F 5E            [ 7]  811 	ld	e,(hl)
   0360 CB 4B         [ 8]  812 	bit	1, e
   0362 28 04         [12]  813 	jr	Z,00103$
   0364 3E 01         [ 7]  814 	ld	a,#0x01
   0366 18 02         [12]  815 	jr	00104$
   0368                     816 00103$:
   0368 3E 00         [ 7]  817 	ld	a,#0x00
   036A                     818 00104$:
   036A C6 06         [ 7]  819 	add	a, #0x06
   036C DD 77 FD      [19]  820 	ld	-3 (ix),a
                            821 ;src/main.c:208: cpct_etm_drawTileBox2x4 (enemy->px / 2, (enemy->py - ORIGEN_MAPA_Y)/4, w, h, g_map1_W, p, mapa);
   036F FD 2Ar9Br03   [20]  822 	ld	iy,(_mapa)
   0373 16 00         [ 7]  823 	ld	d,#0x00
   0375 7B            [ 4]  824 	ld	a,e
   0376 C6 E8         [ 7]  825 	add	a,#0xE8
   0378 DD 77 FE      [19]  826 	ld	-2 (ix),a
   037B 7A            [ 4]  827 	ld	a,d
   037C CE FF         [ 7]  828 	adc	a,#0xFF
   037E DD 77 FF      [19]  829 	ld	-1 (ix),a
   0381 DD 6E FE      [19]  830 	ld	l,-2 (ix)
   0384 DD 66 FF      [19]  831 	ld	h,-1 (ix)
   0387 DD CB FF 7E   [20]  832 	bit	7, -1 (ix)
   038B 28 04         [12]  833 	jr	Z,00105$
   038D 21 EB FF      [10]  834 	ld	hl,#0xFFEB
   0390 19            [11]  835 	add	hl,de
   0391                     836 00105$:
   0391 CB 2C         [ 8]  837 	sra	h
   0393 CB 1D         [ 8]  838 	rr	l
   0395 CB 2C         [ 8]  839 	sra	h
   0397 CB 1D         [ 8]  840 	rr	l
   0399 55            [ 4]  841 	ld	d,l
   039A CB 39         [ 8]  842 	srl	c
   039C FD E5         [15]  843 	push	iy
   039E 21 F0 C0      [10]  844 	ld	hl,#0xC0F0
   03A1 E5            [11]  845 	push	hl
   03A2 3E 28         [ 7]  846 	ld	a,#0x28
   03A4 F5            [11]  847 	push	af
   03A5 33            [ 6]  848 	inc	sp
   03A6 DD 7E FD      [19]  849 	ld	a,-3 (ix)
   03A9 F5            [11]  850 	push	af
   03AA 33            [ 6]  851 	inc	sp
   03AB C5            [11]  852 	push	bc
   03AC 33            [ 6]  853 	inc	sp
   03AD D5            [11]  854 	push	de
   03AE 33            [ 6]  855 	inc	sp
   03AF 79            [ 4]  856 	ld	a,c
   03B0 F5            [11]  857 	push	af
   03B1 33            [ 6]  858 	inc	sp
   03B2 CDr00r00      [17]  859 	call	_cpct_etm_drawTileBox2x4
   03B5 DD F9         [10]  860 	ld	sp, ix
   03B7 DD E1         [14]  861 	pop	ix
   03B9 C9            [10]  862 	ret
                            863 ;src/main.c:212: void borrarEnemigo(u8 x, u8 y) {
                            864 ;	---------------------------------
                            865 ; Function borrarEnemigo
                            866 ; ---------------------------------
   03BA                     867 _borrarEnemigo::
   03BA DD E5         [15]  868 	push	ix
   03BC DD 21 00 00   [14]  869 	ld	ix,#0
   03C0 DD 39         [15]  870 	add	ix,sp
   03C2 F5            [11]  871 	push	af
   03C3 F5            [11]  872 	push	af
                            873 ;src/main.c:216: u8 w = 4 + (x & 1);
   03C4 DD 7E 04      [19]  874 	ld	a,4 (ix)
   03C7 E6 01         [ 7]  875 	and	a, #0x01
   03C9 4F            [ 4]  876 	ld	c,a
   03CA 0C            [ 4]  877 	inc	c
   03CB 0C            [ 4]  878 	inc	c
   03CC 0C            [ 4]  879 	inc	c
   03CD 0C            [ 4]  880 	inc	c
                            881 ;src/main.c:218: u8 h = 6 + (y & 3 ? 1 : 0);
   03CE DD 7E 05      [19]  882 	ld	a,5 (ix)
   03D1 E6 03         [ 7]  883 	and	a, #0x03
   03D3 28 04         [12]  884 	jr	Z,00103$
   03D5 3E 01         [ 7]  885 	ld	a,#0x01
   03D7 18 02         [12]  886 	jr	00104$
   03D9                     887 00103$:
   03D9 3E 00         [ 7]  888 	ld	a,#0x00
   03DB                     889 00104$:
   03DB C6 06         [ 7]  890 	add	a, #0x06
   03DD 47            [ 4]  891 	ld	b,a
                            892 ;src/main.c:220: cpct_etm_drawTileBox2x4 (x / 2, (y - ORIGEN_MAPA_Y)/4, w, h, g_map1_W, p, mapa);
   03DE 2Ar9Br03      [16]  893 	ld	hl,(_mapa)
   03E1 DD 75 FE      [19]  894 	ld	-2 (ix),l
   03E4 DD 74 FF      [19]  895 	ld	-1 (ix),h
   03E7 DD 5E 05      [19]  896 	ld	e,5 (ix)
   03EA 16 00         [ 7]  897 	ld	d,#0x00
   03EC 7B            [ 4]  898 	ld	a,e
   03ED C6 E8         [ 7]  899 	add	a,#0xE8
   03EF DD 77 FC      [19]  900 	ld	-4 (ix),a
   03F2 7A            [ 4]  901 	ld	a,d
   03F3 CE FF         [ 7]  902 	adc	a,#0xFF
   03F5 DD 77 FD      [19]  903 	ld	-3 (ix),a
   03F8 E1            [10]  904 	pop	hl
   03F9 E5            [11]  905 	push	hl
   03FA DD CB FD 7E   [20]  906 	bit	7, -3 (ix)
   03FE 28 04         [12]  907 	jr	Z,00105$
   0400 21 EB FF      [10]  908 	ld	hl,#0xFFEB
   0403 19            [11]  909 	add	hl,de
   0404                     910 00105$:
   0404 CB 2C         [ 8]  911 	sra	h
   0406 CB 1D         [ 8]  912 	rr	l
   0408 CB 2C         [ 8]  913 	sra	h
   040A CB 1D         [ 8]  914 	rr	l
   040C 5D            [ 4]  915 	ld	e,l
   040D DD 56 04      [19]  916 	ld	d,4 (ix)
   0410 CB 3A         [ 8]  917 	srl	d
   0412 DD 6E FE      [19]  918 	ld	l,-2 (ix)
   0415 DD 66 FF      [19]  919 	ld	h,-1 (ix)
   0418 E5            [11]  920 	push	hl
   0419 21 F0 C0      [10]  921 	ld	hl,#0xC0F0
   041C E5            [11]  922 	push	hl
   041D 3E 28         [ 7]  923 	ld	a,#0x28
   041F F5            [11]  924 	push	af
   0420 33            [ 6]  925 	inc	sp
   0421 C5            [11]  926 	push	bc
   0422 7B            [ 4]  927 	ld	a,e
   0423 F5            [11]  928 	push	af
   0424 33            [ 6]  929 	inc	sp
   0425 D5            [11]  930 	push	de
   0426 33            [ 6]  931 	inc	sp
   0427 CDr00r00      [17]  932 	call	_cpct_etm_drawTileBox2x4
   042A DD F9         [10]  933 	ld	sp, ix
   042C DD E1         [14]  934 	pop	ix
   042E C9            [10]  935 	ret
                            936 ;src/main.c:223: void redibujarEnemigo(u8 x, u8 y, TEnemy *enemy) {
                            937 ;	---------------------------------
                            938 ; Function redibujarEnemigo
                            939 ; ---------------------------------
   042F                     940 _redibujarEnemigo::
   042F DD E5         [15]  941 	push	ix
   0431 DD 21 00 00   [14]  942 	ld	ix,#0
   0435 DD 39         [15]  943 	add	ix,sp
                            944 ;src/main.c:224: borrarEnemigo(x, y);
   0437 DD 66 05      [19]  945 	ld	h,5 (ix)
   043A DD 6E 04      [19]  946 	ld	l,4 (ix)
   043D E5            [11]  947 	push	hl
   043E CDrBAr03      [17]  948 	call	_borrarEnemigo
   0441 F1            [10]  949 	pop	af
                            950 ;src/main.c:225: enemy->px = enemy->x;
   0442 DD 4E 06      [19]  951 	ld	c,6 (ix)
   0445 DD 46 07      [19]  952 	ld	b,7 (ix)
   0448 59            [ 4]  953 	ld	e, c
   0449 50            [ 4]  954 	ld	d, b
   044A 13            [ 6]  955 	inc	de
   044B 13            [ 6]  956 	inc	de
   044C 0A            [ 7]  957 	ld	a,(bc)
   044D 12            [ 7]  958 	ld	(de),a
                            959 ;src/main.c:226: enemy->py = enemy->y;
   044E 59            [ 4]  960 	ld	e, c
   044F 50            [ 4]  961 	ld	d, b
   0450 13            [ 6]  962 	inc	de
   0451 13            [ 6]  963 	inc	de
   0452 13            [ 6]  964 	inc	de
   0453 69            [ 4]  965 	ld	l, c
   0454 60            [ 4]  966 	ld	h, b
   0455 23            [ 6]  967 	inc	hl
   0456 7E            [ 7]  968 	ld	a,(hl)
   0457 12            [ 7]  969 	ld	(de),a
                            970 ;src/main.c:227: dibujarEnemigo(enemy);
   0458 C5            [11]  971 	push	bc
   0459 CDrD2r02      [17]  972 	call	_dibujarEnemigo
   045C F1            [10]  973 	pop	af
   045D DD E1         [14]  974 	pop	ix
   045F C9            [10]  975 	ret
                            976 ;src/main.c:231: void checkEnemyDead(u8 direction, TEnemy *enemy){
                            977 ;	---------------------------------
                            978 ; Function checkEnemyDead
                            979 ; ---------------------------------
   0460                     980 _checkEnemyDead::
   0460 DD E5         [15]  981 	push	ix
   0462 DD 21 00 00   [14]  982 	ld	ix,#0
   0466 DD 39         [15]  983 	add	ix,sp
   0468 21 FA FF      [10]  984 	ld	hl,#-6
   046B 39            [11]  985 	add	hl,sp
   046C F9            [ 6]  986 	ld	sp,hl
                            987 ;src/main.c:233: switch (direction) {
   046D 3E 03         [ 7]  988 	ld	a,#0x03
   046F DD 96 04      [19]  989 	sub	a, 4 (ix)
   0472 DAr95r05      [10]  990 	jp	C,00134$
                            991 ;src/main.c:235: if( !((cu.y + G_KNIFEX_0_H) < enemy->y || cu.y  > (enemy->y + G_ENEMY_H))){
   0475 DD 4E 05      [19]  992 	ld	c,5 (ix)
   0478 DD 46 06      [19]  993 	ld	b,6 (ix)
   047B 21 01 00      [10]  994 	ld	hl,#0x0001
   047E 09            [11]  995 	add	hl,bc
   047F DD 75 FE      [19]  996 	ld	-2 (ix),l
   0482 DD 74 FF      [19]  997 	ld	-1 (ix),h
                            998 ;src/main.c:238: enemy->muerto = SI;
   0485 21 08 00      [10]  999 	ld	hl,#0x0008
   0488 09            [11] 1000 	add	hl,bc
   0489 E3            [19] 1001 	ex	(sp), hl
                           1002 ;src/main.c:233: switch (direction) {
   048A DD 5E 04      [19] 1003 	ld	e,4 (ix)
   048D 16 00         [ 7] 1004 	ld	d,#0x00
   048F 21r96r04      [10] 1005 	ld	hl,#00178$
   0492 19            [11] 1006 	add	hl,de
   0493 19            [11] 1007 	add	hl,de
   0494 19            [11] 1008 	add	hl,de
   0495 E9            [ 4] 1009 	jp	(hl)
   0496                    1010 00178$:
   0496 C3r10r05      [10] 1011 	jp	00109$
   0499 C3rA2r04      [10] 1012 	jp	00101$
   049C C3r95r05      [10] 1013 	jp	00125$
   049F C3r7Dr05      [10] 1014 	jp	00117$
                           1015 ;src/main.c:234: case 1:
   04A2                    1016 00101$:
                           1017 ;src/main.c:235: if( !((cu.y + G_KNIFEX_0_H) < enemy->y || cu.y  > (enemy->y + G_ENEMY_H))){
   04A2 21r91r03      [10] 1018 	ld	hl, #_cu + 1
   04A5 5E            [ 7] 1019 	ld	e,(hl)
   04A6 16 00         [ 7] 1020 	ld	d,#0x00
   04A8 21 04 00      [10] 1021 	ld	hl,#0x0004
   04AB 19            [11] 1022 	add	hl,de
   04AC DD 75 FC      [19] 1023 	ld	-4 (ix),l
   04AF DD 74 FD      [19] 1024 	ld	-3 (ix),h
   04B2 DD 6E FE      [19] 1025 	ld	l,-2 (ix)
   04B5 DD 66 FF      [19] 1026 	ld	h,-1 (ix)
   04B8 6E            [ 7] 1027 	ld	l,(hl)
   04B9 26 00         [ 7] 1028 	ld	h,#0x00
   04BB DD 7E FC      [19] 1029 	ld	a,-4 (ix)
   04BE 95            [ 4] 1030 	sub	a, l
   04BF DD 7E FD      [19] 1031 	ld	a,-3 (ix)
   04C2 9C            [ 4] 1032 	sbc	a, h
   04C3 E2rC8r04      [10] 1033 	jp	PO, 00179$
   04C6 EE 80         [ 7] 1034 	xor	a, #0x80
   04C8                    1035 00179$:
   04C8 FAr95r05      [10] 1036 	jp	M,00134$
   04CB D5            [11] 1037 	push	de
   04CC 11 16 00      [10] 1038 	ld	de,#0x0016
   04CF 19            [11] 1039 	add	hl, de
   04D0 D1            [10] 1040 	pop	de
   04D1 7D            [ 4] 1041 	ld	a,l
   04D2 93            [ 4] 1042 	sub	a, e
   04D3 7C            [ 4] 1043 	ld	a,h
   04D4 9A            [ 4] 1044 	sbc	a, d
   04D5 E2rDAr04      [10] 1045 	jp	PO, 00180$
   04D8 EE 80         [ 7] 1046 	xor	a, #0x80
   04DA                    1047 00180$:
   04DA FAr95r05      [10] 1048 	jp	M,00134$
                           1049 ;src/main.c:236: if(cu.x > enemy->x + G_ENEMY_W){ //si el cu esta abajo
   04DD 21r90r03      [10] 1050 	ld	hl, #_cu + 0
   04E0 5E            [ 7] 1051 	ld	e,(hl)
   04E1 0A            [ 7] 1052 	ld	a,(bc)
   04E2 4F            [ 4] 1053 	ld	c,a
   04E3 06 00         [ 7] 1054 	ld	b,#0x00
   04E5 03            [ 6] 1055 	inc	bc
   04E6 03            [ 6] 1056 	inc	bc
   04E7 03            [ 6] 1057 	inc	bc
   04E8 03            [ 6] 1058 	inc	bc
   04E9 6B            [ 4] 1059 	ld	l,e
   04EA 26 00         [ 7] 1060 	ld	h,#0x00
   04EC 79            [ 4] 1061 	ld	a,c
   04ED 95            [ 4] 1062 	sub	a, l
   04EE 78            [ 4] 1063 	ld	a,b
   04EF 9C            [ 4] 1064 	sbc	a, h
   04F0 E2rF5r04      [10] 1065 	jp	PO, 00181$
   04F3 EE 80         [ 7] 1066 	xor	a, #0x80
   04F5                    1067 00181$:
   04F5 F2r95r05      [10] 1068 	jp	P,00134$
                           1069 ;src/main.c:237: if( !(cu.x - (enemy->x + G_ENEMY_W) > 1)){ // si hay espacio entre el enemigo y el cu
   04F8 BF            [ 4] 1070 	cp	a, a
   04F9 ED 42         [15] 1071 	sbc	hl, bc
   04FB 3E 01         [ 7] 1072 	ld	a,#0x01
   04FD BD            [ 4] 1073 	cp	a, l
   04FE 3E 00         [ 7] 1074 	ld	a,#0x00
   0500 9C            [ 4] 1075 	sbc	a, h
   0501 E2r06r05      [10] 1076 	jp	PO, 00182$
   0504 EE 80         [ 7] 1077 	xor	a, #0x80
   0506                    1078 00182$:
   0506 FAr95r05      [10] 1079 	jp	M,00134$
                           1080 ;src/main.c:238: enemy->muerto = SI;
   0509 E1            [10] 1081 	pop	hl
   050A E5            [11] 1082 	push	hl
   050B 36 01         [10] 1083 	ld	(hl),#0x01
                           1084 ;src/main.c:242: break;
   050D C3r95r05      [10] 1085 	jp	00134$
                           1086 ;src/main.c:243: case 0:
   0510                    1087 00109$:
                           1088 ;src/main.c:244: if( !((cu.y + G_KNIFEX_0_H) < enemy->y || cu.y  > (enemy->y + G_ENEMY_H))){
   0510 21r91r03      [10] 1089 	ld	hl, #_cu + 1
   0513 5E            [ 7] 1090 	ld	e,(hl)
   0514 16 00         [ 7] 1091 	ld	d,#0x00
   0516 21 04 00      [10] 1092 	ld	hl,#0x0004
   0519 19            [11] 1093 	add	hl,de
   051A DD 75 FC      [19] 1094 	ld	-4 (ix),l
   051D DD 74 FD      [19] 1095 	ld	-3 (ix),h
   0520 DD 6E FE      [19] 1096 	ld	l,-2 (ix)
   0523 DD 66 FF      [19] 1097 	ld	h,-1 (ix)
   0526 6E            [ 7] 1098 	ld	l,(hl)
   0527 26 00         [ 7] 1099 	ld	h,#0x00
   0529 DD 7E FC      [19] 1100 	ld	a,-4 (ix)
   052C 95            [ 4] 1101 	sub	a, l
   052D DD 7E FD      [19] 1102 	ld	a,-3 (ix)
   0530 9C            [ 4] 1103 	sbc	a, h
   0531 E2r36r05      [10] 1104 	jp	PO, 00183$
   0534 EE 80         [ 7] 1105 	xor	a, #0x80
   0536                    1106 00183$:
   0536 FAr95r05      [10] 1107 	jp	M,00134$
   0539 D5            [11] 1108 	push	de
   053A 11 16 00      [10] 1109 	ld	de,#0x0016
   053D 19            [11] 1110 	add	hl, de
   053E D1            [10] 1111 	pop	de
   053F 7D            [ 4] 1112 	ld	a,l
   0540 93            [ 4] 1113 	sub	a, e
   0541 7C            [ 4] 1114 	ld	a,h
   0542 9A            [ 4] 1115 	sbc	a, d
   0543 E2r48r05      [10] 1116 	jp	PO, 00184$
   0546 EE 80         [ 7] 1117 	xor	a, #0x80
   0548                    1118 00184$:
   0548 FAr95r05      [10] 1119 	jp	M,00134$
                           1120 ;src/main.c:245: if(enemy->x > cu.x + G_KNIFEX_0_W){ //si el cu esta abajo
   054B 0A            [ 7] 1121 	ld	a,(bc)
   054C 5F            [ 4] 1122 	ld	e,a
   054D 21r90r03      [10] 1123 	ld	hl, #_cu + 0
   0550 4E            [ 7] 1124 	ld	c,(hl)
   0551 06 00         [ 7] 1125 	ld	b,#0x00
   0553 03            [ 6] 1126 	inc	bc
   0554 03            [ 6] 1127 	inc	bc
   0555 03            [ 6] 1128 	inc	bc
   0556 03            [ 6] 1129 	inc	bc
   0557 6B            [ 4] 1130 	ld	l,e
   0558 26 00         [ 7] 1131 	ld	h,#0x00
   055A 79            [ 4] 1132 	ld	a,c
   055B 95            [ 4] 1133 	sub	a, l
   055C 78            [ 4] 1134 	ld	a,b
   055D 9C            [ 4] 1135 	sbc	a, h
   055E E2r63r05      [10] 1136 	jp	PO, 00185$
   0561 EE 80         [ 7] 1137 	xor	a, #0x80
   0563                    1138 00185$:
   0563 F2r95r05      [10] 1139 	jp	P,00134$
                           1140 ;src/main.c:246: if( !(enemy->x - (cu.x + G_KNIFEX_0_W) > 1)){ // si hay espacio entre el enemigo y el cu
   0566 BF            [ 4] 1141 	cp	a, a
   0567 ED 42         [15] 1142 	sbc	hl, bc
   0569 3E 01         [ 7] 1143 	ld	a,#0x01
   056B BD            [ 4] 1144 	cp	a, l
   056C 3E 00         [ 7] 1145 	ld	a,#0x00
   056E 9C            [ 4] 1146 	sbc	a, h
   056F E2r74r05      [10] 1147 	jp	PO, 00186$
   0572 EE 80         [ 7] 1148 	xor	a, #0x80
   0574                    1149 00186$:
   0574 FAr95r05      [10] 1150 	jp	M,00134$
                           1151 ;src/main.c:247: enemy->muerto = SI;
   0577 E1            [10] 1152 	pop	hl
   0578 E5            [11] 1153 	push	hl
   0579 36 01         [10] 1154 	ld	(hl),#0x01
                           1155 ;src/main.c:251: break;
   057B 18 18         [12] 1156 	jr	00134$
                           1157 ;src/main.c:252: case 3:
   057D                    1158 00117$:
                           1159 ;src/main.c:253: if(!((cu.x + G_KNIFEY_0_W) < enemy->x || cu.x  > (enemy->x + G_ENEMY_W))){
   057D 21r90r03      [10] 1160 	ld	hl,#_cu+0
   0580 5E            [ 7] 1161 	ld	e,(hl)
   0581 16 00         [ 7] 1162 	ld	d,#0x00
   0583 13            [ 6] 1163 	inc	de
   0584 13            [ 6] 1164 	inc	de
   0585 0A            [ 7] 1165 	ld	a,(bc)
   0586 4F            [ 4] 1166 	ld	c,a
   0587 06 00         [ 7] 1167 	ld	b,#0x00
   0589 7B            [ 4] 1168 	ld	a,e
   058A 91            [ 4] 1169 	sub	a, c
   058B 7A            [ 4] 1170 	ld	a,d
   058C 98            [ 4] 1171 	sbc	a, b
   058D E2r92r05      [10] 1172 	jp	PO, 00187$
   0590 EE 80         [ 7] 1173 	xor	a, #0x80
   0592                    1174 00187$:
   0592 07            [ 4] 1175 	rlca
   0593 E6 01         [ 7] 1176 	and	a,#0x01
                           1177 ;src/main.c:260: break;
                           1178 ;src/main.c:261: case 2:
                           1179 ;src/main.c:271: }
   0595                    1180 00125$:
   0595                    1181 00134$:
   0595 DD F9         [10] 1182 	ld	sp, ix
   0597 DD E1         [14] 1183 	pop	ix
   0599 C9            [10] 1184 	ret
                           1185 ;src/main.c:274: void moverEnemigoArriba(TEnemy *enemy){
                           1186 ;	---------------------------------
                           1187 ; Function moverEnemigoArriba
                           1188 ; ---------------------------------
   059A                    1189 _moverEnemigoArriba::
   059A DD E5         [15] 1190 	push	ix
   059C DD 21 00 00   [14] 1191 	ld	ix,#0
   05A0 DD 39         [15] 1192 	add	ix,sp
                           1193 ;src/main.c:275: enemy->y--;
   05A2 DD 4E 04      [19] 1194 	ld	c,4 (ix)
   05A5 DD 46 05      [19] 1195 	ld	b,5 (ix)
   05A8 69            [ 4] 1196 	ld	l, c
   05A9 60            [ 4] 1197 	ld	h, b
   05AA 23            [ 6] 1198 	inc	hl
   05AB 5E            [ 7] 1199 	ld	e,(hl)
   05AC 1D            [ 4] 1200 	dec	e
   05AD 73            [ 7] 1201 	ld	(hl),e
                           1202 ;src/main.c:276: enemy->y--;
   05AE 1D            [ 4] 1203 	dec	e
   05AF 73            [ 7] 1204 	ld	(hl),e
                           1205 ;src/main.c:277: enemy->mover = SI;
   05B0 21 06 00      [10] 1206 	ld	hl,#0x0006
   05B3 09            [11] 1207 	add	hl,bc
   05B4 36 01         [10] 1208 	ld	(hl),#0x01
   05B6 DD E1         [14] 1209 	pop	ix
   05B8 C9            [10] 1210 	ret
                           1211 ;src/main.c:280: void moverEnemigoAbajo(TEnemy *enemy){
                           1212 ;	---------------------------------
                           1213 ; Function moverEnemigoAbajo
                           1214 ; ---------------------------------
   05B9                    1215 _moverEnemigoAbajo::
   05B9 DD E5         [15] 1216 	push	ix
   05BB DD 21 00 00   [14] 1217 	ld	ix,#0
   05BF DD 39         [15] 1218 	add	ix,sp
                           1219 ;src/main.c:281: enemy->y++;
   05C1 DD 4E 04      [19] 1220 	ld	c,4 (ix)
   05C4 DD 46 05      [19] 1221 	ld	b,5 (ix)
   05C7 59            [ 4] 1222 	ld	e, c
   05C8 50            [ 4] 1223 	ld	d, b
   05C9 13            [ 6] 1224 	inc	de
   05CA 1A            [ 7] 1225 	ld	a,(de)
   05CB 3C            [ 4] 1226 	inc	a
   05CC 12            [ 7] 1227 	ld	(de),a
                           1228 ;src/main.c:282: enemy->y++;
   05CD 3C            [ 4] 1229 	inc	a
   05CE 12            [ 7] 1230 	ld	(de),a
                           1231 ;src/main.c:283: enemy->mover = SI;
   05CF 21 06 00      [10] 1232 	ld	hl,#0x0006
   05D2 09            [11] 1233 	add	hl,bc
   05D3 36 01         [10] 1234 	ld	(hl),#0x01
   05D5 DD E1         [14] 1235 	pop	ix
   05D7 C9            [10] 1236 	ret
                           1237 ;src/main.c:286: void moverEnemigoDerecha(TEnemy *enemy){
                           1238 ;	---------------------------------
                           1239 ; Function moverEnemigoDerecha
                           1240 ; ---------------------------------
   05D8                    1241 _moverEnemigoDerecha::
                           1242 ;src/main.c:287: enemy->x++;
   05D8 D1            [10] 1243 	pop	de
   05D9 C1            [10] 1244 	pop	bc
   05DA C5            [11] 1245 	push	bc
   05DB D5            [11] 1246 	push	de
   05DC 0A            [ 7] 1247 	ld	a,(bc)
   05DD 3C            [ 4] 1248 	inc	a
   05DE 02            [ 7] 1249 	ld	(bc),a
                           1250 ;src/main.c:288: enemy->x++;
   05DF 3C            [ 4] 1251 	inc	a
   05E0 02            [ 7] 1252 	ld	(bc),a
                           1253 ;src/main.c:289: enemy->mover = SI;
   05E1 21 06 00      [10] 1254 	ld	hl,#0x0006
   05E4 09            [11] 1255 	add	hl,bc
   05E5 36 01         [10] 1256 	ld	(hl),#0x01
   05E7 C9            [10] 1257 	ret
                           1258 ;src/main.c:292: void moverEnemigoIzquierda(TEnemy *enemy){
                           1259 ;	---------------------------------
                           1260 ; Function moverEnemigoIzquierda
                           1261 ; ---------------------------------
   05E8                    1262 _moverEnemigoIzquierda::
                           1263 ;src/main.c:293: enemy->x--;
   05E8 D1            [10] 1264 	pop	de
   05E9 C1            [10] 1265 	pop	bc
   05EA C5            [11] 1266 	push	bc
   05EB D5            [11] 1267 	push	de
   05EC 0A            [ 7] 1268 	ld	a,(bc)
   05ED C6 FF         [ 7] 1269 	add	a,#0xFF
   05EF 02            [ 7] 1270 	ld	(bc),a
                           1271 ;src/main.c:294: enemy->x--;
   05F0 C6 FF         [ 7] 1272 	add	a,#0xFF
   05F2 02            [ 7] 1273 	ld	(bc),a
                           1274 ;src/main.c:295: enemy->mover = SI;
   05F3 21 06 00      [10] 1275 	ld	hl,#0x0006
   05F6 09            [11] 1276 	add	hl,bc
   05F7 36 01         [10] 1277 	ld	(hl),#0x01
   05F9 C9            [10] 1278 	ret
                           1279 ;src/main.c:298: void moverEnemigoPatrol(TEnemy* enemy){
                           1280 ;	---------------------------------
                           1281 ; Function moverEnemigoPatrol
                           1282 ; ---------------------------------
   05FA                    1283 _moverEnemigoPatrol::
   05FA DD E5         [15] 1284 	push	ix
   05FC DD 21 00 00   [14] 1285 	ld	ix,#0
   0600 DD 39         [15] 1286 	add	ix,sp
   0602 21 F3 FF      [10] 1287 	ld	hl,#-13
   0605 39            [11] 1288 	add	hl,sp
   0606 F9            [ 6] 1289 	ld	sp,hl
                           1290 ;src/main.c:300: if(!enemy->muerto){
   0607 DD 4E 04      [19] 1291 	ld	c,4 (ix)
   060A DD 46 05      [19] 1292 	ld	b,5 (ix)
   060D C5            [11] 1293 	push	bc
   060E FD E1         [14] 1294 	pop	iy
   0610 FD 7E 08      [19] 1295 	ld	a,8 (iy)
   0613 B7            [ 4] 1296 	or	a, a
   0614 C2r53r08      [10] 1297 	jp	NZ,00118$
                           1298 ;src/main.c:301: if (!enemy->reversePatrol) {
   0617 21 0C 00      [10] 1299 	ld	hl,#0x000C
   061A 09            [11] 1300 	add	hl,bc
   061B DD 75 F4      [19] 1301 	ld	-12 (ix),l
   061E DD 74 F5      [19] 1302 	ld	-11 (ix),h
   0621 DD 6E F4      [19] 1303 	ld	l,-12 (ix)
   0624 DD 66 F5      [19] 1304 	ld	h,-11 (ix)
   0627 7E            [ 7] 1305 	ld	a,(hl)
   0628 DD 77 F3      [19] 1306 	ld	-13 (ix),a
                           1307 ;src/main.c:302: if(enemy->iter < enemy->longitud_camino){
   062B 21 0E 00      [10] 1308 	ld	hl,#0x000E
   062E 09            [11] 1309 	add	hl,bc
   062F DD 75 F8      [19] 1310 	ld	-8 (ix),l
   0632 DD 74 F9      [19] 1311 	ld	-7 (ix),h
   0635 DD 6E F8      [19] 1312 	ld	l,-8 (ix)
   0638 DD 66 F9      [19] 1313 	ld	h,-7 (ix)
   063B 5E            [ 7] 1314 	ld	e,(hl)
   063C 23            [ 6] 1315 	inc	hl
   063D 56            [ 7] 1316 	ld	d,(hl)
   063E 21 E1 00      [10] 1317 	ld	hl,#0x00E1
   0641 09            [11] 1318 	add	hl,bc
   0642 DD 75 FA      [19] 1319 	ld	-6 (ix),l
   0645 DD 74 FB      [19] 1320 	ld	-5 (ix),h
                           1321 ;src/main.c:304: enemy->mover = SI;
   0648 21 06 00      [10] 1322 	ld	hl,#0x0006
   064B 09            [11] 1323 	add	hl,bc
   064C DD 75 FE      [19] 1324 	ld	-2 (ix),l
   064F DD 74 FF      [19] 1325 	ld	-1 (ix),h
                           1326 ;src/main.c:306: enemy->x = enemy->camino[enemy->iter];
   0652 21 19 00      [10] 1327 	ld	hl,#0x0019
   0655 09            [11] 1328 	add	hl,bc
   0656 DD 75 F6      [19] 1329 	ld	-10 (ix),l
   0659 DD 74 F7      [19] 1330 	ld	-9 (ix),h
                           1331 ;src/main.c:308: enemy->y = enemy->camino[enemy->iter];
   065C 21 01 00      [10] 1332 	ld	hl,#0x0001
   065F 09            [11] 1333 	add	hl,bc
   0660 DD 75 FC      [19] 1334 	ld	-4 (ix),l
   0663 DD 74 FD      [19] 1335 	ld	-3 (ix),h
                           1336 ;src/main.c:301: if (!enemy->reversePatrol) {
   0666 DD 7E F3      [19] 1337 	ld	a,-13 (ix)
   0669 B7            [ 4] 1338 	or	a, a
   066A C2r49r07      [10] 1339 	jp	NZ,00114$
                           1340 ;src/main.c:302: if(enemy->iter < enemy->longitud_camino){
   066D DD 6E FA      [19] 1341 	ld	l,-6 (ix)
   0670 DD 66 FB      [19] 1342 	ld	h,-5 (ix)
   0673 6E            [ 7] 1343 	ld	l,(hl)
   0674 26 00         [ 7] 1344 	ld	h,#0x00
   0676 7B            [ 4] 1345 	ld	a,e
   0677 95            [ 4] 1346 	sub	a, l
   0678 7A            [ 4] 1347 	ld	a,d
   0679 9C            [ 4] 1348 	sbc	a, h
   067A E2r7Fr06      [10] 1349 	jp	PO, 00144$
   067D EE 80         [ 7] 1350 	xor	a, #0x80
   067F                    1351 00144$:
   067F F2r24r07      [10] 1352 	jp	P,00105$
                           1353 ;src/main.c:303: if(enemy->iter == 0){
   0682 7A            [ 4] 1354 	ld	a,d
   0683 B3            [ 4] 1355 	or	a,e
   0684 20 54         [12] 1356 	jr	NZ,00102$
                           1357 ;src/main.c:304: enemy->mover = SI;
   0686 DD 6E FE      [19] 1358 	ld	l,-2 (ix)
   0689 DD 66 FF      [19] 1359 	ld	h,-1 (ix)
   068C 36 01         [10] 1360 	ld	(hl),#0x01
                           1361 ;src/main.c:305: enemy->iter = 2;
   068E DD 6E F8      [19] 1362 	ld	l,-8 (ix)
   0691 DD 66 F9      [19] 1363 	ld	h,-7 (ix)
   0694 36 02         [10] 1364 	ld	(hl),#0x02
   0696 23            [ 6] 1365 	inc	hl
   0697 36 00         [10] 1366 	ld	(hl),#0x00
                           1367 ;src/main.c:306: enemy->x = enemy->camino[enemy->iter];
   0699 DD 6E F8      [19] 1368 	ld	l,-8 (ix)
   069C DD 66 F9      [19] 1369 	ld	h,-7 (ix)
   069F 5E            [ 7] 1370 	ld	e,(hl)
   06A0 23            [ 6] 1371 	inc	hl
   06A1 56            [ 7] 1372 	ld	d,(hl)
   06A2 DD 6E F6      [19] 1373 	ld	l,-10 (ix)
   06A5 DD 66 F7      [19] 1374 	ld	h,-9 (ix)
   06A8 19            [11] 1375 	add	hl,de
   06A9 7E            [ 7] 1376 	ld	a,(hl)
   06AA 02            [ 7] 1377 	ld	(bc),a
                           1378 ;src/main.c:307: ++enemy->iter;
   06AB DD 6E F8      [19] 1379 	ld	l,-8 (ix)
   06AE DD 66 F9      [19] 1380 	ld	h,-7 (ix)
   06B1 4E            [ 7] 1381 	ld	c,(hl)
   06B2 23            [ 6] 1382 	inc	hl
   06B3 46            [ 7] 1383 	ld	b,(hl)
   06B4 03            [ 6] 1384 	inc	bc
   06B5 DD 6E F8      [19] 1385 	ld	l,-8 (ix)
   06B8 DD 66 F9      [19] 1386 	ld	h,-7 (ix)
   06BB 71            [ 7] 1387 	ld	(hl),c
   06BC 23            [ 6] 1388 	inc	hl
   06BD 70            [ 7] 1389 	ld	(hl),b
                           1390 ;src/main.c:308: enemy->y = enemy->camino[enemy->iter];
   06BE DD 6E F6      [19] 1391 	ld	l,-10 (ix)
   06C1 DD 66 F7      [19] 1392 	ld	h,-9 (ix)
   06C4 09            [11] 1393 	add	hl,bc
   06C5 5E            [ 7] 1394 	ld	e,(hl)
   06C6 DD 6E FC      [19] 1395 	ld	l,-4 (ix)
   06C9 DD 66 FD      [19] 1396 	ld	h,-3 (ix)
   06CC 73            [ 7] 1397 	ld	(hl),e
                           1398 ;src/main.c:309: ++enemy->iter;
   06CD 03            [ 6] 1399 	inc	bc
   06CE DD 6E F8      [19] 1400 	ld	l,-8 (ix)
   06D1 DD 66 F9      [19] 1401 	ld	h,-7 (ix)
   06D4 71            [ 7] 1402 	ld	(hl),c
   06D5 23            [ 6] 1403 	inc	hl
   06D6 70            [ 7] 1404 	ld	(hl),b
   06D7 C3r53r08      [10] 1405 	jp	00118$
   06DA                    1406 00102$:
                           1407 ;src/main.c:311: enemy->mover = SI;
   06DA DD 6E FE      [19] 1408 	ld	l,-2 (ix)
   06DD DD 66 FF      [19] 1409 	ld	h,-1 (ix)
   06E0 36 01         [10] 1410 	ld	(hl),#0x01
                           1411 ;src/main.c:312: enemy->x = enemy->camino[enemy->iter];
   06E2 DD 6E F8      [19] 1412 	ld	l,-8 (ix)
   06E5 DD 66 F9      [19] 1413 	ld	h,-7 (ix)
   06E8 5E            [ 7] 1414 	ld	e,(hl)
   06E9 23            [ 6] 1415 	inc	hl
   06EA 56            [ 7] 1416 	ld	d,(hl)
   06EB DD 6E F6      [19] 1417 	ld	l,-10 (ix)
   06EE DD 66 F7      [19] 1418 	ld	h,-9 (ix)
   06F1 19            [11] 1419 	add	hl,de
   06F2 7E            [ 7] 1420 	ld	a,(hl)
   06F3 02            [ 7] 1421 	ld	(bc),a
                           1422 ;src/main.c:313: ++enemy->iter;
   06F4 DD 6E F8      [19] 1423 	ld	l,-8 (ix)
   06F7 DD 66 F9      [19] 1424 	ld	h,-7 (ix)
   06FA 5E            [ 7] 1425 	ld	e,(hl)
   06FB 23            [ 6] 1426 	inc	hl
   06FC 56            [ 7] 1427 	ld	d,(hl)
   06FD 13            [ 6] 1428 	inc	de
   06FE DD 6E F8      [19] 1429 	ld	l,-8 (ix)
   0701 DD 66 F9      [19] 1430 	ld	h,-7 (ix)
   0704 73            [ 7] 1431 	ld	(hl),e
   0705 23            [ 6] 1432 	inc	hl
   0706 72            [ 7] 1433 	ld	(hl),d
                           1434 ;src/main.c:314: enemy->y = enemy->camino[enemy->iter];
   0707 DD 6E F6      [19] 1435 	ld	l,-10 (ix)
   070A DD 66 F7      [19] 1436 	ld	h,-9 (ix)
   070D 19            [11] 1437 	add	hl,de
   070E 7E            [ 7] 1438 	ld	a,(hl)
   070F DD 6E FC      [19] 1439 	ld	l,-4 (ix)
   0712 DD 66 FD      [19] 1440 	ld	h,-3 (ix)
   0715 77            [ 7] 1441 	ld	(hl),a
                           1442 ;src/main.c:315: ++enemy->iter;
   0716 13            [ 6] 1443 	inc	de
   0717 4B            [ 4] 1444 	ld	c,e
   0718 DD 6E F8      [19] 1445 	ld	l,-8 (ix)
   071B DD 66 F9      [19] 1446 	ld	h,-7 (ix)
   071E 71            [ 7] 1447 	ld	(hl),c
   071F 23            [ 6] 1448 	inc	hl
   0720 72            [ 7] 1449 	ld	(hl),d
   0721 C3r53r08      [10] 1450 	jp	00118$
   0724                    1451 00105$:
                           1452 ;src/main.c:319: enemy->mover = NO;
   0724 DD 6E FE      [19] 1453 	ld	l,-2 (ix)
   0727 DD 66 FF      [19] 1454 	ld	h,-1 (ix)
   072A 36 00         [10] 1455 	ld	(hl),#0x00
                           1456 ;src/main.c:320: enemy->iter = enemy->longitud_camino;
   072C DD 6E FA      [19] 1457 	ld	l,-6 (ix)
   072F DD 66 FB      [19] 1458 	ld	h,-5 (ix)
   0732 4E            [ 7] 1459 	ld	c,(hl)
   0733 06 00         [ 7] 1460 	ld	b,#0x00
   0735 DD 6E F8      [19] 1461 	ld	l,-8 (ix)
   0738 DD 66 F9      [19] 1462 	ld	h,-7 (ix)
   073B 71            [ 7] 1463 	ld	(hl),c
   073C 23            [ 6] 1464 	inc	hl
   073D 70            [ 7] 1465 	ld	(hl),b
                           1466 ;src/main.c:321: enemy->reversePatrol = 1;
   073E DD 6E F4      [19] 1467 	ld	l,-12 (ix)
   0741 DD 66 F5      [19] 1468 	ld	h,-11 (ix)
   0744 36 01         [10] 1469 	ld	(hl),#0x01
   0746 C3r53r08      [10] 1470 	jp	00118$
   0749                    1471 00114$:
                           1472 ;src/main.c:324: if(enemy->iter > 0){
   0749 AF            [ 4] 1473 	xor	a, a
   074A BB            [ 4] 1474 	cp	a, e
   074B 9A            [ 4] 1475 	sbc	a, d
   074C E2r51r07      [10] 1476 	jp	PO, 00145$
   074F EE 80         [ 7] 1477 	xor	a, #0x80
   0751                    1478 00145$:
   0751 F2r39r08      [10] 1479 	jp	P,00111$
                           1480 ;src/main.c:325: if(enemy->iter == enemy->longitud_camino){
   0754 DD 6E FA      [19] 1481 	ld	l,-6 (ix)
   0757 DD 66 FB      [19] 1482 	ld	h,-5 (ix)
   075A 6E            [ 7] 1483 	ld	l,(hl)
   075B DD 75 FA      [19] 1484 	ld	-6 (ix),l
   075E DD 36 FB 00   [19] 1485 	ld	-5 (ix),#0x00
   0762 7B            [ 4] 1486 	ld	a,e
   0763 DD 96 FA      [19] 1487 	sub	a, -6 (ix)
   0766 C2rF1r07      [10] 1488 	jp	NZ,00108$
   0769 7A            [ 4] 1489 	ld	a,d
   076A DD 96 FB      [19] 1490 	sub	a, -5 (ix)
   076D C2rF1r07      [10] 1491 	jp	NZ,00108$
                           1492 ;src/main.c:326: enemy->mover = SI;
   0770 DD 6E FE      [19] 1493 	ld	l,-2 (ix)
   0773 DD 66 FF      [19] 1494 	ld	h,-1 (ix)
   0776 36 01         [10] 1495 	ld	(hl),#0x01
                           1496 ;src/main.c:327: enemy->iter = enemy->iter - 1;
   0778 DD 6E F8      [19] 1497 	ld	l,-8 (ix)
   077B DD 66 F9      [19] 1498 	ld	h,-7 (ix)
   077E 5E            [ 7] 1499 	ld	e,(hl)
   077F 23            [ 6] 1500 	inc	hl
   0780 56            [ 7] 1501 	ld	d,(hl)
   0781 7B            [ 4] 1502 	ld	a,e
   0782 C6 FF         [ 7] 1503 	add	a,#0xFF
   0784 DD 77 FA      [19] 1504 	ld	-6 (ix),a
   0787 7A            [ 4] 1505 	ld	a,d
   0788 CE FF         [ 7] 1506 	adc	a,#0xFF
   078A DD 77 FB      [19] 1507 	ld	-5 (ix),a
   078D DD 6E F8      [19] 1508 	ld	l,-8 (ix)
   0790 DD 66 F9      [19] 1509 	ld	h,-7 (ix)
   0793 DD 7E FA      [19] 1510 	ld	a,-6 (ix)
   0796 77            [ 7] 1511 	ld	(hl),a
   0797 23            [ 6] 1512 	inc	hl
   0798 DD 7E FB      [19] 1513 	ld	a,-5 (ix)
   079B 77            [ 7] 1514 	ld	(hl),a
                           1515 ;src/main.c:328: enemy->iter = enemy->iter - 2;
   079C DD 5E FA      [19] 1516 	ld	e,-6 (ix)
   079F DD 56 FB      [19] 1517 	ld	d,-5 (ix)
   07A2 1B            [ 6] 1518 	dec	de
   07A3 1B            [ 6] 1519 	dec	de
   07A4 DD 6E F8      [19] 1520 	ld	l,-8 (ix)
   07A7 DD 66 F9      [19] 1521 	ld	h,-7 (ix)
   07AA 73            [ 7] 1522 	ld	(hl),e
   07AB 23            [ 6] 1523 	inc	hl
   07AC 72            [ 7] 1524 	ld	(hl),d
                           1525 ;src/main.c:329: enemy->y = enemy->camino[enemy->iter];
   07AD DD 6E F6      [19] 1526 	ld	l,-10 (ix)
   07B0 DD 66 F7      [19] 1527 	ld	h,-9 (ix)
   07B3 19            [11] 1528 	add	hl,de
   07B4 5E            [ 7] 1529 	ld	e,(hl)
   07B5 DD 6E FC      [19] 1530 	ld	l,-4 (ix)
   07B8 DD 66 FD      [19] 1531 	ld	h,-3 (ix)
   07BB 73            [ 7] 1532 	ld	(hl),e
                           1533 ;src/main.c:330: --enemy->iter;
   07BC DD 7E FA      [19] 1534 	ld	a,-6 (ix)
   07BF C6 FD         [ 7] 1535 	add	a,#0xFD
   07C1 5F            [ 4] 1536 	ld	e,a
   07C2 DD 7E FB      [19] 1537 	ld	a,-5 (ix)
   07C5 CE FF         [ 7] 1538 	adc	a,#0xFF
   07C7 57            [ 4] 1539 	ld	d,a
   07C8 DD 6E F8      [19] 1540 	ld	l,-8 (ix)
   07CB DD 66 F9      [19] 1541 	ld	h,-7 (ix)
   07CE 73            [ 7] 1542 	ld	(hl),e
   07CF 23            [ 6] 1543 	inc	hl
   07D0 72            [ 7] 1544 	ld	(hl),d
                           1545 ;src/main.c:331: enemy->x = enemy->camino[enemy->iter];
   07D1 DD 6E F6      [19] 1546 	ld	l,-10 (ix)
   07D4 DD 66 F7      [19] 1547 	ld	h,-9 (ix)
   07D7 19            [11] 1548 	add	hl,de
   07D8 7E            [ 7] 1549 	ld	a,(hl)
   07D9 02            [ 7] 1550 	ld	(bc),a
                           1551 ;src/main.c:332: --enemy->iter;
   07DA DD 7E FA      [19] 1552 	ld	a,-6 (ix)
   07DD C6 FC         [ 7] 1553 	add	a,#0xFC
   07DF 4F            [ 4] 1554 	ld	c,a
   07E0 DD 7E FB      [19] 1555 	ld	a,-5 (ix)
   07E3 CE FF         [ 7] 1556 	adc	a,#0xFF
   07E5 47            [ 4] 1557 	ld	b,a
   07E6 DD 6E F8      [19] 1558 	ld	l,-8 (ix)
   07E9 DD 66 F9      [19] 1559 	ld	h,-7 (ix)
   07EC 71            [ 7] 1560 	ld	(hl),c
   07ED 23            [ 6] 1561 	inc	hl
   07EE 70            [ 7] 1562 	ld	(hl),b
   07EF 18 62         [12] 1563 	jr	00118$
   07F1                    1564 00108$:
                           1565 ;src/main.c:334: enemy->mover = SI;
   07F1 DD 6E FE      [19] 1566 	ld	l,-2 (ix)
   07F4 DD 66 FF      [19] 1567 	ld	h,-1 (ix)
   07F7 36 01         [10] 1568 	ld	(hl),#0x01
                           1569 ;src/main.c:335: enemy->y = enemy->camino[enemy->iter];
   07F9 DD 6E F8      [19] 1570 	ld	l,-8 (ix)
   07FC DD 66 F9      [19] 1571 	ld	h,-7 (ix)
   07FF 5E            [ 7] 1572 	ld	e,(hl)
   0800 23            [ 6] 1573 	inc	hl
   0801 56            [ 7] 1574 	ld	d,(hl)
   0802 DD 6E F6      [19] 1575 	ld	l,-10 (ix)
   0805 DD 66 F7      [19] 1576 	ld	h,-9 (ix)
   0808 19            [11] 1577 	add	hl,de
   0809 5E            [ 7] 1578 	ld	e,(hl)
   080A DD 6E FC      [19] 1579 	ld	l,-4 (ix)
   080D DD 66 FD      [19] 1580 	ld	h,-3 (ix)
   0810 73            [ 7] 1581 	ld	(hl),e
                           1582 ;src/main.c:336: --enemy->iter;
   0811 DD 6E F8      [19] 1583 	ld	l,-8 (ix)
   0814 DD 66 F9      [19] 1584 	ld	h,-7 (ix)
   0817 5E            [ 7] 1585 	ld	e,(hl)
   0818 23            [ 6] 1586 	inc	hl
   0819 56            [ 7] 1587 	ld	d,(hl)
   081A 1B            [ 6] 1588 	dec	de
   081B DD 6E F8      [19] 1589 	ld	l,-8 (ix)
   081E DD 66 F9      [19] 1590 	ld	h,-7 (ix)
   0821 73            [ 7] 1591 	ld	(hl),e
   0822 23            [ 6] 1592 	inc	hl
   0823 72            [ 7] 1593 	ld	(hl),d
                           1594 ;src/main.c:337: enemy->x = enemy->camino[enemy->iter];
   0824 DD 6E F6      [19] 1595 	ld	l,-10 (ix)
   0827 DD 66 F7      [19] 1596 	ld	h,-9 (ix)
   082A 19            [11] 1597 	add	hl,de
   082B 7E            [ 7] 1598 	ld	a,(hl)
   082C 02            [ 7] 1599 	ld	(bc),a
                           1600 ;src/main.c:338: --enemy->iter;
   082D 1B            [ 6] 1601 	dec	de
   082E DD 6E F8      [19] 1602 	ld	l,-8 (ix)
   0831 DD 66 F9      [19] 1603 	ld	h,-7 (ix)
   0834 73            [ 7] 1604 	ld	(hl),e
   0835 23            [ 6] 1605 	inc	hl
   0836 72            [ 7] 1606 	ld	(hl),d
   0837 18 1A         [12] 1607 	jr	00118$
   0839                    1608 00111$:
                           1609 ;src/main.c:342: enemy->mover = NO;
   0839 DD 6E FE      [19] 1610 	ld	l,-2 (ix)
   083C DD 66 FF      [19] 1611 	ld	h,-1 (ix)
   083F 36 00         [10] 1612 	ld	(hl),#0x00
                           1613 ;src/main.c:343: enemy->iter = 0;
   0841 DD 6E F8      [19] 1614 	ld	l,-8 (ix)
   0844 DD 66 F9      [19] 1615 	ld	h,-7 (ix)
   0847 AF            [ 4] 1616 	xor	a, a
   0848 77            [ 7] 1617 	ld	(hl), a
   0849 23            [ 6] 1618 	inc	hl
   084A 77            [ 7] 1619 	ld	(hl), a
                           1620 ;src/main.c:344: enemy->reversePatrol = 0;
   084B DD 6E F4      [19] 1621 	ld	l,-12 (ix)
   084E DD 66 F5      [19] 1622 	ld	h,-11 (ix)
   0851 36 00         [10] 1623 	ld	(hl),#0x00
   0853                    1624 00118$:
   0853 DD F9         [10] 1625 	ld	sp, ix
   0855 DD E1         [14] 1626 	pop	ix
   0857 C9            [10] 1627 	ret
                           1628 ;src/main.c:350: void lookFor(TEnemy* enemy){
                           1629 ;	---------------------------------
                           1630 ; Function lookFor
                           1631 ; ---------------------------------
   0858                    1632 _lookFor::
   0858 DD E5         [15] 1633 	push	ix
   085A DD 21 00 00   [14] 1634 	ld	ix,#0
   085E DD 39         [15] 1635 	add	ix,sp
   0860 21 F9 FF      [10] 1636 	ld	hl,#-7
   0863 39            [11] 1637 	add	hl,sp
   0864 F9            [ 6] 1638 	ld	sp,hl
                           1639 ;src/main.c:356: i16 difx = abs((i16)(enemy->x - prota.x));
   0865 DD 5E 04      [19] 1640 	ld	e,4 (ix)
   0868 DD 56 05      [19] 1641 	ld	d,5 (ix)
   086B 1A            [ 7] 1642 	ld	a,(de)
   086C 4F            [ 4] 1643 	ld	c,a
   086D 06 00         [ 7] 1644 	ld	b,#0x00
   086F 21r88r03      [10] 1645 	ld	hl,#_prota+0
   0872 6E            [ 7] 1646 	ld	l,(hl)
   0873 26 00         [ 7] 1647 	ld	h,#0x00
   0875 79            [ 4] 1648 	ld	a,c
   0876 95            [ 4] 1649 	sub	a, l
   0877 4F            [ 4] 1650 	ld	c,a
   0878 78            [ 4] 1651 	ld	a,b
   0879 9C            [ 4] 1652 	sbc	a, h
   087A 47            [ 4] 1653 	ld	b,a
   087B D5            [11] 1654 	push	de
   087C C5            [11] 1655 	push	bc
   087D CDr00r00      [17] 1656 	call	_abs
   0880 F1            [10] 1657 	pop	af
   0881 D1            [10] 1658 	pop	de
   0882 33            [ 6] 1659 	inc	sp
   0883 33            [ 6] 1660 	inc	sp
   0884 E5            [11] 1661 	push	hl
                           1662 ;src/main.c:357: i16 dify = abs((i16)(enemy->y/2 - prota.y/2));
   0885 21 01 00      [10] 1663 	ld	hl,#0x0001
   0888 19            [11] 1664 	add	hl,de
   0889 DD 75 FC      [19] 1665 	ld	-4 (ix),l
   088C DD 74 FD      [19] 1666 	ld	-3 (ix),h
   088F DD 6E FC      [19] 1667 	ld	l,-4 (ix)
   0892 DD 66 FD      [19] 1668 	ld	h,-3 (ix)
   0895 4E            [ 7] 1669 	ld	c,(hl)
   0896 CB 39         [ 8] 1670 	srl	c
   0898 06 00         [ 7] 1671 	ld	b,#0x00
   089A 21r89r03      [10] 1672 	ld	hl, #(_prota + 0x0001) + 0
   089D 6E            [ 7] 1673 	ld	l,(hl)
   089E CB 3D         [ 8] 1674 	srl	l
   08A0 26 00         [ 7] 1675 	ld	h,#0x00
   08A2 79            [ 4] 1676 	ld	a,c
   08A3 95            [ 4] 1677 	sub	a, l
   08A4 4F            [ 4] 1678 	ld	c,a
   08A5 78            [ 4] 1679 	ld	a,b
   08A6 9C            [ 4] 1680 	sbc	a, h
   08A7 47            [ 4] 1681 	ld	b,a
   08A8 D5            [11] 1682 	push	de
   08A9 C5            [11] 1683 	push	bc
   08AA CDr00r00      [17] 1684 	call	_abs
   08AD F1            [10] 1685 	pop	af
   08AE D1            [10] 1686 	pop	de
                           1687 ;src/main.c:359: dist = difx + dify; // manhattan
   08AF DD 4E F9      [19] 1688 	ld	c,-7 (ix)
   08B2 09            [11] 1689 	add	hl, bc
   08B3 DD 75 FB      [19] 1690 	ld	-5 (ix),l
                           1691 ;src/main.c:360: enemy->seen = NO;
   08B6 21 12 00      [10] 1692 	ld	hl,#0x0012
   08B9 19            [11] 1693 	add	hl,de
   08BA DD 75 FE      [19] 1694 	ld	-2 (ix),l
   08BD DD 74 FF      [19] 1695 	ld	-1 (ix),h
   08C0 DD 6E FE      [19] 1696 	ld	l,-2 (ix)
   08C3 DD 66 FF      [19] 1697 	ld	h,-1 (ix)
   08C6 36 00         [10] 1698 	ld	(hl),#0x00
                           1699 ;src/main.c:361: enemy->in_range = NO;
   08C8 21 11 00      [10] 1700 	ld	hl,#0x0011
   08CB 19            [11] 1701 	add	hl,de
   08CC 4D            [ 4] 1702 	ld	c,l
   08CD 44            [ 4] 1703 	ld	b,h
   08CE AF            [ 4] 1704 	xor	a, a
   08CF 02            [ 7] 1705 	ld	(bc),a
                           1706 ;src/main.c:363: if(!enemy->seek){
   08D0 D5            [11] 1707 	push	de
   08D1 FD E1         [14] 1708 	pop	iy
   08D3 FD 7E 14      [19] 1709 	ld	a,20 (iy)
   08D6 B7            [ 4] 1710 	or	a, a
   08D7 C2r5Dr09      [10] 1711 	jp	NZ,00111$
                           1712 ;src/main.c:364: if (dist <= 20) {// te detectan los sensores de proximidad
   08DA 3E 14         [ 7] 1713 	ld	a,#0x14
   08DC DD 96 FB      [19] 1714 	sub	a, -5 (ix)
   08DF 38 13         [12] 1715 	jr	C,00107$
                           1716 ;src/main.c:365: enemy->in_range = 1;
   08E1 3E 01         [ 7] 1717 	ld	a,#0x01
   08E3 02            [ 7] 1718 	ld	(bc),a
                           1719 ;src/main.c:366: enemy->engage = 1;
   08E4 21 16 00      [10] 1720 	ld	hl,#0x0016
   08E7 19            [11] 1721 	add	hl,de
   08E8 36 01         [10] 1722 	ld	(hl),#0x01
                           1723 ;src/main.c:367: enemy->seen = SI;
   08EA DD 6E FE      [19] 1724 	ld	l,-2 (ix)
   08ED DD 66 FF      [19] 1725 	ld	h,-1 (ix)
   08F0 36 01         [10] 1726 	ld	(hl),#0x01
   08F2 18 69         [12] 1727 	jr	00111$
   08F4                    1728 00107$:
                           1729 ;src/main.c:368: }else if(prota.x > enemy->x - 16 && prota.x < enemy->x + 16
   08F4 21r88r03      [10] 1730 	ld	hl, #_prota + 0
   08F7 4E            [ 7] 1731 	ld	c,(hl)
   08F8 1A            [ 7] 1732 	ld	a,(de)
   08F9 5F            [ 4] 1733 	ld	e,a
   08FA 16 00         [ 7] 1734 	ld	d,#0x00
   08FC 7B            [ 4] 1735 	ld	a,e
   08FD C6 F0         [ 7] 1736 	add	a,#0xF0
   08FF 6F            [ 4] 1737 	ld	l,a
   0900 7A            [ 4] 1738 	ld	a,d
   0901 CE FF         [ 7] 1739 	adc	a,#0xFF
   0903 67            [ 4] 1740 	ld	h,a
   0904 06 00         [ 7] 1741 	ld	b,#0x00
   0906 7D            [ 4] 1742 	ld	a,l
   0907 91            [ 4] 1743 	sub	a, c
   0908 7C            [ 4] 1744 	ld	a,h
   0909 98            [ 4] 1745 	sbc	a, b
   090A E2r0Fr09      [10] 1746 	jp	PO, 00137$
   090D EE 80         [ 7] 1747 	xor	a, #0x80
   090F                    1748 00137$:
   090F F2r5Dr09      [10] 1749 	jp	P,00111$
   0912 21 10 00      [10] 1750 	ld	hl,#0x0010
   0915 19            [11] 1751 	add	hl,de
   0916 79            [ 4] 1752 	ld	a,c
   0917 95            [ 4] 1753 	sub	a, l
   0918 78            [ 4] 1754 	ld	a,b
   0919 9C            [ 4] 1755 	sbc	a, h
   091A E2r1Fr09      [10] 1756 	jp	PO, 00138$
   091D EE 80         [ 7] 1757 	xor	a, #0x80
   091F                    1758 00138$:
   091F F2r5Dr09      [10] 1759 	jp	P,00111$
                           1760 ;src/main.c:369: && prota.y > enemy->y - 16*2 && prota.y < enemy->y +16*2){
   0922 21r89r03      [10] 1761 	ld	hl, #(_prota + 0x0001) + 0
   0925 4E            [ 7] 1762 	ld	c,(hl)
   0926 DD 6E FC      [19] 1763 	ld	l,-4 (ix)
   0929 DD 66 FD      [19] 1764 	ld	h,-3 (ix)
   092C 5E            [ 7] 1765 	ld	e,(hl)
   092D 16 00         [ 7] 1766 	ld	d,#0x00
   092F 7B            [ 4] 1767 	ld	a,e
   0930 C6 E0         [ 7] 1768 	add	a,#0xE0
   0932 6F            [ 4] 1769 	ld	l,a
   0933 7A            [ 4] 1770 	ld	a,d
   0934 CE FF         [ 7] 1771 	adc	a,#0xFF
   0936 67            [ 4] 1772 	ld	h,a
   0937 06 00         [ 7] 1773 	ld	b,#0x00
   0939 7D            [ 4] 1774 	ld	a,l
   093A 91            [ 4] 1775 	sub	a, c
   093B 7C            [ 4] 1776 	ld	a,h
   093C 98            [ 4] 1777 	sbc	a, b
   093D E2r42r09      [10] 1778 	jp	PO, 00139$
   0940 EE 80         [ 7] 1779 	xor	a, #0x80
   0942                    1780 00139$:
   0942 F2r5Dr09      [10] 1781 	jp	P,00111$
   0945 21 20 00      [10] 1782 	ld	hl,#0x0020
   0948 19            [11] 1783 	add	hl,de
   0949 79            [ 4] 1784 	ld	a,c
   094A 95            [ 4] 1785 	sub	a, l
   094B 78            [ 4] 1786 	ld	a,b
   094C 9C            [ 4] 1787 	sbc	a, h
   094D E2r52r09      [10] 1788 	jp	PO, 00140$
   0950 EE 80         [ 7] 1789 	xor	a, #0x80
   0952                    1790 00140$:
   0952 F2r5Dr09      [10] 1791 	jp	P,00111$
                           1792 ;src/main.c:370: enemy->seen = SI;
   0955 DD 6E FE      [19] 1793 	ld	l,-2 (ix)
   0958 DD 66 FF      [19] 1794 	ld	h,-1 (ix)
   095B 36 01         [10] 1795 	ld	(hl),#0x01
   095D                    1796 00111$:
   095D DD F9         [10] 1797 	ld	sp, ix
   095F DD E1         [14] 1798 	pop	ix
   0961 C9            [10] 1799 	ret
                           1800 ;src/main.c:375: void moverEnemigoSeek(TEnemy* actual){
                           1801 ;	---------------------------------
                           1802 ; Function moverEnemigoSeek
                           1803 ; ---------------------------------
   0962                    1804 _moverEnemigoSeek::
   0962 DD E5         [15] 1805 	push	ix
   0964 DD 21 00 00   [14] 1806 	ld	ix,#0
   0968 DD 39         [15] 1807 	add	ix,sp
   096A 21 F6 FF      [10] 1808 	ld	hl,#-10
   096D 39            [11] 1809 	add	hl,sp
   096E F9            [ 6] 1810 	ld	sp,hl
                           1811 ;src/main.c:377: if(!actual->muerto){
   096F DD 4E 04      [19] 1812 	ld	c,4 (ix)
   0972 DD 46 05      [19] 1813 	ld	b,5 (ix)
   0975 C5            [11] 1814 	push	bc
   0976 FD E1         [14] 1815 	pop	iy
   0978 FD 7E 08      [19] 1816 	ld	a, 8 (iy)
   097B B7            [ 4] 1817 	or	a, a
   097C C2rDEr0A      [10] 1818 	jp	NZ,00114$
                           1819 ;src/main.c:380: if(actual->iter < actual->longitud_camino){
   097F 21 0E 00      [10] 1820 	ld	hl,#0x000E
   0982 09            [11] 1821 	add	hl,bc
   0983 E3            [19] 1822 	ex	(sp), hl
   0984 E1            [10] 1823 	pop	hl
   0985 E5            [11] 1824 	push	hl
   0986 7E            [ 7] 1825 	ld	a,(hl)
   0987 DD 77 FE      [19] 1826 	ld	-2 (ix),a
   098A 23            [ 6] 1827 	inc	hl
   098B 7E            [ 7] 1828 	ld	a,(hl)
   098C DD 77 FF      [19] 1829 	ld	-1 (ix),a
   098F 69            [ 4] 1830 	ld	l, c
   0990 60            [ 4] 1831 	ld	h, b
   0991 11 E1 00      [10] 1832 	ld	de, #0x00E1
   0994 19            [11] 1833 	add	hl, de
   0995 5E            [ 7] 1834 	ld	e,(hl)
   0996 16 00         [ 7] 1835 	ld	d,#0x00
                           1836 ;src/main.c:389: actual->y = actual->camino[actual->iter];
   0998 21 01 00      [10] 1837 	ld	hl,#0x0001
   099B 09            [11] 1838 	add	hl,bc
   099C DD 75 FC      [19] 1839 	ld	-4 (ix),l
   099F DD 74 FD      [19] 1840 	ld	-3 (ix),h
                           1841 ;src/main.c:380: if(actual->iter < actual->longitud_camino){
   09A2 DD 7E FE      [19] 1842 	ld	a,-2 (ix)
   09A5 93            [ 4] 1843 	sub	a, e
   09A6 DD 7E FF      [19] 1844 	ld	a,-1 (ix)
   09A9 9A            [ 4] 1845 	sbc	a, d
   09AA E2rAFr09      [10] 1846 	jp	PO, 00136$
   09AD EE 80         [ 7] 1847 	xor	a, #0x80
   09AF                    1848 00136$:
   09AF F2r1Fr0A      [10] 1849 	jp	P,00110$
                           1850 ;src/main.c:385: actual->mover = SI;
   09B2 21 06 00      [10] 1851 	ld	hl,#0x0006
   09B5 09            [11] 1852 	add	hl,bc
                           1853 ;src/main.c:387: actual->x = actual->camino[actual->iter];
   09B6 79            [ 4] 1854 	ld	a,c
   09B7 C6 19         [ 7] 1855 	add	a, #0x19
   09B9 5F            [ 4] 1856 	ld	e,a
   09BA 78            [ 4] 1857 	ld	a,b
   09BB CE 00         [ 7] 1858 	adc	a, #0x00
   09BD 57            [ 4] 1859 	ld	d,a
                           1860 ;src/main.c:383: if(actual->iter == 0){
   09BE DD 7E FF      [19] 1861 	ld	a,-1 (ix)
   09C1 DD B6 FE      [19] 1862 	or	a,-2 (ix)
   09C4 20 30         [12] 1863 	jr	NZ,00102$
                           1864 ;src/main.c:385: actual->mover = SI;
   09C6 36 01         [10] 1865 	ld	(hl),#0x01
                           1866 ;src/main.c:386: actual->iter = 2;
   09C8 E1            [10] 1867 	pop	hl
   09C9 E5            [11] 1868 	push	hl
   09CA 36 02         [10] 1869 	ld	(hl),#0x02
   09CC 23            [ 6] 1870 	inc	hl
   09CD 36 00         [10] 1871 	ld	(hl),#0x00
                           1872 ;src/main.c:387: actual->x = actual->camino[actual->iter];
   09CF E1            [10] 1873 	pop	hl
   09D0 E5            [11] 1874 	push	hl
   09D1 7E            [ 7] 1875 	ld	a, (hl)
   09D2 23            [ 6] 1876 	inc	hl
   09D3 66            [ 7] 1877 	ld	h,(hl)
   09D4 6F            [ 4] 1878 	ld	l,a
   09D5 19            [11] 1879 	add	hl,de
   09D6 7E            [ 7] 1880 	ld	a,(hl)
   09D7 02            [ 7] 1881 	ld	(bc),a
                           1882 ;src/main.c:388: ++actual->iter;
   09D8 E1            [10] 1883 	pop	hl
   09D9 E5            [11] 1884 	push	hl
   09DA 4E            [ 7] 1885 	ld	c,(hl)
   09DB 23            [ 6] 1886 	inc	hl
   09DC 46            [ 7] 1887 	ld	b,(hl)
   09DD 03            [ 6] 1888 	inc	bc
   09DE E1            [10] 1889 	pop	hl
   09DF E5            [11] 1890 	push	hl
   09E0 71            [ 7] 1891 	ld	(hl),c
   09E1 23            [ 6] 1892 	inc	hl
   09E2 70            [ 7] 1893 	ld	(hl),b
                           1894 ;src/main.c:389: actual->y = actual->camino[actual->iter];
   09E3 EB            [ 4] 1895 	ex	de,hl
   09E4 09            [11] 1896 	add	hl,bc
   09E5 5E            [ 7] 1897 	ld	e,(hl)
   09E6 DD 6E FC      [19] 1898 	ld	l,-4 (ix)
   09E9 DD 66 FD      [19] 1899 	ld	h,-3 (ix)
   09EC 73            [ 7] 1900 	ld	(hl),e
                           1901 ;src/main.c:390: ++actual->iter;
   09ED 03            [ 6] 1902 	inc	bc
   09EE E1            [10] 1903 	pop	hl
   09EF E5            [11] 1904 	push	hl
   09F0 71            [ 7] 1905 	ld	(hl),c
   09F1 23            [ 6] 1906 	inc	hl
   09F2 70            [ 7] 1907 	ld	(hl),b
   09F3 C3rDEr0A      [10] 1908 	jp	00114$
   09F6                    1909 00102$:
                           1910 ;src/main.c:393: actual->mover = SI;
   09F6 36 01         [10] 1911 	ld	(hl),#0x01
                           1912 ;src/main.c:394: actual->x = actual->camino[actual->iter];
   09F8 E1            [10] 1913 	pop	hl
   09F9 E5            [11] 1914 	push	hl
   09FA 7E            [ 7] 1915 	ld	a, (hl)
   09FB 23            [ 6] 1916 	inc	hl
   09FC 66            [ 7] 1917 	ld	h,(hl)
   09FD 6F            [ 4] 1918 	ld	l,a
   09FE 19            [11] 1919 	add	hl,de
   09FF 7E            [ 7] 1920 	ld	a,(hl)
   0A00 02            [ 7] 1921 	ld	(bc),a
                           1922 ;src/main.c:395: ++actual->iter;
   0A01 E1            [10] 1923 	pop	hl
   0A02 E5            [11] 1924 	push	hl
   0A03 4E            [ 7] 1925 	ld	c,(hl)
   0A04 23            [ 6] 1926 	inc	hl
   0A05 46            [ 7] 1927 	ld	b,(hl)
   0A06 03            [ 6] 1928 	inc	bc
   0A07 E1            [10] 1929 	pop	hl
   0A08 E5            [11] 1930 	push	hl
   0A09 71            [ 7] 1931 	ld	(hl),c
   0A0A 23            [ 6] 1932 	inc	hl
   0A0B 70            [ 7] 1933 	ld	(hl),b
                           1934 ;src/main.c:396: actual->y = actual->camino[actual->iter];
   0A0C EB            [ 4] 1935 	ex	de,hl
   0A0D 09            [11] 1936 	add	hl,bc
   0A0E 5E            [ 7] 1937 	ld	e,(hl)
   0A0F DD 6E FC      [19] 1938 	ld	l,-4 (ix)
   0A12 DD 66 FD      [19] 1939 	ld	h,-3 (ix)
   0A15 73            [ 7] 1940 	ld	(hl),e
                           1941 ;src/main.c:397: ++actual->iter;
   0A16 03            [ 6] 1942 	inc	bc
   0A17 E1            [10] 1943 	pop	hl
   0A18 E5            [11] 1944 	push	hl
   0A19 71            [ 7] 1945 	ld	(hl),c
   0A1A 23            [ 6] 1946 	inc	hl
   0A1B 70            [ 7] 1947 	ld	(hl),b
   0A1C C3rDEr0A      [10] 1948 	jp	00114$
   0A1F                    1949 00110$:
                           1950 ;src/main.c:403: actual->seek = 0;
   0A1F 21 14 00      [10] 1951 	ld	hl,#0x0014
   0A22 09            [11] 1952 	add	hl,bc
   0A23 DD 75 FE      [19] 1953 	ld	-2 (ix),l
   0A26 DD 74 FF      [19] 1954 	ld	-1 (ix),h
   0A29 DD 6E FE      [19] 1955 	ld	l,-2 (ix)
   0A2C DD 66 FF      [19] 1956 	ld	h,-1 (ix)
   0A2F 36 00         [10] 1957 	ld	(hl),#0x00
                           1958 ;src/main.c:404: lookFor(actual);
   0A31 C5            [11] 1959 	push	bc
   0A32 C5            [11] 1960 	push	bc
   0A33 CDr58r08      [17] 1961 	call	_lookFor
   0A36 F1            [10] 1962 	pop	af
   0A37 C1            [10] 1963 	pop	bc
                           1964 ;src/main.c:405: if(!actual->seen){
   0A38 69            [ 4] 1965 	ld	l, c
   0A39 60            [ 4] 1966 	ld	h, b
   0A3A 11 12 00      [10] 1967 	ld	de, #0x0012
   0A3D 19            [11] 1968 	add	hl, de
   0A3E 7E            [ 7] 1969 	ld	a,(hl)
   0A3F DD 77 FB      [19] 1970 	ld	-5 (ix),a
                           1971 ;src/main.c:406: actual->patrolling = 1;
   0A42 21 0B 00      [10] 1972 	ld	hl,#0x000B
   0A45 09            [11] 1973 	add	hl,bc
   0A46 DD 75 F9      [19] 1974 	ld	-7 (ix),l
   0A49 DD 74 FA      [19] 1975 	ld	-6 (ix),h
                           1976 ;src/main.c:405: if(!actual->seen){
   0A4C DD 7E FB      [19] 1977 	ld	a,-5 (ix)
   0A4F B7            [ 4] 1978 	or	a, a
   0A50 20 3C         [12] 1979 	jr	NZ,00107$
                           1980 ;src/main.c:406: actual->patrolling = 1;
   0A52 DD 6E F9      [19] 1981 	ld	l,-7 (ix)
   0A55 DD 66 FA      [19] 1982 	ld	h,-6 (ix)
   0A58 36 01         [10] 1983 	ld	(hl),#0x01
                           1984 ;src/main.c:407: pathFinding(actual->x, actual->y, actual->p_seek_x, actual->p_seek_y, actual, mapa);
   0A5A C5            [11] 1985 	push	bc
   0A5B FD E1         [14] 1986 	pop	iy
   0A5D FD 7E 18      [19] 1987 	ld	a,24 (iy)
   0A60 DD 77 FB      [19] 1988 	ld	-5 (ix),a
   0A63 C5            [11] 1989 	push	bc
   0A64 FD E1         [14] 1990 	pop	iy
   0A66 FD 56 17      [19] 1991 	ld	d,23 (iy)
   0A69 DD 6E FC      [19] 1992 	ld	l,-4 (ix)
   0A6C DD 66 FD      [19] 1993 	ld	h,-3 (ix)
   0A6F 5E            [ 7] 1994 	ld	e,(hl)
   0A70 0A            [ 7] 1995 	ld	a,(bc)
   0A71 DD 77 F8      [19] 1996 	ld	-8 (ix),a
   0A74 2Ar9Br03      [16] 1997 	ld	hl,(_mapa)
   0A77 E5            [11] 1998 	push	hl
   0A78 C5            [11] 1999 	push	bc
   0A79 DD 7E FB      [19] 2000 	ld	a,-5 (ix)
   0A7C F5            [11] 2001 	push	af
   0A7D 33            [ 6] 2002 	inc	sp
   0A7E D5            [11] 2003 	push	de
   0A7F DD 7E F8      [19] 2004 	ld	a,-8 (ix)
   0A82 F5            [11] 2005 	push	af
   0A83 33            [ 6] 2006 	inc	sp
   0A84 CDr00r00      [17] 2007 	call	_pathFinding
   0A87 21 08 00      [10] 2008 	ld	hl,#8
   0A8A 39            [11] 2009 	add	hl,sp
   0A8B F9            [ 6] 2010 	ld	sp,hl
   0A8C 18 4A         [12] 2011 	jr	00108$
   0A8E                    2012 00107$:
                           2013 ;src/main.c:409: actual->patrolling = 0;
   0A8E DD 6E F9      [19] 2014 	ld	l,-7 (ix)
   0A91 DD 66 FA      [19] 2015 	ld	h,-6 (ix)
   0A94 36 00         [10] 2016 	ld	(hl),#0x00
                           2017 ;src/main.c:410: if(!actual->engage){
   0A96 C5            [11] 2018 	push	bc
   0A97 FD E1         [14] 2019 	pop	iy
   0A99 FD 7E 16      [19] 2020 	ld	a,22 (iy)
   0A9C B7            [ 4] 2021 	or	a, a
   0A9D 20 39         [12] 2022 	jr	NZ,00108$
                           2023 ;src/main.c:411: actual->seek = 1;
   0A9F DD 6E FE      [19] 2024 	ld	l,-2 (ix)
   0AA2 DD 66 FF      [19] 2025 	ld	h,-1 (ix)
   0AA5 36 01         [10] 2026 	ld	(hl),#0x01
                           2027 ;src/main.c:412: pathFinding(actual->x, actual->y, prota.x, prota.y, actual, mapa);
   0AA7 3Ar89r03      [13] 2028 	ld	a,(#_prota + 1)
   0AAA DD 77 F8      [19] 2029 	ld	-8 (ix),a
   0AAD 21r88r03      [10] 2030 	ld	hl, #_prota + 0
   0AB0 5E            [ 7] 2031 	ld	e,(hl)
   0AB1 DD 6E FC      [19] 2032 	ld	l,-4 (ix)
   0AB4 DD 66 FD      [19] 2033 	ld	h,-3 (ix)
   0AB7 56            [ 7] 2034 	ld	d,(hl)
   0AB8 0A            [ 7] 2035 	ld	a,(bc)
   0AB9 DD 77 F9      [19] 2036 	ld	-7 (ix),a
   0ABC 2Ar9Br03      [16] 2037 	ld	hl,(_mapa)
   0ABF E5            [11] 2038 	push	hl
   0AC0 C5            [11] 2039 	push	bc
   0AC1 DD 7E F8      [19] 2040 	ld	a,-8 (ix)
   0AC4 F5            [11] 2041 	push	af
   0AC5 33            [ 6] 2042 	inc	sp
   0AC6 7B            [ 4] 2043 	ld	a,e
   0AC7 F5            [11] 2044 	push	af
   0AC8 33            [ 6] 2045 	inc	sp
   0AC9 D5            [11] 2046 	push	de
   0ACA 33            [ 6] 2047 	inc	sp
   0ACB DD 7E F9      [19] 2048 	ld	a,-7 (ix)
   0ACE F5            [11] 2049 	push	af
   0ACF 33            [ 6] 2050 	inc	sp
   0AD0 CDr00r00      [17] 2051 	call	_pathFinding
   0AD3 21 08 00      [10] 2052 	ld	hl,#8
   0AD6 39            [11] 2053 	add	hl,sp
   0AD7 F9            [ 6] 2054 	ld	sp,hl
   0AD8                    2055 00108$:
                           2056 ;src/main.c:415: actual->iter = 0;
   0AD8 E1            [10] 2057 	pop	hl
   0AD9 E5            [11] 2058 	push	hl
   0ADA AF            [ 4] 2059 	xor	a, a
   0ADB 77            [ 7] 2060 	ld	(hl), a
   0ADC 23            [ 6] 2061 	inc	hl
   0ADD 77            [ 7] 2062 	ld	(hl), a
   0ADE                    2063 00114$:
   0ADE DD F9         [10] 2064 	ld	sp, ix
   0AE0 DD E1         [14] 2065 	pop	ix
   0AE2 C9            [10] 2066 	ret
                           2067 ;src/main.c:422: void engage(TEnemy *enemy, u8 dx, u8 dy) {
                           2068 ;	---------------------------------
                           2069 ; Function engage
                           2070 ; ---------------------------------
   0AE3                    2071 _engage::
   0AE3 DD E5         [15] 2072 	push	ix
   0AE5 DD 21 00 00   [14] 2073 	ld	ix,#0
   0AE9 DD 39         [15] 2074 	add	ix,sp
   0AEB 21 F1 FF      [10] 2075 	ld	hl,#-15
   0AEE 39            [11] 2076 	add	hl,sp
   0AEF F9            [ 6] 2077 	ld	sp,hl
                           2078 ;src/main.c:423: u8 difx = abs(enemy->x - prota.x); // calculo distancia para mantener una dist
   0AF0 DD 7E 04      [19] 2079 	ld	a,4 (ix)
   0AF3 DD 77 F4      [19] 2080 	ld	-12 (ix),a
   0AF6 DD 7E 05      [19] 2081 	ld	a,5 (ix)
   0AF9 DD 77 F5      [19] 2082 	ld	-11 (ix),a
   0AFC DD 6E F4      [19] 2083 	ld	l,-12 (ix)
   0AFF DD 66 F5      [19] 2084 	ld	h,-11 (ix)
   0B02 4E            [ 7] 2085 	ld	c,(hl)
   0B03 06 00         [ 7] 2086 	ld	b,#0x00
   0B05 21r88r03      [10] 2087 	ld	hl,#_prota+0
   0B08 5E            [ 7] 2088 	ld	e,(hl)
   0B09 16 00         [ 7] 2089 	ld	d,#0x00
   0B0B 79            [ 4] 2090 	ld	a,c
   0B0C 93            [ 4] 2091 	sub	a, e
   0B0D 4F            [ 4] 2092 	ld	c,a
   0B0E 78            [ 4] 2093 	ld	a,b
   0B0F 9A            [ 4] 2094 	sbc	a, d
   0B10 47            [ 4] 2095 	ld	b,a
   0B11 C5            [11] 2096 	push	bc
   0B12 CDr00r00      [17] 2097 	call	_abs
   0B15 F1            [10] 2098 	pop	af
   0B16 4D            [ 4] 2099 	ld	c,l
                           2100 ;src/main.c:424: u8 dify = abs(enemy->y - prota.y);
   0B17 DD 7E F4      [19] 2101 	ld	a,-12 (ix)
   0B1A C6 01         [ 7] 2102 	add	a, #0x01
   0B1C DD 77 F6      [19] 2103 	ld	-10 (ix),a
   0B1F DD 7E F5      [19] 2104 	ld	a,-11 (ix)
   0B22 CE 00         [ 7] 2105 	adc	a, #0x00
   0B24 DD 77 F7      [19] 2106 	ld	-9 (ix),a
   0B27 DD 6E F6      [19] 2107 	ld	l,-10 (ix)
   0B2A DD 66 F7      [19] 2108 	ld	h,-9 (ix)
   0B2D 5E            [ 7] 2109 	ld	e,(hl)
   0B2E 16 00         [ 7] 2110 	ld	d,#0x00
   0B30 21r89r03      [10] 2111 	ld	hl, #_prota + 1
   0B33 6E            [ 7] 2112 	ld	l,(hl)
   0B34 26 00         [ 7] 2113 	ld	h,#0x00
   0B36 7B            [ 4] 2114 	ld	a,e
   0B37 95            [ 4] 2115 	sub	a, l
   0B38 5F            [ 4] 2116 	ld	e,a
   0B39 7A            [ 4] 2117 	ld	a,d
   0B3A 9C            [ 4] 2118 	sbc	a, h
   0B3B 57            [ 4] 2119 	ld	d,a
   0B3C C5            [11] 2120 	push	bc
   0B3D D5            [11] 2121 	push	de
   0B3E CDr00r00      [17] 2122 	call	_abs
   0B41 F1            [10] 2123 	pop	af
   0B42 C1            [10] 2124 	pop	bc
                           2125 ;src/main.c:425: u8 dist = difx + dify; // manhattan
   0B43 09            [11] 2126 	add	hl, bc
   0B44 DD 75 F3      [19] 2127 	ld	-13 (ix),l
                           2128 ;src/main.c:427: u8 movX = 0;
   0B47 DD 36 F2 00   [19] 2129 	ld	-14 (ix),#0x00
                           2130 ;src/main.c:428: u8 movY = 0;
   0B4B DD 36 F1 00   [19] 2131 	ld	-15 (ix),#0x00
                           2132 ;src/main.c:429: u8 distConstraint = 25;
   0B4F 0E 19         [ 7] 2133 	ld	c,#0x19
                           2134 ;src/main.c:430: enemy->mover = NO;
   0B51 DD 7E F4      [19] 2135 	ld	a,-12 (ix)
   0B54 C6 06         [ 7] 2136 	add	a, #0x06
   0B56 DD 77 F8      [19] 2137 	ld	-8 (ix),a
   0B59 DD 7E F5      [19] 2138 	ld	a,-11 (ix)
   0B5C CE 00         [ 7] 2139 	adc	a, #0x00
   0B5E DD 77 F9      [19] 2140 	ld	-7 (ix),a
   0B61 DD 6E F8      [19] 2141 	ld	l,-8 (ix)
   0B64 DD 66 F9      [19] 2142 	ld	h,-7 (ix)
   0B67 36 00         [10] 2143 	ld	(hl),#0x00
                           2144 ;src/main.c:432: if (enemy->y == dy || enemy->y == dy + 1 || enemy->y == dy - 1) { // alineado en el eje x
   0B69 DD 6E F6      [19] 2145 	ld	l,-10 (ix)
   0B6C DD 66 F7      [19] 2146 	ld	h,-9 (ix)
   0B6F 7E            [ 7] 2147 	ld	a,(hl)
   0B70 DD 77 FA      [19] 2148 	ld	-6 (ix),a
                           2149 ;src/main.c:423: u8 difx = abs(enemy->x - prota.x); // calculo distancia para mantener una dist
   0B73 DD 6E F4      [19] 2150 	ld	l,-12 (ix)
   0B76 DD 66 F5      [19] 2151 	ld	h,-11 (ix)
   0B79 46            [ 7] 2152 	ld	b,(hl)
                           2153 ;src/main.c:445: if(*getTilePtr(mapa, enemy->x + G_ENEMY_W, enemy->y) <= 2
   0B7A 78            [ 4] 2154 	ld	a,b
   0B7B C6 04         [ 7] 2155 	add	a, #0x04
   0B7D DD 77 FB      [19] 2156 	ld	-5 (ix),a
                           2157 ;src/main.c:432: if (enemy->y == dy || enemy->y == dy + 1 || enemy->y == dy - 1) { // alineado en el eje x
   0B80 DD 7E 07      [19] 2158 	ld	a,7 (ix)
   0B83 DD 96 FA      [19] 2159 	sub	a, -6 (ix)
   0B86 28 38         [12] 2160 	jr	Z,00194$
   0B88 DD 5E 07      [19] 2161 	ld	e,7 (ix)
   0B8B 16 00         [ 7] 2162 	ld	d,#0x00
   0B8D 21 01 00      [10] 2163 	ld	hl,#0x0001
   0B90 19            [11] 2164 	add	hl,de
   0B91 DD 75 FC      [19] 2165 	ld	-4 (ix),l
   0B94 DD 74 FD      [19] 2166 	ld	-3 (ix),h
   0B97 DD 7E FA      [19] 2167 	ld	a,-6 (ix)
   0B9A DD 77 FE      [19] 2168 	ld	-2 (ix),a
   0B9D DD 36 FF 00   [19] 2169 	ld	-1 (ix),#0x00
   0BA1 DD 7E FE      [19] 2170 	ld	a,-2 (ix)
   0BA4 DD 96 FC      [19] 2171 	sub	a, -4 (ix)
   0BA7 20 08         [12] 2172 	jr	NZ,00422$
   0BA9 DD 7E FF      [19] 2173 	ld	a,-1 (ix)
   0BAC DD 96 FD      [19] 2174 	sub	a, -3 (ix)
   0BAF 28 0F         [12] 2175 	jr	Z,00194$
   0BB1                    2176 00422$:
   0BB1 1B            [ 6] 2177 	dec	de
   0BB2 DD 7E FE      [19] 2178 	ld	a,-2 (ix)
   0BB5 93            [ 4] 2179 	sub	a, e
   0BB6 C2rC9r0C      [10] 2180 	jp	NZ,00195$
   0BB9 DD 7E FF      [19] 2181 	ld	a,-1 (ix)
   0BBC 92            [ 4] 2182 	sub	a, d
   0BBD C2rC9r0C      [10] 2183 	jp	NZ,00195$
   0BC0                    2184 00194$:
                           2185 ;src/main.c:433: if (dx < enemy->x) { // izquierda
   0BC0 DD 7E 06      [19] 2186 	ld	a,6 (ix)
   0BC3 90            [ 4] 2187 	sub	a, b
   0BC4 D2r46r0C      [10] 2188 	jp	NC,00114$
                           2189 ;src/main.c:434: if (dist > 11) {
   0BC7 3E 0B         [ 7] 2190 	ld	a,#0x0B
   0BC9 DD 96 F3      [19] 2191 	sub	a, -13 (ix)
   0BCC D2r89r12      [10] 2192 	jp	NC,00199$
                           2193 ;src/main.c:435: if(*getTilePtr(mapa, enemy->x, enemy->y) <= 2
   0BCF DD 7E FA      [19] 2194 	ld	a,-6 (ix)
   0BD2 F5            [11] 2195 	push	af
   0BD3 33            [ 6] 2196 	inc	sp
   0BD4 C5            [11] 2197 	push	bc
   0BD5 33            [ 6] 2198 	inc	sp
   0BD6 2Ar9Br03      [16] 2199 	ld	hl,(_mapa)
   0BD9 E5            [11] 2200 	push	hl
   0BDA CDr00r00      [17] 2201 	call	_getTilePtr
   0BDD F1            [10] 2202 	pop	af
   0BDE F1            [10] 2203 	pop	af
   0BDF 4E            [ 7] 2204 	ld	c,(hl)
   0BE0 3E 02         [ 7] 2205 	ld	a,#0x02
   0BE2 91            [ 4] 2206 	sub	a, c
   0BE3 DAr89r12      [10] 2207 	jp	C,00199$
                           2208 ;src/main.c:436: && *getTilePtr(mapa, enemy->x, enemy->y + G_ENEMY_H/2) <= 2
   0BE6 DD 6E F6      [19] 2209 	ld	l,-10 (ix)
   0BE9 DD 66 F7      [19] 2210 	ld	h,-9 (ix)
   0BEC 7E            [ 7] 2211 	ld	a,(hl)
   0BED C6 0B         [ 7] 2212 	add	a, #0x0B
   0BEF 57            [ 4] 2213 	ld	d,a
   0BF0 DD 6E F4      [19] 2214 	ld	l,-12 (ix)
   0BF3 DD 66 F5      [19] 2215 	ld	h,-11 (ix)
   0BF6 46            [ 7] 2216 	ld	b,(hl)
   0BF7 D5            [11] 2217 	push	de
   0BF8 33            [ 6] 2218 	inc	sp
   0BF9 C5            [11] 2219 	push	bc
   0BFA 33            [ 6] 2220 	inc	sp
   0BFB 2Ar9Br03      [16] 2221 	ld	hl,(_mapa)
   0BFE E5            [11] 2222 	push	hl
   0BFF CDr00r00      [17] 2223 	call	_getTilePtr
   0C02 F1            [10] 2224 	pop	af
   0C03 F1            [10] 2225 	pop	af
   0C04 4E            [ 7] 2226 	ld	c,(hl)
   0C05 3E 02         [ 7] 2227 	ld	a,#0x02
   0C07 91            [ 4] 2228 	sub	a, c
   0C08 DAr89r12      [10] 2229 	jp	C,00199$
                           2230 ;src/main.c:437: && *getTilePtr(mapa, enemy->x, enemy->y + G_ENEMY_H) <= 2) {
   0C0B DD 6E F6      [19] 2231 	ld	l,-10 (ix)
   0C0E DD 66 F7      [19] 2232 	ld	h,-9 (ix)
   0C11 7E            [ 7] 2233 	ld	a,(hl)
   0C12 C6 16         [ 7] 2234 	add	a, #0x16
   0C14 57            [ 4] 2235 	ld	d,a
   0C15 DD 6E F4      [19] 2236 	ld	l,-12 (ix)
   0C18 DD 66 F5      [19] 2237 	ld	h,-11 (ix)
   0C1B 46            [ 7] 2238 	ld	b,(hl)
   0C1C D5            [11] 2239 	push	de
   0C1D 33            [ 6] 2240 	inc	sp
   0C1E C5            [11] 2241 	push	bc
   0C1F 33            [ 6] 2242 	inc	sp
   0C20 2Ar9Br03      [16] 2243 	ld	hl,(_mapa)
   0C23 E5            [11] 2244 	push	hl
   0C24 CDr00r00      [17] 2245 	call	_getTilePtr
   0C27 F1            [10] 2246 	pop	af
   0C28 F1            [10] 2247 	pop	af
   0C29 4E            [ 7] 2248 	ld	c,(hl)
   0C2A 3E 02         [ 7] 2249 	ld	a,#0x02
   0C2C 91            [ 4] 2250 	sub	a, c
   0C2D DAr89r12      [10] 2251 	jp	C,00199$
                           2252 ;src/main.c:438: moverEnemigoIzquierda(enemy);
   0C30 DD 6E F4      [19] 2253 	ld	l,-12 (ix)
   0C33 DD 66 F5      [19] 2254 	ld	h,-11 (ix)
   0C36 E5            [11] 2255 	push	hl
   0C37 CDrE8r05      [17] 2256 	call	_moverEnemigoIzquierda
   0C3A F1            [10] 2257 	pop	af
                           2258 ;src/main.c:440: enemy->mover = SI;
   0C3B DD 6E F8      [19] 2259 	ld	l,-8 (ix)
   0C3E DD 66 F9      [19] 2260 	ld	h,-7 (ix)
   0C41 36 01         [10] 2261 	ld	(hl),#0x01
   0C43 C3r89r12      [10] 2262 	jp	00199$
   0C46                    2263 00114$:
                           2264 ;src/main.c:444: if (dist > G_ENEMY_W + 3) {
   0C46 3E 07         [ 7] 2265 	ld	a,#0x07
   0C48 DD 96 F3      [19] 2266 	sub	a, -13 (ix)
   0C4B D2r89r12      [10] 2267 	jp	NC,00199$
                           2268 ;src/main.c:445: if(*getTilePtr(mapa, enemy->x + G_ENEMY_W, enemy->y) <= 2
   0C4E DD 66 FA      [19] 2269 	ld	h,-6 (ix)
   0C51 DD 6E FB      [19] 2270 	ld	l,-5 (ix)
   0C54 E5            [11] 2271 	push	hl
   0C55 2Ar9Br03      [16] 2272 	ld	hl,(_mapa)
   0C58 E5            [11] 2273 	push	hl
   0C59 CDr00r00      [17] 2274 	call	_getTilePtr
   0C5C F1            [10] 2275 	pop	af
   0C5D F1            [10] 2276 	pop	af
   0C5E 4E            [ 7] 2277 	ld	c,(hl)
   0C5F 3E 02         [ 7] 2278 	ld	a,#0x02
   0C61 91            [ 4] 2279 	sub	a, c
   0C62 DAr89r12      [10] 2280 	jp	C,00199$
                           2281 ;src/main.c:446: && *getTilePtr(mapa, enemy->x + G_ENEMY_W, enemy->y + G_ENEMY_H/2) <= 2
   0C65 DD 6E F6      [19] 2282 	ld	l,-10 (ix)
   0C68 DD 66 F7      [19] 2283 	ld	h,-9 (ix)
   0C6B 7E            [ 7] 2284 	ld	a,(hl)
   0C6C C6 0B         [ 7] 2285 	add	a, #0x0B
   0C6E 47            [ 4] 2286 	ld	b,a
   0C6F DD 6E F4      [19] 2287 	ld	l,-12 (ix)
   0C72 DD 66 F5      [19] 2288 	ld	h,-11 (ix)
   0C75 7E            [ 7] 2289 	ld	a,(hl)
   0C76 C6 04         [ 7] 2290 	add	a, #0x04
   0C78 C5            [11] 2291 	push	bc
   0C79 33            [ 6] 2292 	inc	sp
   0C7A F5            [11] 2293 	push	af
   0C7B 33            [ 6] 2294 	inc	sp
   0C7C 2Ar9Br03      [16] 2295 	ld	hl,(_mapa)
   0C7F E5            [11] 2296 	push	hl
   0C80 CDr00r00      [17] 2297 	call	_getTilePtr
   0C83 F1            [10] 2298 	pop	af
   0C84 F1            [10] 2299 	pop	af
   0C85 4E            [ 7] 2300 	ld	c,(hl)
   0C86 3E 02         [ 7] 2301 	ld	a,#0x02
   0C88 91            [ 4] 2302 	sub	a, c
   0C89 DAr89r12      [10] 2303 	jp	C,00199$
                           2304 ;src/main.c:447: && *getTilePtr(mapa, enemy->x + G_ENEMY_W, enemy->y + G_ENEMY_H) <= 2) {
   0C8C DD 6E F6      [19] 2305 	ld	l,-10 (ix)
   0C8F DD 66 F7      [19] 2306 	ld	h,-9 (ix)
   0C92 7E            [ 7] 2307 	ld	a,(hl)
   0C93 C6 16         [ 7] 2308 	add	a, #0x16
   0C95 47            [ 4] 2309 	ld	b,a
   0C96 DD 6E F4      [19] 2310 	ld	l,-12 (ix)
   0C99 DD 66 F5      [19] 2311 	ld	h,-11 (ix)
   0C9C 7E            [ 7] 2312 	ld	a,(hl)
   0C9D C6 04         [ 7] 2313 	add	a, #0x04
   0C9F C5            [11] 2314 	push	bc
   0CA0 33            [ 6] 2315 	inc	sp
   0CA1 F5            [11] 2316 	push	af
   0CA2 33            [ 6] 2317 	inc	sp
   0CA3 2Ar9Br03      [16] 2318 	ld	hl,(_mapa)
   0CA6 E5            [11] 2319 	push	hl
   0CA7 CDr00r00      [17] 2320 	call	_getTilePtr
   0CAA F1            [10] 2321 	pop	af
   0CAB F1            [10] 2322 	pop	af
   0CAC 4E            [ 7] 2323 	ld	c,(hl)
   0CAD 3E 02         [ 7] 2324 	ld	a,#0x02
   0CAF 91            [ 4] 2325 	sub	a, c
   0CB0 DAr89r12      [10] 2326 	jp	C,00199$
                           2327 ;src/main.c:448: moverEnemigoDerecha(enemy);
   0CB3 DD 6E F4      [19] 2328 	ld	l,-12 (ix)
   0CB6 DD 66 F5      [19] 2329 	ld	h,-11 (ix)
   0CB9 E5            [11] 2330 	push	hl
   0CBA CDrD8r05      [17] 2331 	call	_moverEnemigoDerecha
   0CBD F1            [10] 2332 	pop	af
                           2333 ;src/main.c:450: enemy->mover = SI;
   0CBE DD 6E F8      [19] 2334 	ld	l,-8 (ix)
   0CC1 DD 66 F9      [19] 2335 	ld	h,-7 (ix)
   0CC4 36 01         [10] 2336 	ld	(hl),#0x01
   0CC6 C3r89r12      [10] 2337 	jp	00199$
   0CC9                    2338 00195$:
                           2339 ;src/main.c:455: else if (enemy->x == dx) {
   0CC9 DD 7E 06      [19] 2340 	ld	a,6 (ix)
   0CCC 90            [ 4] 2341 	sub	a, b
   0CCD C2rE2r0D      [10] 2342 	jp	NZ,00192$
                           2343 ;src/main.c:456: if (dy < enemy->y) {
   0CD0 DD 7E 07      [19] 2344 	ld	a,7 (ix)
   0CD3 DD 96 FA      [19] 2345 	sub	a, -6 (ix)
   0CD6 D2r5Cr0D      [10] 2346 	jp	NC,00129$
                           2347 ;src/main.c:457: if (dist > G_HERO_H + 5) {
   0CD9 3E 1B         [ 7] 2348 	ld	a,#0x1B
   0CDB DD 96 F3      [19] 2349 	sub	a, -13 (ix)
   0CDE D2r89r12      [10] 2350 	jp	NC,00199$
                           2351 ;src/main.c:458: if(*getTilePtr(mapa, enemy->x, enemy->y - 2) <= 2
   0CE1 DD 56 FA      [19] 2352 	ld	d,-6 (ix)
   0CE4 15            [ 4] 2353 	dec	d
   0CE5 15            [ 4] 2354 	dec	d
   0CE6 D5            [11] 2355 	push	de
   0CE7 33            [ 6] 2356 	inc	sp
   0CE8 C5            [11] 2357 	push	bc
   0CE9 33            [ 6] 2358 	inc	sp
   0CEA 2Ar9Br03      [16] 2359 	ld	hl,(_mapa)
   0CED E5            [11] 2360 	push	hl
   0CEE CDr00r00      [17] 2361 	call	_getTilePtr
   0CF1 F1            [10] 2362 	pop	af
   0CF2 F1            [10] 2363 	pop	af
   0CF3 4E            [ 7] 2364 	ld	c,(hl)
   0CF4 3E 02         [ 7] 2365 	ld	a,#0x02
   0CF6 91            [ 4] 2366 	sub	a, c
   0CF7 DAr89r12      [10] 2367 	jp	C,00199$
                           2368 ;src/main.c:459: && *getTilePtr(mapa, enemy->x + G_ENEMY_W / 2, enemy->y - 2) <= 2
   0CFA DD 6E F6      [19] 2369 	ld	l,-10 (ix)
   0CFD DD 66 F7      [19] 2370 	ld	h,-9 (ix)
   0D00 56            [ 7] 2371 	ld	d,(hl)
   0D01 15            [ 4] 2372 	dec	d
   0D02 15            [ 4] 2373 	dec	d
   0D03 DD 6E F4      [19] 2374 	ld	l,-12 (ix)
   0D06 DD 66 F5      [19] 2375 	ld	h,-11 (ix)
   0D09 46            [ 7] 2376 	ld	b,(hl)
   0D0A 04            [ 4] 2377 	inc	b
   0D0B 04            [ 4] 2378 	inc	b
   0D0C D5            [11] 2379 	push	de
   0D0D 33            [ 6] 2380 	inc	sp
   0D0E C5            [11] 2381 	push	bc
   0D0F 33            [ 6] 2382 	inc	sp
   0D10 2Ar9Br03      [16] 2383 	ld	hl,(_mapa)
   0D13 E5            [11] 2384 	push	hl
   0D14 CDr00r00      [17] 2385 	call	_getTilePtr
   0D17 F1            [10] 2386 	pop	af
   0D18 F1            [10] 2387 	pop	af
   0D19 4E            [ 7] 2388 	ld	c,(hl)
   0D1A 3E 02         [ 7] 2389 	ld	a,#0x02
   0D1C 91            [ 4] 2390 	sub	a, c
   0D1D DAr89r12      [10] 2391 	jp	C,00199$
                           2392 ;src/main.c:460: && *getTilePtr(mapa, enemy->x + G_ENEMY_W, enemy->y - 2) <= 2) {
   0D20 DD 6E F6      [19] 2393 	ld	l,-10 (ix)
   0D23 DD 66 F7      [19] 2394 	ld	h,-9 (ix)
   0D26 46            [ 7] 2395 	ld	b,(hl)
   0D27 05            [ 4] 2396 	dec	b
   0D28 05            [ 4] 2397 	dec	b
   0D29 DD 6E F4      [19] 2398 	ld	l,-12 (ix)
   0D2C DD 66 F5      [19] 2399 	ld	h,-11 (ix)
   0D2F 7E            [ 7] 2400 	ld	a,(hl)
   0D30 C6 04         [ 7] 2401 	add	a, #0x04
   0D32 C5            [11] 2402 	push	bc
   0D33 33            [ 6] 2403 	inc	sp
   0D34 F5            [11] 2404 	push	af
   0D35 33            [ 6] 2405 	inc	sp
   0D36 2Ar9Br03      [16] 2406 	ld	hl,(_mapa)
   0D39 E5            [11] 2407 	push	hl
   0D3A CDr00r00      [17] 2408 	call	_getTilePtr
   0D3D F1            [10] 2409 	pop	af
   0D3E F1            [10] 2410 	pop	af
   0D3F 4E            [ 7] 2411 	ld	c,(hl)
   0D40 3E 02         [ 7] 2412 	ld	a,#0x02
   0D42 91            [ 4] 2413 	sub	a, c
   0D43 DAr89r12      [10] 2414 	jp	C,00199$
                           2415 ;src/main.c:461: moverEnemigoArriba(enemy);
   0D46 DD 6E F4      [19] 2416 	ld	l,-12 (ix)
   0D49 DD 66 F5      [19] 2417 	ld	h,-11 (ix)
   0D4C E5            [11] 2418 	push	hl
   0D4D CDr9Ar05      [17] 2419 	call	_moverEnemigoArriba
   0D50 F1            [10] 2420 	pop	af
                           2421 ;src/main.c:463: enemy->mover = SI;
   0D51 DD 6E F8      [19] 2422 	ld	l,-8 (ix)
   0D54 DD 66 F9      [19] 2423 	ld	h,-7 (ix)
   0D57 36 01         [10] 2424 	ld	(hl),#0x01
   0D59 C3r89r12      [10] 2425 	jp	00199$
   0D5C                    2426 00129$:
                           2427 ;src/main.c:467: if(dist > G_ENEMY_H + 7) {
   0D5C 3E 1D         [ 7] 2428 	ld	a,#0x1D
   0D5E DD 96 F3      [19] 2429 	sub	a, -13 (ix)
   0D61 D2r89r12      [10] 2430 	jp	NC,00199$
                           2431 ;src/main.c:468: if(*getTilePtr(mapa, enemy->x, enemy->y + G_ENEMY_H + 2) <= 2
   0D64 DD 7E FA      [19] 2432 	ld	a,-6 (ix)
   0D67 C6 18         [ 7] 2433 	add	a, #0x18
   0D69 57            [ 4] 2434 	ld	d,a
   0D6A D5            [11] 2435 	push	de
   0D6B 33            [ 6] 2436 	inc	sp
   0D6C C5            [11] 2437 	push	bc
   0D6D 33            [ 6] 2438 	inc	sp
   0D6E 2Ar9Br03      [16] 2439 	ld	hl,(_mapa)
   0D71 E5            [11] 2440 	push	hl
   0D72 CDr00r00      [17] 2441 	call	_getTilePtr
   0D75 F1            [10] 2442 	pop	af
   0D76 F1            [10] 2443 	pop	af
   0D77 4E            [ 7] 2444 	ld	c,(hl)
   0D78 3E 02         [ 7] 2445 	ld	a,#0x02
   0D7A 91            [ 4] 2446 	sub	a, c
   0D7B DAr89r12      [10] 2447 	jp	C,00199$
                           2448 ;src/main.c:469: && *getTilePtr(mapa, enemy->x + G_ENEMY_W / 2, enemy->y + G_ENEMY_H + 2) <= 2
   0D7E DD 6E F6      [19] 2449 	ld	l,-10 (ix)
   0D81 DD 66 F7      [19] 2450 	ld	h,-9 (ix)
   0D84 7E            [ 7] 2451 	ld	a,(hl)
   0D85 C6 18         [ 7] 2452 	add	a, #0x18
   0D87 57            [ 4] 2453 	ld	d,a
   0D88 DD 6E F4      [19] 2454 	ld	l,-12 (ix)
   0D8B DD 66 F5      [19] 2455 	ld	h,-11 (ix)
   0D8E 46            [ 7] 2456 	ld	b,(hl)
   0D8F 04            [ 4] 2457 	inc	b
   0D90 04            [ 4] 2458 	inc	b
   0D91 D5            [11] 2459 	push	de
   0D92 33            [ 6] 2460 	inc	sp
   0D93 C5            [11] 2461 	push	bc
   0D94 33            [ 6] 2462 	inc	sp
   0D95 2Ar9Br03      [16] 2463 	ld	hl,(_mapa)
   0D98 E5            [11] 2464 	push	hl
   0D99 CDr00r00      [17] 2465 	call	_getTilePtr
   0D9C F1            [10] 2466 	pop	af
   0D9D F1            [10] 2467 	pop	af
   0D9E 4E            [ 7] 2468 	ld	c,(hl)
   0D9F 3E 02         [ 7] 2469 	ld	a,#0x02
   0DA1 91            [ 4] 2470 	sub	a, c
   0DA2 DAr89r12      [10] 2471 	jp	C,00199$
                           2472 ;src/main.c:470: && *getTilePtr(mapa, enemy->x + G_ENEMY_W, enemy->y + G_ENEMY_H + 2) <= 2) {
   0DA5 DD 6E F6      [19] 2473 	ld	l,-10 (ix)
   0DA8 DD 66 F7      [19] 2474 	ld	h,-9 (ix)
   0DAB 7E            [ 7] 2475 	ld	a,(hl)
   0DAC C6 18         [ 7] 2476 	add	a, #0x18
   0DAE 47            [ 4] 2477 	ld	b,a
   0DAF DD 6E F4      [19] 2478 	ld	l,-12 (ix)
   0DB2 DD 66 F5      [19] 2479 	ld	h,-11 (ix)
   0DB5 7E            [ 7] 2480 	ld	a,(hl)
   0DB6 C6 04         [ 7] 2481 	add	a, #0x04
   0DB8 C5            [11] 2482 	push	bc
   0DB9 33            [ 6] 2483 	inc	sp
   0DBA F5            [11] 2484 	push	af
   0DBB 33            [ 6] 2485 	inc	sp
   0DBC 2Ar9Br03      [16] 2486 	ld	hl,(_mapa)
   0DBF E5            [11] 2487 	push	hl
   0DC0 CDr00r00      [17] 2488 	call	_getTilePtr
   0DC3 F1            [10] 2489 	pop	af
   0DC4 F1            [10] 2490 	pop	af
   0DC5 4E            [ 7] 2491 	ld	c,(hl)
   0DC6 3E 02         [ 7] 2492 	ld	a,#0x02
   0DC8 91            [ 4] 2493 	sub	a, c
   0DC9 DAr89r12      [10] 2494 	jp	C,00199$
                           2495 ;src/main.c:471: moverEnemigoAbajo(enemy);
   0DCC DD 6E F4      [19] 2496 	ld	l,-12 (ix)
   0DCF DD 66 F5      [19] 2497 	ld	h,-11 (ix)
   0DD2 E5            [11] 2498 	push	hl
   0DD3 CDrB9r05      [17] 2499 	call	_moverEnemigoAbajo
   0DD6 F1            [10] 2500 	pop	af
                           2501 ;src/main.c:473: enemy->mover = SI;
   0DD7 DD 6E F8      [19] 2502 	ld	l,-8 (ix)
   0DDA DD 66 F9      [19] 2503 	ld	h,-7 (ix)
   0DDD 36 01         [10] 2504 	ld	(hl),#0x01
   0DDF C3r89r12      [10] 2505 	jp	00199$
   0DE2                    2506 00192$:
                           2507 ;src/main.c:479: if (!prota.mover) distConstraint = 20; // ajuste en parado
   0DE2 3Ar8Er03      [13] 2508 	ld	a, (#_prota + 6)
   0DE5 B7            [ 4] 2509 	or	a, a
   0DE6 20 02         [12] 2510 	jr	NZ,00132$
   0DE8 0E 14         [ 7] 2511 	ld	c,#0x14
   0DEA                    2512 00132$:
                           2513 ;src/main.c:481: if (dist > distConstraint) {
   0DEA 79            [ 4] 2514 	ld	a,c
   0DEB DD 96 F3      [19] 2515 	sub	a, -13 (ix)
   0DEE D2r89r12      [10] 2516 	jp	NC,00199$
                           2517 ;src/main.c:482: if (dx + 1 < enemy->x) {
   0DF1 DD 5E 06      [19] 2518 	ld	e,6 (ix)
   0DF4 16 00         [ 7] 2519 	ld	d,#0x00
   0DF6 13            [ 6] 2520 	inc	de
   0DF7 DD 73 FE      [19] 2521 	ld	-2 (ix),e
   0DFA DD 72 FF      [19] 2522 	ld	-1 (ix),d
   0DFD DD 70 FC      [19] 2523 	ld	-4 (ix),b
   0E00 DD 36 FD 00   [19] 2524 	ld	-3 (ix),#0x00
   0E04 DD 7E FE      [19] 2525 	ld	a,-2 (ix)
   0E07 DD 96 FC      [19] 2526 	sub	a, -4 (ix)
   0E0A DD 7E FF      [19] 2527 	ld	a,-1 (ix)
   0E0D DD 9E FD      [19] 2528 	sbc	a, -3 (ix)
   0E10 E2r15r0E      [10] 2529 	jp	PO, 00427$
   0E13 EE 80         [ 7] 2530 	xor	a, #0x80
   0E15                    2531 00427$:
   0E15 F2r91r0E      [10] 2532 	jp	P,00144$
                           2533 ;src/main.c:483: if(*getTilePtr(mapa, enemy->x, enemy->y) <= 2
   0E18 DD 7E FA      [19] 2534 	ld	a,-6 (ix)
   0E1B F5            [11] 2535 	push	af
   0E1C 33            [ 6] 2536 	inc	sp
   0E1D C5            [11] 2537 	push	bc
   0E1E 33            [ 6] 2538 	inc	sp
   0E1F 2Ar9Br03      [16] 2539 	ld	hl,(_mapa)
   0E22 E5            [11] 2540 	push	hl
   0E23 CDr00r00      [17] 2541 	call	_getTilePtr
   0E26 F1            [10] 2542 	pop	af
   0E27 F1            [10] 2543 	pop	af
   0E28 4E            [ 7] 2544 	ld	c,(hl)
   0E29 3E 02         [ 7] 2545 	ld	a,#0x02
   0E2B 91            [ 4] 2546 	sub	a, c
   0E2C DAr1Er0F      [10] 2547 	jp	C,00145$
                           2548 ;src/main.c:484: && *getTilePtr(mapa, enemy->x, enemy->y + G_ENEMY_H/2) <= 2
   0E2F DD 6E F6      [19] 2549 	ld	l,-10 (ix)
   0E32 DD 66 F7      [19] 2550 	ld	h,-9 (ix)
   0E35 7E            [ 7] 2551 	ld	a,(hl)
   0E36 C6 0B         [ 7] 2552 	add	a, #0x0B
   0E38 DD 6E F4      [19] 2553 	ld	l,-12 (ix)
   0E3B DD 66 F5      [19] 2554 	ld	h,-11 (ix)
   0E3E 46            [ 7] 2555 	ld	b,(hl)
   0E3F F5            [11] 2556 	push	af
   0E40 33            [ 6] 2557 	inc	sp
   0E41 C5            [11] 2558 	push	bc
   0E42 33            [ 6] 2559 	inc	sp
   0E43 2Ar9Br03      [16] 2560 	ld	hl,(_mapa)
   0E46 E5            [11] 2561 	push	hl
   0E47 CDr00r00      [17] 2562 	call	_getTilePtr
   0E4A F1            [10] 2563 	pop	af
   0E4B F1            [10] 2564 	pop	af
   0E4C 4E            [ 7] 2565 	ld	c,(hl)
   0E4D 3E 02         [ 7] 2566 	ld	a,#0x02
   0E4F 91            [ 4] 2567 	sub	a, c
   0E50 DAr1Er0F      [10] 2568 	jp	C,00145$
                           2569 ;src/main.c:485: && *getTilePtr(mapa, enemy->x, enemy->y + G_ENEMY_H) <= 2) {
   0E53 DD 6E F6      [19] 2570 	ld	l,-10 (ix)
   0E56 DD 66 F7      [19] 2571 	ld	h,-9 (ix)
   0E59 7E            [ 7] 2572 	ld	a,(hl)
   0E5A C6 16         [ 7] 2573 	add	a, #0x16
   0E5C DD 6E F4      [19] 2574 	ld	l,-12 (ix)
   0E5F DD 66 F5      [19] 2575 	ld	h,-11 (ix)
   0E62 46            [ 7] 2576 	ld	b,(hl)
   0E63 F5            [11] 2577 	push	af
   0E64 33            [ 6] 2578 	inc	sp
   0E65 C5            [11] 2579 	push	bc
   0E66 33            [ 6] 2580 	inc	sp
   0E67 2Ar9Br03      [16] 2581 	ld	hl,(_mapa)
   0E6A E5            [11] 2582 	push	hl
   0E6B CDr00r00      [17] 2583 	call	_getTilePtr
   0E6E F1            [10] 2584 	pop	af
   0E6F F1            [10] 2585 	pop	af
   0E70 4E            [ 7] 2586 	ld	c,(hl)
   0E71 3E 02         [ 7] 2587 	ld	a,#0x02
   0E73 91            [ 4] 2588 	sub	a, c
   0E74 DAr1Er0F      [10] 2589 	jp	C,00145$
                           2590 ;src/main.c:486: moverEnemigoIzquierda(enemy);
   0E77 DD 6E F4      [19] 2591 	ld	l,-12 (ix)
   0E7A DD 66 F5      [19] 2592 	ld	h,-11 (ix)
   0E7D E5            [11] 2593 	push	hl
   0E7E CDrE8r05      [17] 2594 	call	_moverEnemigoIzquierda
   0E81 F1            [10] 2595 	pop	af
                           2596 ;src/main.c:487: movX = 1;
   0E82 DD 36 F2 01   [19] 2597 	ld	-14 (ix),#0x01
                           2598 ;src/main.c:488: enemy->mover = SI;
   0E86 DD 6E F8      [19] 2599 	ld	l,-8 (ix)
   0E89 DD 66 F9      [19] 2600 	ld	h,-7 (ix)
   0E8C 36 01         [10] 2601 	ld	(hl),#0x01
   0E8E C3r1Er0F      [10] 2602 	jp	00145$
   0E91                    2603 00144$:
                           2604 ;src/main.c:490: } else if (dx + 1 > enemy->x){
   0E91 DD 7E FC      [19] 2605 	ld	a,-4 (ix)
   0E94 DD 96 FE      [19] 2606 	sub	a, -2 (ix)
   0E97 DD 7E FD      [19] 2607 	ld	a,-3 (ix)
   0E9A DD 9E FF      [19] 2608 	sbc	a, -1 (ix)
   0E9D E2rA2r0E      [10] 2609 	jp	PO, 00428$
   0EA0 EE 80         [ 7] 2610 	xor	a, #0x80
   0EA2                    2611 00428$:
   0EA2 F2r1Er0F      [10] 2612 	jp	P,00145$
                           2613 ;src/main.c:491: if(*getTilePtr(mapa, enemy->x + G_ENEMY_W, enemy->y) <= 2
   0EA5 DD 66 FA      [19] 2614 	ld	h,-6 (ix)
   0EA8 DD 6E FB      [19] 2615 	ld	l,-5 (ix)
   0EAB E5            [11] 2616 	push	hl
   0EAC 2Ar9Br03      [16] 2617 	ld	hl,(_mapa)
   0EAF E5            [11] 2618 	push	hl
   0EB0 CDr00r00      [17] 2619 	call	_getTilePtr
   0EB3 F1            [10] 2620 	pop	af
   0EB4 F1            [10] 2621 	pop	af
   0EB5 4E            [ 7] 2622 	ld	c,(hl)
   0EB6 3E 02         [ 7] 2623 	ld	a,#0x02
   0EB8 91            [ 4] 2624 	sub	a, c
   0EB9 38 63         [12] 2625 	jr	C,00145$
                           2626 ;src/main.c:492: && *getTilePtr(mapa, enemy->x + G_ENEMY_W, enemy->y + G_ENEMY_H/2) <= 2
   0EBB DD 6E F6      [19] 2627 	ld	l,-10 (ix)
   0EBE DD 66 F7      [19] 2628 	ld	h,-9 (ix)
   0EC1 7E            [ 7] 2629 	ld	a,(hl)
   0EC2 C6 0B         [ 7] 2630 	add	a, #0x0B
   0EC4 47            [ 4] 2631 	ld	b,a
   0EC5 DD 6E F4      [19] 2632 	ld	l,-12 (ix)
   0EC8 DD 66 F5      [19] 2633 	ld	h,-11 (ix)
   0ECB 7E            [ 7] 2634 	ld	a,(hl)
   0ECC C6 04         [ 7] 2635 	add	a, #0x04
   0ECE C5            [11] 2636 	push	bc
   0ECF 33            [ 6] 2637 	inc	sp
   0ED0 F5            [11] 2638 	push	af
   0ED1 33            [ 6] 2639 	inc	sp
   0ED2 2Ar9Br03      [16] 2640 	ld	hl,(_mapa)
   0ED5 E5            [11] 2641 	push	hl
   0ED6 CDr00r00      [17] 2642 	call	_getTilePtr
   0ED9 F1            [10] 2643 	pop	af
   0EDA F1            [10] 2644 	pop	af
   0EDB 4E            [ 7] 2645 	ld	c,(hl)
   0EDC 3E 02         [ 7] 2646 	ld	a,#0x02
   0EDE 91            [ 4] 2647 	sub	a, c
   0EDF 38 3D         [12] 2648 	jr	C,00145$
                           2649 ;src/main.c:493: && *getTilePtr(mapa, enemy->x + G_ENEMY_W, enemy->y + G_ENEMY_H) <= 2) {
   0EE1 DD 6E F6      [19] 2650 	ld	l,-10 (ix)
   0EE4 DD 66 F7      [19] 2651 	ld	h,-9 (ix)
   0EE7 7E            [ 7] 2652 	ld	a,(hl)
   0EE8 C6 16         [ 7] 2653 	add	a, #0x16
   0EEA 47            [ 4] 2654 	ld	b,a
   0EEB DD 6E F4      [19] 2655 	ld	l,-12 (ix)
   0EEE DD 66 F5      [19] 2656 	ld	h,-11 (ix)
   0EF1 7E            [ 7] 2657 	ld	a,(hl)
   0EF2 C6 04         [ 7] 2658 	add	a, #0x04
   0EF4 C5            [11] 2659 	push	bc
   0EF5 33            [ 6] 2660 	inc	sp
   0EF6 F5            [11] 2661 	push	af
   0EF7 33            [ 6] 2662 	inc	sp
   0EF8 2Ar9Br03      [16] 2663 	ld	hl,(_mapa)
   0EFB E5            [11] 2664 	push	hl
   0EFC CDr00r00      [17] 2665 	call	_getTilePtr
   0EFF F1            [10] 2666 	pop	af
   0F00 F1            [10] 2667 	pop	af
   0F01 4E            [ 7] 2668 	ld	c,(hl)
   0F02 3E 02         [ 7] 2669 	ld	a,#0x02
   0F04 91            [ 4] 2670 	sub	a, c
   0F05 38 17         [12] 2671 	jr	C,00145$
                           2672 ;src/main.c:494: moverEnemigoDerecha(enemy);
   0F07 DD 6E F4      [19] 2673 	ld	l,-12 (ix)
   0F0A DD 66 F5      [19] 2674 	ld	h,-11 (ix)
   0F0D E5            [11] 2675 	push	hl
   0F0E CDrD8r05      [17] 2676 	call	_moverEnemigoDerecha
   0F11 F1            [10] 2677 	pop	af
                           2678 ;src/main.c:495: movX = 1;
   0F12 DD 36 F2 01   [19] 2679 	ld	-14 (ix),#0x01
                           2680 ;src/main.c:496: enemy->mover = SI;
   0F16 DD 6E F8      [19] 2681 	ld	l,-8 (ix)
   0F19 DD 66 F9      [19] 2682 	ld	h,-7 (ix)
   0F1C 36 01         [10] 2683 	ld	(hl),#0x01
   0F1E                    2684 00145$:
                           2685 ;src/main.c:499: if (dy < enemy->y) {
   0F1E DD 6E F6      [19] 2686 	ld	l,-10 (ix)
   0F21 DD 66 F7      [19] 2687 	ld	h,-9 (ix)
   0F24 4E            [ 7] 2688 	ld	c,(hl)
                           2689 ;src/main.c:423: u8 difx = abs(enemy->x - prota.x); // calculo distancia para mantener una dist
   0F25 DD 6E F4      [19] 2690 	ld	l,-12 (ix)
   0F28 DD 66 F5      [19] 2691 	ld	h,-11 (ix)
   0F2B 46            [ 7] 2692 	ld	b,(hl)
                           2693 ;src/main.c:499: if (dy < enemy->y) {
   0F2C DD 7E 07      [19] 2694 	ld	a,7 (ix)
   0F2F 91            [ 4] 2695 	sub	a, c
   0F30 D2rB0r0F      [10] 2696 	jp	NC,00155$
                           2697 ;src/main.c:500: if(*getTilePtr(mapa, enemy->x, enemy->y - 2) <= 2
   0F33 51            [ 4] 2698 	ld	d,c
   0F34 15            [ 4] 2699 	dec	d
   0F35 15            [ 4] 2700 	dec	d
   0F36 D5            [11] 2701 	push	de
   0F37 33            [ 6] 2702 	inc	sp
   0F38 C5            [11] 2703 	push	bc
   0F39 33            [ 6] 2704 	inc	sp
   0F3A 2Ar9Br03      [16] 2705 	ld	hl,(_mapa)
   0F3D E5            [11] 2706 	push	hl
   0F3E CDr00r00      [17] 2707 	call	_getTilePtr
   0F41 F1            [10] 2708 	pop	af
   0F42 F1            [10] 2709 	pop	af
   0F43 4E            [ 7] 2710 	ld	c,(hl)
   0F44 3E 02         [ 7] 2711 	ld	a,#0x02
   0F46 91            [ 4] 2712 	sub	a, c
   0F47 DAr2Ar10      [10] 2713 	jp	C,00156$
                           2714 ;src/main.c:501: && *getTilePtr(mapa, enemy->x + G_ENEMY_W / 2, enemy->y - 2) <= 2
   0F4A DD 6E F6      [19] 2715 	ld	l,-10 (ix)
   0F4D DD 66 F7      [19] 2716 	ld	h,-9 (ix)
   0F50 56            [ 7] 2717 	ld	d,(hl)
   0F51 15            [ 4] 2718 	dec	d
   0F52 15            [ 4] 2719 	dec	d
   0F53 DD 6E F4      [19] 2720 	ld	l,-12 (ix)
   0F56 DD 66 F5      [19] 2721 	ld	h,-11 (ix)
   0F59 46            [ 7] 2722 	ld	b,(hl)
   0F5A 04            [ 4] 2723 	inc	b
   0F5B 04            [ 4] 2724 	inc	b
   0F5C D5            [11] 2725 	push	de
   0F5D 33            [ 6] 2726 	inc	sp
   0F5E C5            [11] 2727 	push	bc
   0F5F 33            [ 6] 2728 	inc	sp
   0F60 2Ar9Br03      [16] 2729 	ld	hl,(_mapa)
   0F63 E5            [11] 2730 	push	hl
   0F64 CDr00r00      [17] 2731 	call	_getTilePtr
   0F67 F1            [10] 2732 	pop	af
   0F68 F1            [10] 2733 	pop	af
   0F69 4E            [ 7] 2734 	ld	c,(hl)
   0F6A 3E 02         [ 7] 2735 	ld	a,#0x02
   0F6C 91            [ 4] 2736 	sub	a, c
   0F6D DAr2Ar10      [10] 2737 	jp	C,00156$
                           2738 ;src/main.c:502: && *getTilePtr(mapa, enemy->x + G_ENEMY_W, enemy->y - 2) <= 2) {
   0F70 DD 6E F6      [19] 2739 	ld	l,-10 (ix)
   0F73 DD 66 F7      [19] 2740 	ld	h,-9 (ix)
   0F76 46            [ 7] 2741 	ld	b,(hl)
   0F77 05            [ 4] 2742 	dec	b
   0F78 05            [ 4] 2743 	dec	b
   0F79 DD 6E F4      [19] 2744 	ld	l,-12 (ix)
   0F7C DD 66 F5      [19] 2745 	ld	h,-11 (ix)
   0F7F 7E            [ 7] 2746 	ld	a,(hl)
   0F80 C6 04         [ 7] 2747 	add	a, #0x04
   0F82 C5            [11] 2748 	push	bc
   0F83 33            [ 6] 2749 	inc	sp
   0F84 F5            [11] 2750 	push	af
   0F85 33            [ 6] 2751 	inc	sp
   0F86 2Ar9Br03      [16] 2752 	ld	hl,(_mapa)
   0F89 E5            [11] 2753 	push	hl
   0F8A CDr00r00      [17] 2754 	call	_getTilePtr
   0F8D F1            [10] 2755 	pop	af
   0F8E F1            [10] 2756 	pop	af
   0F8F 4E            [ 7] 2757 	ld	c,(hl)
   0F90 3E 02         [ 7] 2758 	ld	a,#0x02
   0F92 91            [ 4] 2759 	sub	a, c
   0F93 DAr2Ar10      [10] 2760 	jp	C,00156$
                           2761 ;src/main.c:503: moverEnemigoArriba(enemy);
   0F96 DD 6E F4      [19] 2762 	ld	l,-12 (ix)
   0F99 DD 66 F5      [19] 2763 	ld	h,-11 (ix)
   0F9C E5            [11] 2764 	push	hl
   0F9D CDr9Ar05      [17] 2765 	call	_moverEnemigoArriba
   0FA0 F1            [10] 2766 	pop	af
                           2767 ;src/main.c:504: movY = 1;
   0FA1 DD 36 F1 01   [19] 2768 	ld	-15 (ix),#0x01
                           2769 ;src/main.c:505: enemy->mover = SI;
   0FA5 DD 6E F8      [19] 2770 	ld	l,-8 (ix)
   0FA8 DD 66 F9      [19] 2771 	ld	h,-7 (ix)
   0FAB 36 01         [10] 2772 	ld	(hl),#0x01
   0FAD C3r2Ar10      [10] 2773 	jp	00156$
   0FB0                    2774 00155$:
                           2775 ;src/main.c:508: if(*getTilePtr(mapa, enemy->x, enemy->y + G_ENEMY_H + 2) <= 2
   0FB0 79            [ 4] 2776 	ld	a,c
   0FB1 C6 18         [ 7] 2777 	add	a, #0x18
   0FB3 57            [ 4] 2778 	ld	d,a
   0FB4 D5            [11] 2779 	push	de
   0FB5 33            [ 6] 2780 	inc	sp
   0FB6 C5            [11] 2781 	push	bc
   0FB7 33            [ 6] 2782 	inc	sp
   0FB8 2Ar9Br03      [16] 2783 	ld	hl,(_mapa)
   0FBB E5            [11] 2784 	push	hl
   0FBC CDr00r00      [17] 2785 	call	_getTilePtr
   0FBF F1            [10] 2786 	pop	af
   0FC0 F1            [10] 2787 	pop	af
   0FC1 4E            [ 7] 2788 	ld	c,(hl)
   0FC2 3E 02         [ 7] 2789 	ld	a,#0x02
   0FC4 91            [ 4] 2790 	sub	a, c
   0FC5 38 63         [12] 2791 	jr	C,00156$
                           2792 ;src/main.c:509: && *getTilePtr(mapa, enemy->x + G_ENEMY_W / 2, enemy->y + G_ENEMY_H + 2) <= 2
   0FC7 DD 6E F6      [19] 2793 	ld	l,-10 (ix)
   0FCA DD 66 F7      [19] 2794 	ld	h,-9 (ix)
   0FCD 7E            [ 7] 2795 	ld	a,(hl)
   0FCE C6 18         [ 7] 2796 	add	a, #0x18
   0FD0 57            [ 4] 2797 	ld	d,a
   0FD1 DD 6E F4      [19] 2798 	ld	l,-12 (ix)
   0FD4 DD 66 F5      [19] 2799 	ld	h,-11 (ix)
   0FD7 46            [ 7] 2800 	ld	b,(hl)
   0FD8 04            [ 4] 2801 	inc	b
   0FD9 04            [ 4] 2802 	inc	b
   0FDA D5            [11] 2803 	push	de
   0FDB 33            [ 6] 2804 	inc	sp
   0FDC C5            [11] 2805 	push	bc
   0FDD 33            [ 6] 2806 	inc	sp
   0FDE 2Ar9Br03      [16] 2807 	ld	hl,(_mapa)
   0FE1 E5            [11] 2808 	push	hl
   0FE2 CDr00r00      [17] 2809 	call	_getTilePtr
   0FE5 F1            [10] 2810 	pop	af
   0FE6 F1            [10] 2811 	pop	af
   0FE7 4E            [ 7] 2812 	ld	c,(hl)
   0FE8 3E 02         [ 7] 2813 	ld	a,#0x02
   0FEA 91            [ 4] 2814 	sub	a, c
   0FEB 38 3D         [12] 2815 	jr	C,00156$
                           2816 ;src/main.c:510: && *getTilePtr(mapa, enemy->x + G_ENEMY_W, enemy->y + G_ENEMY_H + 2) <= 2) {
   0FED DD 6E F6      [19] 2817 	ld	l,-10 (ix)
   0FF0 DD 66 F7      [19] 2818 	ld	h,-9 (ix)
   0FF3 7E            [ 7] 2819 	ld	a,(hl)
   0FF4 C6 18         [ 7] 2820 	add	a, #0x18
   0FF6 47            [ 4] 2821 	ld	b,a
   0FF7 DD 6E F4      [19] 2822 	ld	l,-12 (ix)
   0FFA DD 66 F5      [19] 2823 	ld	h,-11 (ix)
   0FFD 7E            [ 7] 2824 	ld	a,(hl)
   0FFE C6 04         [ 7] 2825 	add	a, #0x04
   1000 C5            [11] 2826 	push	bc
   1001 33            [ 6] 2827 	inc	sp
   1002 F5            [11] 2828 	push	af
   1003 33            [ 6] 2829 	inc	sp
   1004 2Ar9Br03      [16] 2830 	ld	hl,(_mapa)
   1007 E5            [11] 2831 	push	hl
   1008 CDr00r00      [17] 2832 	call	_getTilePtr
   100B F1            [10] 2833 	pop	af
   100C F1            [10] 2834 	pop	af
   100D 4E            [ 7] 2835 	ld	c,(hl)
   100E 3E 02         [ 7] 2836 	ld	a,#0x02
   1010 91            [ 4] 2837 	sub	a, c
   1011 38 17         [12] 2838 	jr	C,00156$
                           2839 ;src/main.c:511: moverEnemigoAbajo(enemy);
   1013 DD 6E F4      [19] 2840 	ld	l,-12 (ix)
   1016 DD 66 F5      [19] 2841 	ld	h,-11 (ix)
   1019 E5            [11] 2842 	push	hl
   101A CDrB9r05      [17] 2843 	call	_moverEnemigoAbajo
   101D F1            [10] 2844 	pop	af
                           2845 ;src/main.c:512: movY = 1;
   101E DD 36 F1 01   [19] 2846 	ld	-15 (ix),#0x01
                           2847 ;src/main.c:513: enemy->mover = SI;
   1022 DD 6E F8      [19] 2848 	ld	l,-8 (ix)
   1025 DD 66 F9      [19] 2849 	ld	h,-7 (ix)
   1028 36 01         [10] 2850 	ld	(hl),#0x01
   102A                    2851 00156$:
                           2852 ;src/main.c:516: if (!enemy->mover) {
   102A DD 6E F8      [19] 2853 	ld	l,-8 (ix)
   102D DD 66 F9      [19] 2854 	ld	h,-7 (ix)
   1030 7E            [ 7] 2855 	ld	a,(hl)
   1031 B7            [ 4] 2856 	or	a, a
   1032 C2r89r12      [10] 2857 	jp	NZ,00199$
                           2858 ;src/main.c:517: if (!movX) {
   1035 DD 7E F2      [19] 2859 	ld	a,-14 (ix)
   1038 B7            [ 4] 2860 	or	a, a
   1039 C2r62r11      [10] 2861 	jp	NZ,00171$
                           2862 ;src/main.c:518: if (enemy->y > (ORIGEN_MAPA_Y + ALTO_MAPA/2)) {
   103C DD 6E F6      [19] 2863 	ld	l,-10 (ix)
   103F DD 66 F7      [19] 2864 	ld	h,-9 (ix)
   1042 5E            [ 7] 2865 	ld	e,(hl)
                           2866 ;src/main.c:423: u8 difx = abs(enemy->x - prota.x); // calculo distancia para mantener una dist
   1043 DD 6E F4      [19] 2867 	ld	l,-12 (ix)
   1046 DD 66 F5      [19] 2868 	ld	h,-11 (ix)
   1049 4E            [ 7] 2869 	ld	c,(hl)
                           2870 ;src/main.c:518: if (enemy->y > (ORIGEN_MAPA_Y + ALTO_MAPA/2)) {
   104A 3E 70         [ 7] 2871 	ld	a,#0x70
   104C 93            [ 4] 2872 	sub	a, e
   104D D2rDDr10      [10] 2873 	jp	NC,00168$
                           2874 ;src/main.c:519: if(*getTilePtr(mapa, enemy->x, enemy->y + G_ENEMY_H + 2) <= 2
   1050 7B            [ 4] 2875 	ld	a,e
   1051 C6 18         [ 7] 2876 	add	a, #0x18
   1053 47            [ 4] 2877 	ld	b,a
   1054 C5            [11] 2878 	push	bc
   1055 2Ar9Br03      [16] 2879 	ld	hl,(_mapa)
   1058 E5            [11] 2880 	push	hl
   1059 CDr00r00      [17] 2881 	call	_getTilePtr
   105C F1            [10] 2882 	pop	af
   105D F1            [10] 2883 	pop	af
   105E 4E            [ 7] 2884 	ld	c,(hl)
   105F 3E 02         [ 7] 2885 	ld	a,#0x02
   1061 91            [ 4] 2886 	sub	a, c
   1062 38 63         [12] 2887 	jr	C,00158$
                           2888 ;src/main.c:520: && *getTilePtr(mapa, enemy->x + G_ENEMY_W / 2, enemy->y + G_ENEMY_H + 2) <= 2
   1064 DD 6E F6      [19] 2889 	ld	l,-10 (ix)
   1067 DD 66 F7      [19] 2890 	ld	h,-9 (ix)
   106A 7E            [ 7] 2891 	ld	a,(hl)
   106B C6 18         [ 7] 2892 	add	a, #0x18
   106D 57            [ 4] 2893 	ld	d,a
   106E DD 6E F4      [19] 2894 	ld	l,-12 (ix)
   1071 DD 66 F5      [19] 2895 	ld	h,-11 (ix)
   1074 4E            [ 7] 2896 	ld	c,(hl)
   1075 41            [ 4] 2897 	ld	b,c
   1076 04            [ 4] 2898 	inc	b
   1077 04            [ 4] 2899 	inc	b
   1078 D5            [11] 2900 	push	de
   1079 33            [ 6] 2901 	inc	sp
   107A C5            [11] 2902 	push	bc
   107B 33            [ 6] 2903 	inc	sp
   107C 2Ar9Br03      [16] 2904 	ld	hl,(_mapa)
   107F E5            [11] 2905 	push	hl
   1080 CDr00r00      [17] 2906 	call	_getTilePtr
   1083 F1            [10] 2907 	pop	af
   1084 F1            [10] 2908 	pop	af
   1085 4E            [ 7] 2909 	ld	c,(hl)
   1086 3E 02         [ 7] 2910 	ld	a,#0x02
   1088 91            [ 4] 2911 	sub	a, c
   1089 38 3C         [12] 2912 	jr	C,00158$
                           2913 ;src/main.c:521: && *getTilePtr(mapa, enemy->x + G_ENEMY_W, enemy->y + G_ENEMY_H + 2) <= 2) {
   108B DD 6E F6      [19] 2914 	ld	l,-10 (ix)
   108E DD 66 F7      [19] 2915 	ld	h,-9 (ix)
   1091 7E            [ 7] 2916 	ld	a,(hl)
   1092 C6 18         [ 7] 2917 	add	a, #0x18
   1094 47            [ 4] 2918 	ld	b,a
   1095 DD 6E F4      [19] 2919 	ld	l,-12 (ix)
   1098 DD 66 F5      [19] 2920 	ld	h,-11 (ix)
   109B 7E            [ 7] 2921 	ld	a,(hl)
   109C C6 04         [ 7] 2922 	add	a, #0x04
   109E C5            [11] 2923 	push	bc
   109F 33            [ 6] 2924 	inc	sp
   10A0 F5            [11] 2925 	push	af
   10A1 33            [ 6] 2926 	inc	sp
   10A2 2Ar9Br03      [16] 2927 	ld	hl,(_mapa)
   10A5 E5            [11] 2928 	push	hl
   10A6 CDr00r00      [17] 2929 	call	_getTilePtr
   10A9 F1            [10] 2930 	pop	af
   10AA F1            [10] 2931 	pop	af
   10AB 4E            [ 7] 2932 	ld	c,(hl)
   10AC 3E 02         [ 7] 2933 	ld	a,#0x02
   10AE 91            [ 4] 2934 	sub	a, c
   10AF 38 16         [12] 2935 	jr	C,00158$
                           2936 ;src/main.c:522: moverEnemigoAbajo(enemy);
   10B1 DD 6E F4      [19] 2937 	ld	l,-12 (ix)
   10B4 DD 66 F5      [19] 2938 	ld	h,-11 (ix)
   10B7 E5            [11] 2939 	push	hl
   10B8 CDrB9r05      [17] 2940 	call	_moverEnemigoAbajo
   10BB F1            [10] 2941 	pop	af
                           2942 ;src/main.c:523: enemy->mover = SI;
   10BC DD 6E F8      [19] 2943 	ld	l,-8 (ix)
   10BF DD 66 F9      [19] 2944 	ld	h,-7 (ix)
   10C2 36 01         [10] 2945 	ld	(hl),#0x01
   10C4 C3r62r11      [10] 2946 	jp	00171$
   10C7                    2947 00158$:
                           2948 ;src/main.c:525: moverEnemigoArriba(enemy);
   10C7 DD 6E F4      [19] 2949 	ld	l,-12 (ix)
   10CA DD 66 F5      [19] 2950 	ld	h,-11 (ix)
   10CD E5            [11] 2951 	push	hl
   10CE CDr9Ar05      [17] 2952 	call	_moverEnemigoArriba
   10D1 F1            [10] 2953 	pop	af
                           2954 ;src/main.c:526: enemy->mover = SI;
   10D2 DD 6E F8      [19] 2955 	ld	l,-8 (ix)
   10D5 DD 66 F9      [19] 2956 	ld	h,-7 (ix)
   10D8 36 01         [10] 2957 	ld	(hl),#0x01
   10DA C3r62r11      [10] 2958 	jp	00171$
   10DD                    2959 00168$:
                           2960 ;src/main.c:529: if(*getTilePtr(mapa, enemy->x, enemy->y - 2) <= 2
   10DD 43            [ 4] 2961 	ld	b,e
   10DE 05            [ 4] 2962 	dec	b
   10DF 05            [ 4] 2963 	dec	b
   10E0 C5            [11] 2964 	push	bc
   10E1 2Ar9Br03      [16] 2965 	ld	hl,(_mapa)
   10E4 E5            [11] 2966 	push	hl
   10E5 CDr00r00      [17] 2967 	call	_getTilePtr
   10E8 F1            [10] 2968 	pop	af
   10E9 F1            [10] 2969 	pop	af
   10EA 4E            [ 7] 2970 	ld	c,(hl)
   10EB 3E 02         [ 7] 2971 	ld	a,#0x02
   10ED 91            [ 4] 2972 	sub	a, c
   10EE 38 5F         [12] 2973 	jr	C,00163$
                           2974 ;src/main.c:530: && *getTilePtr(mapa, enemy->x + G_ENEMY_W / 2, enemy->y - 2) <= 2
   10F0 DD 6E F6      [19] 2975 	ld	l,-10 (ix)
   10F3 DD 66 F7      [19] 2976 	ld	h,-9 (ix)
   10F6 56            [ 7] 2977 	ld	d,(hl)
   10F7 15            [ 4] 2978 	dec	d
   10F8 15            [ 4] 2979 	dec	d
   10F9 DD 6E F4      [19] 2980 	ld	l,-12 (ix)
   10FC DD 66 F5      [19] 2981 	ld	h,-11 (ix)
   10FF 46            [ 7] 2982 	ld	b,(hl)
   1100 04            [ 4] 2983 	inc	b
   1101 04            [ 4] 2984 	inc	b
   1102 D5            [11] 2985 	push	de
   1103 33            [ 6] 2986 	inc	sp
   1104 C5            [11] 2987 	push	bc
   1105 33            [ 6] 2988 	inc	sp
   1106 2Ar9Br03      [16] 2989 	ld	hl,(_mapa)
   1109 E5            [11] 2990 	push	hl
   110A CDr00r00      [17] 2991 	call	_getTilePtr
   110D F1            [10] 2992 	pop	af
   110E F1            [10] 2993 	pop	af
   110F 4E            [ 7] 2994 	ld	c,(hl)
   1110 3E 02         [ 7] 2995 	ld	a,#0x02
   1112 91            [ 4] 2996 	sub	a, c
   1113 38 3A         [12] 2997 	jr	C,00163$
                           2998 ;src/main.c:531: && *getTilePtr(mapa, enemy->x + G_ENEMY_W, enemy->y - 2) <= 2) {
   1115 DD 6E F6      [19] 2999 	ld	l,-10 (ix)
   1118 DD 66 F7      [19] 3000 	ld	h,-9 (ix)
   111B 46            [ 7] 3001 	ld	b,(hl)
   111C 05            [ 4] 3002 	dec	b
   111D 05            [ 4] 3003 	dec	b
   111E DD 6E F4      [19] 3004 	ld	l,-12 (ix)
   1121 DD 66 F5      [19] 3005 	ld	h,-11 (ix)
   1124 7E            [ 7] 3006 	ld	a,(hl)
   1125 C6 04         [ 7] 3007 	add	a, #0x04
   1127 C5            [11] 3008 	push	bc
   1128 33            [ 6] 3009 	inc	sp
   1129 F5            [11] 3010 	push	af
   112A 33            [ 6] 3011 	inc	sp
   112B 2Ar9Br03      [16] 3012 	ld	hl,(_mapa)
   112E E5            [11] 3013 	push	hl
   112F CDr00r00      [17] 3014 	call	_getTilePtr
   1132 F1            [10] 3015 	pop	af
   1133 F1            [10] 3016 	pop	af
   1134 4E            [ 7] 3017 	ld	c,(hl)
   1135 3E 02         [ 7] 3018 	ld	a,#0x02
   1137 91            [ 4] 3019 	sub	a, c
   1138 38 15         [12] 3020 	jr	C,00163$
                           3021 ;src/main.c:532: moverEnemigoArriba(enemy);
   113A DD 6E F4      [19] 3022 	ld	l,-12 (ix)
   113D DD 66 F5      [19] 3023 	ld	h,-11 (ix)
   1140 E5            [11] 3024 	push	hl
   1141 CDr9Ar05      [17] 3025 	call	_moverEnemigoArriba
   1144 F1            [10] 3026 	pop	af
                           3027 ;src/main.c:533: enemy->mover = SI;
   1145 DD 6E F8      [19] 3028 	ld	l,-8 (ix)
   1148 DD 66 F9      [19] 3029 	ld	h,-7 (ix)
   114B 36 01         [10] 3030 	ld	(hl),#0x01
   114D 18 13         [12] 3031 	jr	00171$
   114F                    3032 00163$:
                           3033 ;src/main.c:535: moverEnemigoAbajo(enemy);
   114F DD 6E F4      [19] 3034 	ld	l,-12 (ix)
   1152 DD 66 F5      [19] 3035 	ld	h,-11 (ix)
   1155 E5            [11] 3036 	push	hl
   1156 CDrB9r05      [17] 3037 	call	_moverEnemigoAbajo
   1159 F1            [10] 3038 	pop	af
                           3039 ;src/main.c:536: enemy->mover = SI;
   115A DD 6E F8      [19] 3040 	ld	l,-8 (ix)
   115D DD 66 F9      [19] 3041 	ld	h,-7 (ix)
   1160 36 01         [10] 3042 	ld	(hl),#0x01
   1162                    3043 00171$:
                           3044 ;src/main.c:541: if (!movY) {
   1162 DD 7E F1      [19] 3045 	ld	a,-15 (ix)
   1165 B7            [ 4] 3046 	or	a, a
   1166 C2r89r12      [10] 3047 	jp	NZ,00199$
                           3048 ;src/main.c:542: if (enemy->x < ANCHO_PANTALLA/2) {
   1169 DD 6E F4      [19] 3049 	ld	l,-12 (ix)
   116C DD 66 F5      [19] 3050 	ld	h,-11 (ix)
   116F 4E            [ 7] 3051 	ld	c,(hl)
                           3052 ;src/main.c:424: u8 dify = abs(enemy->y - prota.y);
   1170 DD 6E F6      [19] 3053 	ld	l,-10 (ix)
   1173 DD 66 F7      [19] 3054 	ld	h,-9 (ix)
   1176 46            [ 7] 3055 	ld	b,(hl)
                           3056 ;src/main.c:542: if (enemy->x < ANCHO_PANTALLA/2) {
   1177 79            [ 4] 3057 	ld	a,c
   1178 D6 28         [ 7] 3058 	sub	a, #0x28
   117A D2rFFr11      [10] 3059 	jp	NC,00183$
                           3060 ;src/main.c:543: if(*getTilePtr(mapa, enemy->x, enemy->y) <= 2
   117D C5            [11] 3061 	push	bc
   117E 2Ar9Br03      [16] 3062 	ld	hl,(_mapa)
   1181 E5            [11] 3063 	push	hl
   1182 CDr00r00      [17] 3064 	call	_getTilePtr
   1185 F1            [10] 3065 	pop	af
   1186 F1            [10] 3066 	pop	af
   1187 4E            [ 7] 3067 	ld	c,(hl)
   1188 3E 02         [ 7] 3068 	ld	a,#0x02
   118A 91            [ 4] 3069 	sub	a, c
   118B 38 5C         [12] 3070 	jr	C,00173$
                           3071 ;src/main.c:544: && *getTilePtr(mapa, enemy->x, enemy->y + G_ENEMY_H/2) <= 2
   118D DD 6E F6      [19] 3072 	ld	l,-10 (ix)
   1190 DD 66 F7      [19] 3073 	ld	h,-9 (ix)
   1193 7E            [ 7] 3074 	ld	a,(hl)
   1194 C6 0B         [ 7] 3075 	add	a, #0x0B
   1196 DD 6E F4      [19] 3076 	ld	l,-12 (ix)
   1199 DD 66 F5      [19] 3077 	ld	h,-11 (ix)
   119C 46            [ 7] 3078 	ld	b,(hl)
   119D F5            [11] 3079 	push	af
   119E 33            [ 6] 3080 	inc	sp
   119F C5            [11] 3081 	push	bc
   11A0 33            [ 6] 3082 	inc	sp
   11A1 2Ar9Br03      [16] 3083 	ld	hl,(_mapa)
   11A4 E5            [11] 3084 	push	hl
   11A5 CDr00r00      [17] 3085 	call	_getTilePtr
   11A8 F1            [10] 3086 	pop	af
   11A9 F1            [10] 3087 	pop	af
   11AA 4E            [ 7] 3088 	ld	c,(hl)
   11AB 3E 02         [ 7] 3089 	ld	a,#0x02
   11AD 91            [ 4] 3090 	sub	a, c
   11AE 38 39         [12] 3091 	jr	C,00173$
                           3092 ;src/main.c:545: && *getTilePtr(mapa, enemy->x, enemy->y + G_ENEMY_H) <= 2) {
   11B0 DD 6E F6      [19] 3093 	ld	l,-10 (ix)
   11B3 DD 66 F7      [19] 3094 	ld	h,-9 (ix)
   11B6 7E            [ 7] 3095 	ld	a,(hl)
   11B7 C6 16         [ 7] 3096 	add	a, #0x16
   11B9 DD 6E F4      [19] 3097 	ld	l,-12 (ix)
   11BC DD 66 F5      [19] 3098 	ld	h,-11 (ix)
   11BF 46            [ 7] 3099 	ld	b,(hl)
   11C0 F5            [11] 3100 	push	af
   11C1 33            [ 6] 3101 	inc	sp
   11C2 C5            [11] 3102 	push	bc
   11C3 33            [ 6] 3103 	inc	sp
   11C4 2Ar9Br03      [16] 3104 	ld	hl,(_mapa)
   11C7 E5            [11] 3105 	push	hl
   11C8 CDr00r00      [17] 3106 	call	_getTilePtr
   11CB F1            [10] 3107 	pop	af
   11CC F1            [10] 3108 	pop	af
   11CD 4E            [ 7] 3109 	ld	c,(hl)
   11CE 3E 02         [ 7] 3110 	ld	a,#0x02
   11D0 91            [ 4] 3111 	sub	a, c
   11D1 38 16         [12] 3112 	jr	C,00173$
                           3113 ;src/main.c:546: moverEnemigoIzquierda(enemy);
   11D3 DD 6E F4      [19] 3114 	ld	l,-12 (ix)
   11D6 DD 66 F5      [19] 3115 	ld	h,-11 (ix)
   11D9 E5            [11] 3116 	push	hl
   11DA CDrE8r05      [17] 3117 	call	_moverEnemigoIzquierda
   11DD F1            [10] 3118 	pop	af
                           3119 ;src/main.c:547: enemy->mover = SI;
   11DE DD 6E F8      [19] 3120 	ld	l,-8 (ix)
   11E1 DD 66 F9      [19] 3121 	ld	h,-7 (ix)
   11E4 36 01         [10] 3122 	ld	(hl),#0x01
   11E6 C3r89r12      [10] 3123 	jp	00199$
   11E9                    3124 00173$:
                           3125 ;src/main.c:549: moverEnemigoDerecha(enemy);
   11E9 DD 6E F4      [19] 3126 	ld	l,-12 (ix)
   11EC DD 66 F5      [19] 3127 	ld	h,-11 (ix)
   11EF E5            [11] 3128 	push	hl
   11F0 CDrD8r05      [17] 3129 	call	_moverEnemigoDerecha
   11F3 F1            [10] 3130 	pop	af
                           3131 ;src/main.c:550: enemy->mover = SI;
   11F4 DD 6E F8      [19] 3132 	ld	l,-8 (ix)
   11F7 DD 66 F9      [19] 3133 	ld	h,-7 (ix)
   11FA 36 01         [10] 3134 	ld	(hl),#0x01
   11FC C3r89r12      [10] 3135 	jp	00199$
   11FF                    3136 00183$:
                           3137 ;src/main.c:553: if(*getTilePtr(mapa, enemy->x + G_ENEMY_W, enemy->y) <= 2
   11FF 79            [ 4] 3138 	ld	a,c
   1200 C6 04         [ 7] 3139 	add	a, #0x04
   1202 C5            [11] 3140 	push	bc
   1203 33            [ 6] 3141 	inc	sp
   1204 F5            [11] 3142 	push	af
   1205 33            [ 6] 3143 	inc	sp
   1206 2Ar9Br03      [16] 3144 	ld	hl,(_mapa)
   1209 E5            [11] 3145 	push	hl
   120A CDr00r00      [17] 3146 	call	_getTilePtr
   120D F1            [10] 3147 	pop	af
   120E F1            [10] 3148 	pop	af
   120F 4E            [ 7] 3149 	ld	c,(hl)
   1210 3E 02         [ 7] 3150 	ld	a,#0x02
   1212 91            [ 4] 3151 	sub	a, c
   1213 38 61         [12] 3152 	jr	C,00178$
                           3153 ;src/main.c:554: && *getTilePtr(mapa, enemy->x + G_ENEMY_W, enemy->y + G_ENEMY_H/2) <= 2
   1215 DD 6E F6      [19] 3154 	ld	l,-10 (ix)
   1218 DD 66 F7      [19] 3155 	ld	h,-9 (ix)
   121B 7E            [ 7] 3156 	ld	a,(hl)
   121C C6 0B         [ 7] 3157 	add	a, #0x0B
   121E 47            [ 4] 3158 	ld	b,a
   121F DD 6E F4      [19] 3159 	ld	l,-12 (ix)
   1222 DD 66 F5      [19] 3160 	ld	h,-11 (ix)
   1225 7E            [ 7] 3161 	ld	a,(hl)
   1226 C6 04         [ 7] 3162 	add	a, #0x04
   1228 C5            [11] 3163 	push	bc
   1229 33            [ 6] 3164 	inc	sp
   122A F5            [11] 3165 	push	af
   122B 33            [ 6] 3166 	inc	sp
   122C 2Ar9Br03      [16] 3167 	ld	hl,(_mapa)
   122F E5            [11] 3168 	push	hl
   1230 CDr00r00      [17] 3169 	call	_getTilePtr
   1233 F1            [10] 3170 	pop	af
   1234 F1            [10] 3171 	pop	af
   1235 4E            [ 7] 3172 	ld	c,(hl)
   1236 3E 02         [ 7] 3173 	ld	a,#0x02
   1238 91            [ 4] 3174 	sub	a, c
   1239 38 3B         [12] 3175 	jr	C,00178$
                           3176 ;src/main.c:555: && *getTilePtr(mapa, enemy->x + G_ENEMY_W, enemy->y + G_ENEMY_H) <= 2) {
   123B DD 6E F6      [19] 3177 	ld	l,-10 (ix)
   123E DD 66 F7      [19] 3178 	ld	h,-9 (ix)
   1241 7E            [ 7] 3179 	ld	a,(hl)
   1242 C6 16         [ 7] 3180 	add	a, #0x16
   1244 47            [ 4] 3181 	ld	b,a
   1245 DD 6E F4      [19] 3182 	ld	l,-12 (ix)
   1248 DD 66 F5      [19] 3183 	ld	h,-11 (ix)
   124B 7E            [ 7] 3184 	ld	a,(hl)
   124C C6 04         [ 7] 3185 	add	a, #0x04
   124E C5            [11] 3186 	push	bc
   124F 33            [ 6] 3187 	inc	sp
   1250 F5            [11] 3188 	push	af
   1251 33            [ 6] 3189 	inc	sp
   1252 2Ar9Br03      [16] 3190 	ld	hl,(_mapa)
   1255 E5            [11] 3191 	push	hl
   1256 CDr00r00      [17] 3192 	call	_getTilePtr
   1259 F1            [10] 3193 	pop	af
   125A F1            [10] 3194 	pop	af
   125B 4E            [ 7] 3195 	ld	c,(hl)
   125C 3E 02         [ 7] 3196 	ld	a,#0x02
   125E 91            [ 4] 3197 	sub	a, c
   125F 38 15         [12] 3198 	jr	C,00178$
                           3199 ;src/main.c:556: moverEnemigoDerecha(enemy);
   1261 DD 6E F4      [19] 3200 	ld	l,-12 (ix)
   1264 DD 66 F5      [19] 3201 	ld	h,-11 (ix)
   1267 E5            [11] 3202 	push	hl
   1268 CDrD8r05      [17] 3203 	call	_moverEnemigoDerecha
   126B F1            [10] 3204 	pop	af
                           3205 ;src/main.c:557: enemy->mover = SI;
   126C DD 6E F8      [19] 3206 	ld	l,-8 (ix)
   126F DD 66 F9      [19] 3207 	ld	h,-7 (ix)
   1272 36 01         [10] 3208 	ld	(hl),#0x01
   1274 18 13         [12] 3209 	jr	00199$
   1276                    3210 00178$:
                           3211 ;src/main.c:560: moverEnemigoIzquierda(enemy);
   1276 DD 6E F4      [19] 3212 	ld	l,-12 (ix)
   1279 DD 66 F5      [19] 3213 	ld	h,-11 (ix)
   127C E5            [11] 3214 	push	hl
   127D CDrE8r05      [17] 3215 	call	_moverEnemigoIzquierda
   1280 F1            [10] 3216 	pop	af
                           3217 ;src/main.c:561: enemy->mover = SI;
   1281 DD 6E F8      [19] 3218 	ld	l,-8 (ix)
   1284 DD 66 F9      [19] 3219 	ld	h,-7 (ix)
   1287 36 01         [10] 3220 	ld	(hl),#0x01
   1289                    3221 00199$:
   1289 DD F9         [10] 3222 	ld	sp, ix
   128B DD E1         [14] 3223 	pop	ix
   128D C9            [10] 3224 	ret
                           3225 ;src/main.c:570: void updateEnemy(TEnemy* actual) { // maquina de estados
                           3226 ;	---------------------------------
                           3227 ; Function updateEnemy
                           3228 ; ---------------------------------
   128E                    3229 _updateEnemy::
   128E DD E5         [15] 3230 	push	ix
   1290 DD 21 00 00   [14] 3231 	ld	ix,#0
   1294 DD 39         [15] 3232 	add	ix,sp
   1296 21 F4 FF      [10] 3233 	ld	hl,#-12
   1299 39            [11] 3234 	add	hl,sp
   129A F9            [ 6] 3235 	ld	sp,hl
                           3236 ;src/main.c:572: if (actual->engage) { // prioridad a la persecucion, nunca te deja
   129B DD 4E 04      [19] 3237 	ld	c,4 (ix)
   129E DD 46 05      [19] 3238 	ld	b,5 (ix)
   12A1 21 16 00      [10] 3239 	ld	hl,#0x0016
   12A4 09            [11] 3240 	add	hl,bc
   12A5 DD 75 F6      [19] 3241 	ld	-10 (ix),l
   12A8 DD 74 F7      [19] 3242 	ld	-9 (ix),h
   12AB DD 6E F6      [19] 3243 	ld	l,-10 (ix)
   12AE DD 66 F7      [19] 3244 	ld	h,-9 (ix)
   12B1 7E            [ 7] 3245 	ld	a,(hl)
   12B2 B7            [ 4] 3246 	or	a, a
   12B3 28 14         [12] 3247 	jr	Z,00115$
                           3248 ;src/main.c:573: engage(actual, prota.x, prota.y);
   12B5 3Ar89r03      [13] 3249 	ld	a, (#_prota + 1)
   12B8 21r88r03      [10] 3250 	ld	hl, #_prota + 0
   12BB 56            [ 7] 3251 	ld	d,(hl)
   12BC F5            [11] 3252 	push	af
   12BD 33            [ 6] 3253 	inc	sp
   12BE D5            [11] 3254 	push	de
   12BF 33            [ 6] 3255 	inc	sp
   12C0 C5            [11] 3256 	push	bc
   12C1 CDrE3r0A      [17] 3257 	call	_engage
   12C4 F1            [10] 3258 	pop	af
   12C5 F1            [10] 3259 	pop	af
   12C6 C3rE0r13      [10] 3260 	jp	00117$
   12C9                    3261 00115$:
                           3262 ;src/main.c:575: lookFor(actual); // actualiza si el enemigo tiene el prota al alcance o lo ha visto
   12C9 C5            [11] 3263 	push	bc
   12CA C5            [11] 3264 	push	bc
   12CB CDr58r08      [17] 3265 	call	_lookFor
   12CE F1            [10] 3266 	pop	af
   12CF C1            [10] 3267 	pop	bc
                           3268 ;src/main.c:581: actual->patrolling = 0;
   12D0 21 0B 00      [10] 3269 	ld	hl,#0x000B
   12D3 09            [11] 3270 	add	hl,bc
   12D4 E3            [19] 3271 	ex	(sp), hl
                           3272 ;src/main.c:576: if (actual->patrolling) {
   12D5 E1            [10] 3273 	pop	hl
   12D6 E5            [11] 3274 	push	hl
   12D7 6E            [ 7] 3275 	ld	l,(hl)
                           3276 ;src/main.c:579: if (actual->in_range) {
   12D8 79            [ 4] 3277 	ld	a,c
   12D9 C6 11         [ 7] 3278 	add	a, #0x11
   12DB 5F            [ 4] 3279 	ld	e,a
   12DC 78            [ 4] 3280 	ld	a,b
   12DD CE 00         [ 7] 3281 	adc	a, #0x00
   12DF 57            [ 4] 3282 	ld	d,a
                           3283 ;src/main.c:587: actual->seek = 1;
   12E0 79            [ 4] 3284 	ld	a,c
   12E1 C6 14         [ 7] 3285 	add	a, #0x14
   12E3 DD 77 FB      [19] 3286 	ld	-5 (ix),a
   12E6 78            [ 4] 3287 	ld	a,b
   12E7 CE 00         [ 7] 3288 	adc	a, #0x00
   12E9 DD 77 FC      [19] 3289 	ld	-4 (ix),a
                           3290 ;src/main.c:576: if (actual->patrolling) {
   12EC 7D            [ 4] 3291 	ld	a,l
   12ED B7            [ 4] 3292 	or	a, a
   12EE CArA8r13      [10] 3293 	jp	Z,00112$
                           3294 ;src/main.c:578: moverEnemigoPatrol(actual);
   12F1 C5            [11] 3295 	push	bc
   12F2 D5            [11] 3296 	push	de
   12F3 C5            [11] 3297 	push	bc
   12F4 CDrFAr05      [17] 3298 	call	_moverEnemigoPatrol
   12F7 F1            [10] 3299 	pop	af
   12F8 D1            [10] 3300 	pop	de
   12F9 C1            [10] 3301 	pop	bc
                           3302 ;src/main.c:579: if (actual->in_range) {
   12FA 1A            [ 7] 3303 	ld	a,(de)
   12FB B7            [ 4] 3304 	or	a, a
   12FC 28 20         [12] 3305 	jr	Z,00104$
                           3306 ;src/main.c:580: engage(actual, prota.x, prota.y);
   12FE 3Ar89r03      [13] 3307 	ld	a, (#_prota + 1)
   1301 21r88r03      [10] 3308 	ld	hl, #_prota + 0
   1304 56            [ 7] 3309 	ld	d,(hl)
   1305 F5            [11] 3310 	push	af
   1306 33            [ 6] 3311 	inc	sp
   1307 D5            [11] 3312 	push	de
   1308 33            [ 6] 3313 	inc	sp
   1309 C5            [11] 3314 	push	bc
   130A CDrE3r0A      [17] 3315 	call	_engage
   130D F1            [10] 3316 	pop	af
   130E F1            [10] 3317 	pop	af
                           3318 ;src/main.c:581: actual->patrolling = 0;
   130F E1            [10] 3319 	pop	hl
   1310 E5            [11] 3320 	push	hl
   1311 36 00         [10] 3321 	ld	(hl),#0x00
                           3322 ;src/main.c:582: actual->engage = 1;
   1313 DD 6E F6      [19] 3323 	ld	l,-10 (ix)
   1316 DD 66 F7      [19] 3324 	ld	h,-9 (ix)
   1319 36 01         [10] 3325 	ld	(hl),#0x01
   131B C3rE0r13      [10] 3326 	jp	00117$
   131E                    3327 00104$:
                           3328 ;src/main.c:583: } else if (actual->seen) {
   131E 21 12 00      [10] 3329 	ld	hl,#0x0012
   1321 09            [11] 3330 	add	hl,bc
   1322 DD 75 FD      [19] 3331 	ld	-3 (ix),l
   1325 DD 74 FE      [19] 3332 	ld	-2 (ix),h
   1328 DD 6E FD      [19] 3333 	ld	l,-3 (ix)
   132B DD 66 FE      [19] 3334 	ld	h,-2 (ix)
   132E 7E            [ 7] 3335 	ld	a,(hl)
   132F B7            [ 4] 3336 	or	a, a
   1330 CArE0r13      [10] 3337 	jp	Z,00117$
                           3338 ;src/main.c:584: pathFinding(actual->x, actual->y, prota.x , prota.y, actual, mapa);
   1333 3Ar89r03      [13] 3339 	ld	a,(#_prota + 1)
   1336 DD 77 F8      [19] 3340 	ld	-8 (ix),a
   1339 21r88r03      [10] 3341 	ld	hl, #_prota + 0
   133C 5E            [ 7] 3342 	ld	e,(hl)
   133D 21 01 00      [10] 3343 	ld	hl,#0x0001
   1340 09            [11] 3344 	add	hl,bc
   1341 DD 75 F9      [19] 3345 	ld	-7 (ix),l
   1344 DD 74 FA      [19] 3346 	ld	-6 (ix),h
   1347 DD 6E F9      [19] 3347 	ld	l,-7 (ix)
   134A DD 66 FA      [19] 3348 	ld	h,-6 (ix)
   134D 56            [ 7] 3349 	ld	d,(hl)
   134E 0A            [ 7] 3350 	ld	a,(bc)
   134F DD 77 FF      [19] 3351 	ld	-1 (ix),a
   1352 C5            [11] 3352 	push	bc
   1353 2Ar9Br03      [16] 3353 	ld	hl,(_mapa)
   1356 E5            [11] 3354 	push	hl
   1357 C5            [11] 3355 	push	bc
   1358 DD 7E F8      [19] 3356 	ld	a,-8 (ix)
   135B F5            [11] 3357 	push	af
   135C 33            [ 6] 3358 	inc	sp
   135D 7B            [ 4] 3359 	ld	a,e
   135E F5            [11] 3360 	push	af
   135F 33            [ 6] 3361 	inc	sp
   1360 D5            [11] 3362 	push	de
   1361 33            [ 6] 3363 	inc	sp
   1362 DD 7E FF      [19] 3364 	ld	a,-1 (ix)
   1365 F5            [11] 3365 	push	af
   1366 33            [ 6] 3366 	inc	sp
   1367 CDr00r00      [17] 3367 	call	_pathFinding
   136A 21 08 00      [10] 3368 	ld	hl,#8
   136D 39            [11] 3369 	add	hl,sp
   136E F9            [ 6] 3370 	ld	sp,hl
   136F C1            [10] 3371 	pop	bc
                           3372 ;src/main.c:585: actual->p_seek_x = actual->x;
   1370 21 17 00      [10] 3373 	ld	hl,#0x0017
   1373 09            [11] 3374 	add	hl,bc
   1374 EB            [ 4] 3375 	ex	de,hl
   1375 0A            [ 7] 3376 	ld	a,(bc)
   1376 12            [ 7] 3377 	ld	(de),a
                           3378 ;src/main.c:586: actual->p_seek_y = actual->y;
   1377 21 18 00      [10] 3379 	ld	hl,#0x0018
   137A 09            [11] 3380 	add	hl,bc
   137B EB            [ 4] 3381 	ex	de,hl
   137C DD 6E F9      [19] 3382 	ld	l,-7 (ix)
   137F DD 66 FA      [19] 3383 	ld	h,-6 (ix)
   1382 7E            [ 7] 3384 	ld	a,(hl)
   1383 12            [ 7] 3385 	ld	(de),a
                           3386 ;src/main.c:587: actual->seek = 1;
   1384 DD 6E FB      [19] 3387 	ld	l,-5 (ix)
   1387 DD 66 FC      [19] 3388 	ld	h,-4 (ix)
   138A 36 01         [10] 3389 	ld	(hl),#0x01
                           3390 ;src/main.c:588: actual->iter=0;
   138C 21 0E 00      [10] 3391 	ld	hl,#0x000E
   138F 09            [11] 3392 	add	hl,bc
   1390 AF            [ 4] 3393 	xor	a, a
   1391 77            [ 7] 3394 	ld	(hl), a
   1392 23            [ 6] 3395 	inc	hl
   1393 77            [ 7] 3396 	ld	(hl), a
                           3397 ;src/main.c:589: actual->reversePatrol = NO;
   1394 21 0C 00      [10] 3398 	ld	hl,#0x000C
   1397 09            [11] 3399 	add	hl,bc
   1398 36 00         [10] 3400 	ld	(hl),#0x00
                           3401 ;src/main.c:590: actual->patrolling = 0;
   139A E1            [10] 3402 	pop	hl
   139B E5            [11] 3403 	push	hl
   139C 36 00         [10] 3404 	ld	(hl),#0x00
                           3405 ;src/main.c:591: actual->seen = 0;
   139E DD 6E FD      [19] 3406 	ld	l,-3 (ix)
   13A1 DD 66 FE      [19] 3407 	ld	h,-2 (ix)
   13A4 36 00         [10] 3408 	ld	(hl),#0x00
   13A6 18 38         [12] 3409 	jr	00117$
   13A8                    3410 00112$:
                           3411 ;src/main.c:593: } else if (actual->seek) {
   13A8 DD 6E FB      [19] 3412 	ld	l,-5 (ix)
   13AB DD 66 FC      [19] 3413 	ld	h,-4 (ix)
   13AE 7E            [ 7] 3414 	ld	a,(hl)
   13AF B7            [ 4] 3415 	or	a, a
   13B0 28 2E         [12] 3416 	jr	Z,00117$
                           3417 ;src/main.c:594: moverEnemigoSeek(actual);
   13B2 C5            [11] 3418 	push	bc
   13B3 D5            [11] 3419 	push	de
   13B4 C5            [11] 3420 	push	bc
   13B5 CDr62r09      [17] 3421 	call	_moverEnemigoSeek
   13B8 F1            [10] 3422 	pop	af
   13B9 D1            [10] 3423 	pop	de
   13BA C1            [10] 3424 	pop	bc
                           3425 ;src/main.c:595: if (actual->in_range) {
   13BB 1A            [ 7] 3426 	ld	a,(de)
   13BC B7            [ 4] 3427 	or	a, a
   13BD 28 21         [12] 3428 	jr	Z,00117$
                           3429 ;src/main.c:596: engage(actual, prota.x, prota.y);
   13BF 3Ar89r03      [13] 3430 	ld	a, (#_prota + 1)
   13C2 21r88r03      [10] 3431 	ld	hl, #_prota + 0
   13C5 56            [ 7] 3432 	ld	d,(hl)
   13C6 F5            [11] 3433 	push	af
   13C7 33            [ 6] 3434 	inc	sp
   13C8 D5            [11] 3435 	push	de
   13C9 33            [ 6] 3436 	inc	sp
   13CA C5            [11] 3437 	push	bc
   13CB CDrE3r0A      [17] 3438 	call	_engage
   13CE F1            [10] 3439 	pop	af
   13CF F1            [10] 3440 	pop	af
                           3441 ;src/main.c:597: actual->seek = 0;
   13D0 DD 6E FB      [19] 3442 	ld	l,-5 (ix)
   13D3 DD 66 FC      [19] 3443 	ld	h,-4 (ix)
   13D6 36 00         [10] 3444 	ld	(hl),#0x00
                           3445 ;src/main.c:598: actual->engage = 1;
   13D8 DD 6E F6      [19] 3446 	ld	l,-10 (ix)
   13DB DD 66 F7      [19] 3447 	ld	h,-9 (ix)
   13DE 36 01         [10] 3448 	ld	(hl),#0x01
                           3449 ;src/main.c:599: } else if (actual->seen) {
   13E0                    3450 00117$:
   13E0 DD F9         [10] 3451 	ld	sp, ix
   13E2 DD E1         [14] 3452 	pop	ix
   13E4 C9            [10] 3453 	ret
                           3454 ;src/main.c:606: void inicializarEnemy() {
                           3455 ;	---------------------------------
                           3456 ; Function inicializarEnemy
                           3457 ; ---------------------------------
   13E5                    3458 _inicializarEnemy::
   13E5 DD E5         [15] 3459 	push	ix
   13E7 DD 21 00 00   [14] 3460 	ld	ix,#0
   13EB DD 39         [15] 3461 	add	ix,sp
   13ED 21 F9 FF      [10] 3462 	ld	hl,#-7
   13F0 39            [11] 3463 	add	hl,sp
   13F1 F9            [ 6] 3464 	ld	sp,hl
                           3465 ;src/main.c:607: u8 i = 2 + num_mapa; //sacar distinto numero dependiendo del mapa
   13F2 3Ar9Dr03      [13] 3466 	ld	a,(#_num_mapa + 0)
   13F5 C6 02         [ 7] 3467 	add	a, #0x02
   13F7 DD 77 FF      [19] 3468 	ld	-1 (ix),a
                           3469 ;src/main.c:617: actual = enemy;
   13FA 11r00r00      [10] 3470 	ld	de,#_enemy+0
                           3471 ;src/main.c:618: while(i){
   13FD                    3472 00101$:
   13FD DD 7E FF      [19] 3473 	ld	a,-1 (ix)
   1400 B7            [ 4] 3474 	or	a, a
   1401 CAr05r15      [10] 3475 	jp	Z,00104$
                           3476 ;src/main.c:619: --i;
   1404 DD 35 FF      [23] 3477 	dec	-1 (ix)
                           3478 ;src/main.c:620: actual->x = actual->px = spawnX[i];
   1407 4B            [ 4] 3479 	ld	c, e
   1408 42            [ 4] 3480 	ld	b, d
   1409 03            [ 6] 3481 	inc	bc
   140A 03            [ 6] 3482 	inc	bc
   140B 3Er1C         [ 7] 3483 	ld	a,#<(_spawnX)
   140D DD 86 FF      [19] 3484 	add	a, -1 (ix)
   1410 DD 77 FD      [19] 3485 	ld	-3 (ix),a
   1413 3Es00         [ 7] 3486 	ld	a,#>(_spawnX)
   1415 CE 00         [ 7] 3487 	adc	a, #0x00
   1417 DD 77 FE      [19] 3488 	ld	-2 (ix),a
   141A DD 6E FD      [19] 3489 	ld	l,-3 (ix)
   141D DD 66 FE      [19] 3490 	ld	h,-2 (ix)
   1420 7E            [ 7] 3491 	ld	a,(hl)
   1421 02            [ 7] 3492 	ld	(bc),a
   1422 12            [ 7] 3493 	ld	(de),a
                           3494 ;src/main.c:621: actual->y = actual->py = spawnY[i];
   1423 D5            [11] 3495 	push	de
   1424 FD E1         [14] 3496 	pop	iy
   1426 FD 23         [10] 3497 	inc	iy
   1428 4B            [ 4] 3498 	ld	c, e
   1429 42            [ 4] 3499 	ld	b, d
   142A 03            [ 6] 3500 	inc	bc
   142B 03            [ 6] 3501 	inc	bc
   142C 03            [ 6] 3502 	inc	bc
   142D 3Er20         [ 7] 3503 	ld	a,#<(_spawnY)
   142F DD 86 FF      [19] 3504 	add	a, -1 (ix)
   1432 DD 77 FB      [19] 3505 	ld	-5 (ix),a
   1435 3Es00         [ 7] 3506 	ld	a,#>(_spawnY)
   1437 CE 00         [ 7] 3507 	adc	a, #0x00
   1439 DD 77 FC      [19] 3508 	ld	-4 (ix),a
   143C DD 6E FB      [19] 3509 	ld	l,-5 (ix)
   143F DD 66 FC      [19] 3510 	ld	h,-4 (ix)
   1442 7E            [ 7] 3511 	ld	a,(hl)
   1443 02            [ 7] 3512 	ld	(bc),a
   1444 FD 77 00      [19] 3513 	ld	0 (iy), a
                           3514 ;src/main.c:622: actual->mover  = NO;
   1447 21 06 00      [10] 3515 	ld	hl,#0x0006
   144A 19            [11] 3516 	add	hl,de
   144B 36 00         [10] 3517 	ld	(hl),#0x00
                           3518 ;src/main.c:623: actual->mira   = M_abajo;
   144D 21 07 00      [10] 3519 	ld	hl,#0x0007
   1450 19            [11] 3520 	add	hl,de
   1451 36 03         [10] 3521 	ld	(hl),#0x03
                           3522 ;src/main.c:624: actual->sprite = g_enemy;
   1453 21 04 00      [10] 3523 	ld	hl,#0x0004
   1456 19            [11] 3524 	add	hl,de
   1457 36r00         [10] 3525 	ld	(hl),#<(_g_enemy)
   1459 23            [ 6] 3526 	inc	hl
   145A 36s00         [10] 3527 	ld	(hl),#>(_g_enemy)
                           3528 ;src/main.c:625: actual->muerto = NO;
   145C 21 08 00      [10] 3529 	ld	hl,#0x0008
   145F 19            [11] 3530 	add	hl,de
   1460 36 00         [10] 3531 	ld	(hl),#0x00
                           3532 ;src/main.c:626: actual->muertes = 0;
   1462 21 0A 00      [10] 3533 	ld	hl,#0x000A
   1465 19            [11] 3534 	add	hl,de
   1466 36 00         [10] 3535 	ld	(hl),#0x00
                           3536 ;src/main.c:627: actual->patrolling = SI;
   1468 21 0B 00      [10] 3537 	ld	hl,#0x000B
   146B 19            [11] 3538 	add	hl,de
   146C 36 01         [10] 3539 	ld	(hl),#0x01
                           3540 ;src/main.c:628: actual->reversePatrol = NO;
   146E 21 0C 00      [10] 3541 	ld	hl,#0x000C
   1471 19            [11] 3542 	add	hl,de
   1472 36 00         [10] 3543 	ld	(hl),#0x00
                           3544 ;src/main.c:629: actual->iter = 0;
   1474 21 0E 00      [10] 3545 	ld	hl,#0x000E
   1477 19            [11] 3546 	add	hl,de
   1478 AF            [ 4] 3547 	xor	a, a
   1479 77            [ 7] 3548 	ld	(hl), a
   147A 23            [ 6] 3549 	inc	hl
   147B 77            [ 7] 3550 	ld	(hl), a
                           3551 ;src/main.c:630: actual->lastIter = 0;
   147C 21 10 00      [10] 3552 	ld	hl,#0x0010
   147F 19            [11] 3553 	add	hl,de
   1480 36 00         [10] 3554 	ld	(hl),#0x00
                           3555 ;src/main.c:631: actual->in_range = 0,
   1482 21 11 00      [10] 3556 	ld	hl,#0x0011
   1485 19            [11] 3557 	add	hl,de
   1486 36 00         [10] 3558 	ld	(hl),#0x00
                           3559 ;src/main.c:632: actual->seek = 0;
   1488 21 14 00      [10] 3560 	ld	hl,#0x0014
   148B 19            [11] 3561 	add	hl,de
   148C 36 00         [10] 3562 	ld	(hl),#0x00
                           3563 ;src/main.c:633: actual->seen = 0;
   148E 21 12 00      [10] 3564 	ld	hl,#0x0012
   1491 19            [11] 3565 	add	hl,de
   1492 36 00         [10] 3566 	ld	(hl),#0x00
                           3567 ;src/main.c:634: actual->found = 0;
   1494 21 13 00      [10] 3568 	ld	hl,#0x0013
   1497 19            [11] 3569 	add	hl,de
   1498 36 00         [10] 3570 	ld	(hl),#0x00
                           3571 ;src/main.c:635: actual->engage = 0;
   149A 21 16 00      [10] 3572 	ld	hl,#0x0016
   149D 19            [11] 3573 	add	hl,de
   149E 36 00         [10] 3574 	ld	(hl),#0x00
                           3575 ;src/main.c:636: pathFinding( spawnX[i],  spawnY[i], patrolX[num_mapa + 1][i], patrolY[num_mapa + 1][i], actual, mapa); // calculo rutas de patrulla
   14A0 21r9Dr03      [10] 3576 	ld	hl,#_num_mapa + 0
   14A3 4E            [ 7] 3577 	ld	c, (hl)
   14A4 0C            [ 4] 3578 	inc	c
   14A5 06 00         [ 7] 3579 	ld	b,#0x00
   14A7 69            [ 4] 3580 	ld	l, c
   14A8 60            [ 4] 3581 	ld	h, b
   14A9 29            [11] 3582 	add	hl, hl
   14AA 29            [11] 3583 	add	hl, hl
   14AB 09            [11] 3584 	add	hl, bc
   14AC 4D            [ 4] 3585 	ld	c,l
   14AD 44            [ 4] 3586 	ld	b,h
   14AE 21r38r00      [10] 3587 	ld	hl,#_patrolY
   14B1 09            [11] 3588 	add	hl,bc
   14B2 7D            [ 4] 3589 	ld	a,l
   14B3 DD 86 FF      [19] 3590 	add	a, -1 (ix)
   14B6 6F            [ 4] 3591 	ld	l,a
   14B7 7C            [ 4] 3592 	ld	a,h
   14B8 CE 00         [ 7] 3593 	adc	a, #0x00
   14BA 67            [ 4] 3594 	ld	h,a
   14BB 7E            [ 7] 3595 	ld	a,(hl)
   14BC DD 77 FA      [19] 3596 	ld	-6 (ix),a
   14BF 21r24r00      [10] 3597 	ld	hl,#_patrolX
   14C2 09            [11] 3598 	add	hl,bc
   14C3 DD 4E FF      [19] 3599 	ld	c,-1 (ix)
   14C6 06 00         [ 7] 3600 	ld	b,#0x00
   14C8 09            [11] 3601 	add	hl,bc
   14C9 7E            [ 7] 3602 	ld	a,(hl)
   14CA DD 77 F9      [19] 3603 	ld	-7 (ix),a
   14CD DD 6E FB      [19] 3604 	ld	l,-5 (ix)
   14D0 DD 66 FC      [19] 3605 	ld	h,-4 (ix)
   14D3 4E            [ 7] 3606 	ld	c,(hl)
   14D4 DD 6E FD      [19] 3607 	ld	l,-3 (ix)
   14D7 DD 66 FE      [19] 3608 	ld	h,-2 (ix)
   14DA 46            [ 7] 3609 	ld	b,(hl)
   14DB D5            [11] 3610 	push	de
   14DC 2Ar9Br03      [16] 3611 	ld	hl,(_mapa)
   14DF E5            [11] 3612 	push	hl
   14E0 D5            [11] 3613 	push	de
   14E1 DD 66 FA      [19] 3614 	ld	h,-6 (ix)
   14E4 DD 6E F9      [19] 3615 	ld	l,-7 (ix)
   14E7 E5            [11] 3616 	push	hl
   14E8 79            [ 4] 3617 	ld	a,c
   14E9 F5            [11] 3618 	push	af
   14EA 33            [ 6] 3619 	inc	sp
   14EB C5            [11] 3620 	push	bc
   14EC 33            [ 6] 3621 	inc	sp
   14ED CDr00r00      [17] 3622 	call	_pathFinding
   14F0 21 08 00      [10] 3623 	ld	hl,#8
   14F3 39            [11] 3624 	add	hl,sp
   14F4 F9            [ 6] 3625 	ld	sp,hl
   14F5 D1            [10] 3626 	pop	de
                           3627 ;src/main.c:637: dibujarEnemigo(actual);
   14F6 D5            [11] 3628 	push	de
   14F7 D5            [11] 3629 	push	de
   14F8 CDrD2r02      [17] 3630 	call	_dibujarEnemigo
   14FB F1            [10] 3631 	pop	af
   14FC D1            [10] 3632 	pop	de
                           3633 ;src/main.c:638: ++actual;
   14FD 21 E2 00      [10] 3634 	ld	hl,#0x00E2
   1500 19            [11] 3635 	add	hl,de
   1501 EB            [ 4] 3636 	ex	de,hl
   1502 C3rFDr13      [10] 3637 	jp	00101$
   1505                    3638 00104$:
   1505 DD F9         [10] 3639 	ld	sp, ix
   1507 DD E1         [14] 3640 	pop	ix
   1509 C9            [10] 3641 	ret
                           3642 ;src/main.c:642: void avanzarMapa() {
                           3643 ;	---------------------------------
                           3644 ; Function avanzarMapa
                           3645 ; ---------------------------------
   150A                    3646 _avanzarMapa::
                           3647 ;src/main.c:643: if(num_mapa < NUM_MAPAS -1) {
   150A 3Ar9Dr03      [13] 3648 	ld	a,(#_num_mapa + 0)
   150D D6 02         [ 7] 3649 	sub	a, #0x02
   150F 30 34         [12] 3650 	jr	NC,00102$
                           3651 ;src/main.c:644: mapa = mapas[++num_mapa];
   1511 01r16r00      [10] 3652 	ld	bc,#_mapas+0
   1514 21r9Dr03      [10] 3653 	ld	hl, #_num_mapa+0
   1517 34            [11] 3654 	inc	(hl)
   1518 FD 21r9Dr03   [14] 3655 	ld	iy,#_num_mapa
   151C FD 6E 00      [19] 3656 	ld	l,0 (iy)
   151F 26 00         [ 7] 3657 	ld	h,#0x00
   1521 29            [11] 3658 	add	hl, hl
   1522 09            [11] 3659 	add	hl,bc
   1523 7E            [ 7] 3660 	ld	a,(hl)
   1524 FD 21r9Br03   [14] 3661 	ld	iy,#_mapa
   1528 FD 77 00      [19] 3662 	ld	0 (iy),a
   152B 23            [ 6] 3663 	inc	hl
   152C 7E            [ 7] 3664 	ld	a,(hl)
   152D 32r9Cr03      [13] 3665 	ld	(#_mapa + 1),a
                           3666 ;src/main.c:645: prota.x = prota.px = 2;
   1530 21r8Ar03      [10] 3667 	ld	hl,#(_prota + 0x0002)
   1533 36 02         [10] 3668 	ld	(hl),#0x02
   1535 21r88r03      [10] 3669 	ld	hl,#_prota
   1538 36 02         [10] 3670 	ld	(hl),#0x02
                           3671 ;src/main.c:646: prota.mover = SI;
   153A 21r8Er03      [10] 3672 	ld	hl,#(_prota + 0x0006)
   153D 36 01         [10] 3673 	ld	(hl),#0x01
                           3674 ;src/main.c:647: dibujarMapa();
   153F CDr00r00      [17] 3675 	call	_dibujarMapa
                           3676 ;src/main.c:648: inicializarEnemy();
   1542 C3rE5r13      [10] 3677 	jp  _inicializarEnemy
   1545                    3678 00102$:
                           3679 ;src/main.c:651: menuFin(puntuacion);
   1545 FD 21r9Er03   [14] 3680 	ld	iy,#_puntuacion
   1549 FD 6E 00      [19] 3681 	ld	l,0 (iy)
   154C 26 00         [ 7] 3682 	ld	h,#0x00
   154E C3r00r00      [10] 3683 	jp  _menuFin
                           3684 ;src/main.c:655: void moverIzquierda() {
                           3685 ;	---------------------------------
                           3686 ; Function moverIzquierda
                           3687 ; ---------------------------------
   1551                    3688 _moverIzquierda::
                           3689 ;src/main.c:656: prota.mira = M_izquierda;
   1551 01r88r03      [10] 3690 	ld	bc,#_prota+0
   1554 21r8Fr03      [10] 3691 	ld	hl,#(_prota + 0x0007)
   1557 36 01         [10] 3692 	ld	(hl),#0x01
                           3693 ;src/main.c:657: if (!checkCollision(M_izquierda)) {
   1559 C5            [11] 3694 	push	bc
   155A 3E 01         [ 7] 3695 	ld	a,#0x01
   155C F5            [11] 3696 	push	af
   155D 33            [ 6] 3697 	inc	sp
   155E CDr61r01      [17] 3698 	call	_checkCollision
   1561 33            [ 6] 3699 	inc	sp
   1562 C1            [10] 3700 	pop	bc
   1563 7D            [ 4] 3701 	ld	a,l
   1564 B7            [ 4] 3702 	or	a, a
   1565 C0            [11] 3703 	ret	NZ
                           3704 ;src/main.c:658: prota.x--;
   1566 0A            [ 7] 3705 	ld	a,(bc)
   1567 C6 FF         [ 7] 3706 	add	a,#0xFF
   1569 02            [ 7] 3707 	ld	(bc),a
                           3708 ;src/main.c:659: prota.mover = SI;
   156A 21r8Er03      [10] 3709 	ld	hl,#(_prota + 0x0006)
   156D 36 01         [10] 3710 	ld	(hl),#0x01
                           3711 ;src/main.c:660: prota.sprite = g_hero_left;
   156F 21r00r00      [10] 3712 	ld	hl,#_g_hero_left
   1572 22r8Cr03      [16] 3713 	ld	((_prota + 0x0004)), hl
   1575 C9            [10] 3714 	ret
                           3715 ;src/main.c:664: void moverDerecha() {
                           3716 ;	---------------------------------
                           3717 ; Function moverDerecha
                           3718 ; ---------------------------------
   1576                    3719 _moverDerecha::
                           3720 ;src/main.c:665: prota.mira = M_derecha;
   1576 21r8Fr03      [10] 3721 	ld	hl,#(_prota + 0x0007)
   1579 36 00         [10] 3722 	ld	(hl),#0x00
                           3723 ;src/main.c:666: if (!checkCollision(M_derecha) && ( prota.x + G_HERO_W < 80)) {
   157B AF            [ 4] 3724 	xor	a, a
   157C F5            [11] 3725 	push	af
   157D 33            [ 6] 3726 	inc	sp
   157E CDr61r01      [17] 3727 	call	_checkCollision
   1581 33            [ 6] 3728 	inc	sp
   1582 45            [ 4] 3729 	ld	b,l
   1583 21r88r03      [10] 3730 	ld	hl, #_prota + 0
   1586 4E            [ 7] 3731 	ld	c,(hl)
   1587 59            [ 4] 3732 	ld	e,c
   1588 16 00         [ 7] 3733 	ld	d,#0x00
   158A 21 07 00      [10] 3734 	ld	hl,#0x0007
   158D 19            [11] 3735 	add	hl,de
   158E 11 50 80      [10] 3736 	ld	de, #0x8050
   1591 29            [11] 3737 	add	hl, hl
   1592 3F            [ 4] 3738 	ccf
   1593 CB 1C         [ 8] 3739 	rr	h
   1595 CB 1D         [ 8] 3740 	rr	l
   1597 ED 52         [15] 3741 	sbc	hl, de
   1599 3E 00         [ 7] 3742 	ld	a,#0x00
   159B 17            [ 4] 3743 	rla
   159C 5F            [ 4] 3744 	ld	e,a
   159D 78            [ 4] 3745 	ld	a,b
   159E B7            [ 4] 3746 	or	a,a
   159F 20 14         [12] 3747 	jr	NZ,00104$
   15A1 B3            [ 4] 3748 	or	a,e
   15A2 28 11         [12] 3749 	jr	Z,00104$
                           3750 ;src/main.c:667: prota.x++;
   15A4 0C            [ 4] 3751 	inc	c
   15A5 21r88r03      [10] 3752 	ld	hl,#_prota
   15A8 71            [ 7] 3753 	ld	(hl),c
                           3754 ;src/main.c:668: prota.mover = SI;
   15A9 21r8Er03      [10] 3755 	ld	hl,#(_prota + 0x0006)
   15AC 36 01         [10] 3756 	ld	(hl),#0x01
                           3757 ;src/main.c:669: prota.sprite = g_hero;
   15AE 21r00r00      [10] 3758 	ld	hl,#_g_hero
   15B1 22r8Cr03      [16] 3759 	ld	((_prota + 0x0004)), hl
   15B4 C9            [10] 3760 	ret
   15B5                    3761 00104$:
                           3762 ;src/main.c:670: }else if( prota.x + G_HERO_W >= 80){
   15B5 7B            [ 4] 3763 	ld	a,e
   15B6 B7            [ 4] 3764 	or	a, a
   15B7 C0            [11] 3765 	ret	NZ
                           3766 ;src/main.c:671: avanzarMapa();
   15B8 C3r0Ar15      [10] 3767 	jp  _avanzarMapa
                           3768 ;src/main.c:675: void moverArriba() {
                           3769 ;	---------------------------------
                           3770 ; Function moverArriba
                           3771 ; ---------------------------------
   15BB                    3772 _moverArriba::
                           3773 ;src/main.c:676: prota.mira = M_arriba;
   15BB 21r8Fr03      [10] 3774 	ld	hl,#(_prota + 0x0007)
   15BE 36 02         [10] 3775 	ld	(hl),#0x02
                           3776 ;src/main.c:677: if (!checkCollision(M_arriba)) {
   15C0 3E 02         [ 7] 3777 	ld	a,#0x02
   15C2 F5            [11] 3778 	push	af
   15C3 33            [ 6] 3779 	inc	sp
   15C4 CDr61r01      [17] 3780 	call	_checkCollision
   15C7 33            [ 6] 3781 	inc	sp
   15C8 7D            [ 4] 3782 	ld	a,l
   15C9 B7            [ 4] 3783 	or	a, a
   15CA C0            [11] 3784 	ret	NZ
                           3785 ;src/main.c:678: prota.y--;
   15CB 21r89r03      [10] 3786 	ld	hl,#_prota + 1
   15CE 4E            [ 7] 3787 	ld	c,(hl)
   15CF 0D            [ 4] 3788 	dec	c
   15D0 71            [ 7] 3789 	ld	(hl),c
                           3790 ;src/main.c:679: prota.y--;
   15D1 0D            [ 4] 3791 	dec	c
   15D2 71            [ 7] 3792 	ld	(hl),c
                           3793 ;src/main.c:680: prota.mover  = SI;
   15D3 21r8Er03      [10] 3794 	ld	hl,#(_prota + 0x0006)
   15D6 36 01         [10] 3795 	ld	(hl),#0x01
                           3796 ;src/main.c:681: prota.sprite = g_hero_up;
   15D8 21r00r00      [10] 3797 	ld	hl,#_g_hero_up
   15DB 22r8Cr03      [16] 3798 	ld	((_prota + 0x0004)), hl
   15DE C9            [10] 3799 	ret
                           3800 ;src/main.c:685: void moverAbajo() {
                           3801 ;	---------------------------------
                           3802 ; Function moverAbajo
                           3803 ; ---------------------------------
   15DF                    3804 _moverAbajo::
                           3805 ;src/main.c:686: prota.mira = M_abajo;
   15DF 21r8Fr03      [10] 3806 	ld	hl,#(_prota + 0x0007)
   15E2 36 03         [10] 3807 	ld	(hl),#0x03
                           3808 ;src/main.c:687: if (!checkCollision(M_abajo) ) {
   15E4 3E 03         [ 7] 3809 	ld	a,#0x03
   15E6 F5            [11] 3810 	push	af
   15E7 33            [ 6] 3811 	inc	sp
   15E8 CDr61r01      [17] 3812 	call	_checkCollision
   15EB 33            [ 6] 3813 	inc	sp
   15EC 7D            [ 4] 3814 	ld	a,l
   15ED B7            [ 4] 3815 	or	a, a
   15EE C0            [11] 3816 	ret	NZ
                           3817 ;src/main.c:688: prota.y++;
   15EF 01r89r03      [10] 3818 	ld	bc,#_prota + 1
   15F2 0A            [ 7] 3819 	ld	a,(bc)
   15F3 3C            [ 4] 3820 	inc	a
   15F4 02            [ 7] 3821 	ld	(bc),a
                           3822 ;src/main.c:689: prota.y++;
   15F5 3C            [ 4] 3823 	inc	a
   15F6 02            [ 7] 3824 	ld	(bc),a
                           3825 ;src/main.c:690: prota.mover  = SI;
   15F7 21r8Er03      [10] 3826 	ld	hl,#(_prota + 0x0006)
   15FA 36 01         [10] 3827 	ld	(hl),#0x01
                           3828 ;src/main.c:691: prota.sprite = g_hero_down;
   15FC 21r00r00      [10] 3829 	ld	hl,#_g_hero_down
   15FF 22r8Cr03      [16] 3830 	ld	((_prota + 0x0004)), hl
   1602 C9            [10] 3831 	ret
                           3832 ;src/main.c:698: void intHandler() {
                           3833 ;	---------------------------------
                           3834 ; Function intHandler
                           3835 ; ---------------------------------
   1603                    3836 _intHandler::
                           3837 ;src/main.c:699: if (++i == 6) {
   1603 21rA0r03      [10] 3838 	ld	hl, #_i+0
   1606 34            [11] 3839 	inc	(hl)
   1607 3ArA0r03      [13] 3840 	ld	a,(#_i + 0)
   160A D6 06         [ 7] 3841 	sub	a, #0x06
   160C C0            [11] 3842 	ret	NZ
                           3843 ;src/main.c:700: play();
   160D CDr00r00      [17] 3844 	call	_play
                           3845 ;src/main.c:701: i=0;
   1610 21rA0r03      [10] 3846 	ld	hl,#_i + 0
   1613 36 00         [10] 3847 	ld	(hl), #0x00
   1615 C9            [10] 3848 	ret
                           3849 ;src/main.c:705: void inicializarCPC() {
                           3850 ;	---------------------------------
                           3851 ; Function inicializarCPC
                           3852 ; ---------------------------------
   1616                    3853 _inicializarCPC::
                           3854 ;src/main.c:706: cpct_disableFirmware();
   1616 CDr00r00      [17] 3855 	call	_cpct_disableFirmware
                           3856 ;src/main.c:707: cpct_setVideoMode(0);
   1619 2E 00         [ 7] 3857 	ld	l,#0x00
   161B CDr00r00      [17] 3858 	call	_cpct_setVideoMode
                           3859 ;src/main.c:708: cpct_setBorder(HW_BLACK);
   161E 21 10 14      [10] 3860 	ld	hl,#0x1410
   1621 E5            [11] 3861 	push	hl
   1622 CDr00r00      [17] 3862 	call	_cpct_setPALColour
                           3863 ;src/main.c:709: cpct_setPalette(g_palette, 16);
   1625 21 10 00      [10] 3864 	ld	hl,#0x0010
   1628 E5            [11] 3865 	push	hl
   1629 21r00r00      [10] 3866 	ld	hl,#_g_palette
   162C E5            [11] 3867 	push	hl
   162D CDr00r00      [17] 3868 	call	_cpct_setPalette
   1630 C9            [10] 3869 	ret
                           3870 ;src/main.c:714: void inicializarJuego() {
                           3871 ;	---------------------------------
                           3872 ; Function inicializarJuego
                           3873 ; ---------------------------------
   1631                    3874 _inicializarJuego::
                           3875 ;src/main.c:716: num_mapa = 2;
   1631 21r9Dr03      [10] 3876 	ld	hl,#_num_mapa + 0
   1634 36 02         [10] 3877 	ld	(hl), #0x02
                           3878 ;src/main.c:722: puntuacion = 0;
   1636 21r9Er03      [10] 3879 	ld	hl,#_puntuacion + 0
   1639 36 00         [10] 3880 	ld	(hl), #0x00
                           3881 ;src/main.c:723: vidas = 5;
   163B 21r9Fr03      [10] 3882 	ld	hl,#_vidas + 0
   163E 36 05         [10] 3883 	ld	(hl), #0x05
                           3884 ;src/main.c:724: mapa = mapas[num_mapa];
   1640 21r1Ar00      [10] 3885 	ld	hl, #(_mapas + 0x0004) + 0
   1643 7E            [ 7] 3886 	ld	a,(hl)
   1644 FD 21r9Br03   [14] 3887 	ld	iy,#_mapa
   1648 FD 77 00      [19] 3888 	ld	0 (iy),a
   164B 23            [ 6] 3889 	inc	hl
   164C 7E            [ 7] 3890 	ld	a,(hl)
   164D 32r9Cr03      [13] 3891 	ld	(#_mapa + 1),a
                           3892 ;src/main.c:725: cpct_etm_setTileset2x4(g_tileset);
   1650 21r00r00      [10] 3893 	ld	hl,#_g_tileset
   1653 CDr00r00      [17] 3894 	call	_cpct_etm_setTileset2x4
                           3895 ;src/main.c:727: dibujarMapa();
   1656 CDr00r00      [17] 3896 	call	_dibujarMapa
                           3897 ;src/main.c:730: barraPuntuacionInicial();
   1659 CDr00r00      [17] 3898 	call	_barraPuntuacionInicial
                           3899 ;src/main.c:733: prota.x = prota.px = 4;
   165C 21r8Ar03      [10] 3900 	ld	hl,#(_prota + 0x0002)
   165F 36 04         [10] 3901 	ld	(hl),#0x04
   1661 21r88r03      [10] 3902 	ld	hl,#_prota
   1664 36 04         [10] 3903 	ld	(hl),#0x04
                           3904 ;src/main.c:734: prota.y = prota.py = 80 + ORIGEN_MAPA_Y;
   1666 21r8Br03      [10] 3905 	ld	hl,#(_prota + 0x0003)
   1669 36 68         [10] 3906 	ld	(hl),#0x68
   166B 21r89r03      [10] 3907 	ld	hl,#(_prota + 0x0001)
   166E 36 68         [10] 3908 	ld	(hl),#0x68
                           3909 ;src/main.c:735: prota.mover  = NO;
   1670 21r8Er03      [10] 3910 	ld	hl,#(_prota + 0x0006)
   1673 36 00         [10] 3911 	ld	(hl),#0x00
                           3912 ;src/main.c:736: prota.mira=M_derecha;
   1675 21r8Fr03      [10] 3913 	ld	hl,#(_prota + 0x0007)
   1678 36 00         [10] 3914 	ld	(hl),#0x00
                           3915 ;src/main.c:737: prota.sprite = g_hero;
   167A 21r00r00      [10] 3916 	ld	hl,#_g_hero
   167D 22r8Cr03      [16] 3917 	ld	((_prota + 0x0004)), hl
                           3918 ;src/main.c:741: cu.x = cu.px = 0;
   1680 21r92r03      [10] 3919 	ld	hl,#(_cu + 0x0002)
   1683 36 00         [10] 3920 	ld	(hl),#0x00
   1685 21r90r03      [10] 3921 	ld	hl,#_cu
   1688 36 00         [10] 3922 	ld	(hl),#0x00
                           3923 ;src/main.c:742: cu.y = cu.py = 0;
   168A 21r93r03      [10] 3924 	ld	hl,#(_cu + 0x0003)
   168D 36 00         [10] 3925 	ld	(hl),#0x00
   168F 21r91r03      [10] 3926 	ld	hl,#(_cu + 0x0001)
   1692 36 00         [10] 3927 	ld	(hl),#0x00
                           3928 ;src/main.c:743: cu.lanzado = NO;
   1694 21r96r03      [10] 3929 	ld	hl,#(_cu + 0x0006)
   1697 36 00         [10] 3930 	ld	(hl),#0x00
                           3931 ;src/main.c:744: cu.mover = NO;
   1699 21r99r03      [10] 3932 	ld	hl,#(_cu + 0x0009)
   169C 36 00         [10] 3933 	ld	(hl),#0x00
                           3934 ;src/main.c:745: cu.off_bound = NO;
   169E 21r9Ar03      [10] 3935 	ld	hl,#(_cu + 0x000a)
   16A1 36 00         [10] 3936 	ld	(hl),#0x00
                           3937 ;src/main.c:747: inicializarEnemy();
   16A3 CDrE5r13      [17] 3938 	call	_inicializarEnemy
                           3939 ;src/main.c:749: dibujarProta();
   16A6 C3r4Cr00      [10] 3940 	jp  _dibujarProta
                           3941 ;src/main.c:752: void main(void) {
                           3942 ;	---------------------------------
                           3943 ; Function main
                           3944 ; ---------------------------------
   16A9                    3945 _main::
   16A9 DD E5         [15] 3946 	push	ix
   16AB DD 21 00 00   [14] 3947 	ld	ix,#0
   16AF DD 39         [15] 3948 	add	ix,sp
   16B1 21 F9 FF      [10] 3949 	ld	hl,#-7
   16B4 39            [11] 3950 	add	hl,sp
   16B5 F9            [ 6] 3951 	ld	sp,hl
                           3952 ;src/main.c:757: inicializarCPC();
   16B6 CDr16r16      [17] 3953 	call	_inicializarCPC
                           3954 ;src/main.c:759: menuInicio();
   16B9 CDr00r00      [17] 3955 	call	_menuInicio
                           3956 ;src/main.c:761: inicializarJuego();
   16BC CDr31r16      [17] 3957 	call	_inicializarJuego
                           3958 ;src/main.c:765: while (1) {
   16BF                    3959 00126$:
                           3960 ;src/main.c:767: i = 2 + num_mapa;
   16BF 21r9Dr03      [10] 3961 	ld	hl,#_num_mapa + 0
   16C2 4E            [ 7] 3962 	ld	c, (hl)
   16C3 0C            [ 4] 3963 	inc	c
   16C4 0C            [ 4] 3964 	inc	c
                           3965 ;src/main.c:768: actual = enemy;
                           3966 ;src/main.c:770: comprobarTeclado(&cu, &prota, mapa, g_tablatrans);
   16C5 C5            [11] 3967 	push	bc
   16C6 21r00r01      [10] 3968 	ld	hl,#_g_tablatrans
   16C9 E5            [11] 3969 	push	hl
   16CA 2Ar9Br03      [16] 3970 	ld	hl,(_mapa)
   16CD E5            [11] 3971 	push	hl
   16CE 21r88r03      [10] 3972 	ld	hl,#_prota
   16D1 E5            [11] 3973 	push	hl
   16D2 21r90r03      [10] 3974 	ld	hl,#_cu
   16D5 E5            [11] 3975 	push	hl
   16D6 CDrFAr00      [17] 3976 	call	_comprobarTeclado
   16D9 21 08 00      [10] 3977 	ld	hl,#8
   16DC 39            [11] 3978 	add	hl,sp
   16DD F9            [ 6] 3979 	ld	sp,hl
   16DE 2Ar9Br03      [16] 3980 	ld	hl,(_mapa)
   16E1 E5            [11] 3981 	push	hl
   16E2 21r90r03      [10] 3982 	ld	hl,#_cu
   16E5 E5            [11] 3983 	push	hl
   16E6 CDr00r00      [17] 3984 	call	_moverCuchillo
   16E9 F1            [10] 3985 	pop	af
   16EA F1            [10] 3986 	pop	af
   16EB C1            [10] 3987 	pop	bc
                           3988 ;src/main.c:772: while(i){
   16EC DD 71 FB      [19] 3989 	ld	-5 (ix),c
   16EF DD 36 F9r00   [19] 3990 	ld	-7 (ix),#<(_enemy)
   16F3 DD 36 FAs00   [19] 3991 	ld	-6 (ix),#>(_enemy)
   16F7                    3992 00105$:
   16F7 DD 7E FB      [19] 3993 	ld	a,-5 (ix)
   16FA B7            [ 4] 3994 	or	a, a
   16FB 28 4E         [12] 3995 	jr	Z,00107$
                           3996 ;src/main.c:774: --i;
   16FD DD 35 FB      [23] 3997 	dec	-5 (ix)
                           3998 ;src/main.c:775: if(!actual->muerto){
   1700 DD 7E F9      [19] 3999 	ld	a,-7 (ix)
   1703 C6 08         [ 7] 4000 	add	a, #0x08
   1705 DD 77 FC      [19] 4001 	ld	-4 (ix),a
   1708 DD 7E FA      [19] 4002 	ld	a,-6 (ix)
   170B CE 00         [ 7] 4003 	adc	a, #0x00
   170D DD 77 FD      [19] 4004 	ld	-3 (ix),a
   1710 DD 6E FC      [19] 4005 	ld	l,-4 (ix)
   1713 DD 66 FD      [19] 4006 	ld	h,-3 (ix)
   1716 7E            [ 7] 4007 	ld	a,(hl)
   1717 B7            [ 4] 4008 	or	a, a
   1718 20 0E         [12] 4009 	jr	NZ,00102$
                           4010 ;src/main.c:776: checkEnemyDead(cu.direccion, actual);
   171A 21r97r03      [10] 4011 	ld	hl, #_cu + 7
   171D 46            [ 7] 4012 	ld	b,(hl)
   171E E1            [10] 4013 	pop	hl
   171F E5            [11] 4014 	push	hl
   1720 E5            [11] 4015 	push	hl
   1721 C5            [11] 4016 	push	bc
   1722 33            [ 6] 4017 	inc	sp
   1723 CDr60r04      [17] 4018 	call	_checkEnemyDead
   1726 F1            [10] 4019 	pop	af
   1727 33            [ 6] 4020 	inc	sp
   1728                    4021 00102$:
                           4022 ;src/main.c:778: if(!actual->muerto){
   1728 DD 6E FC      [19] 4023 	ld	l,-4 (ix)
   172B DD 66 FD      [19] 4024 	ld	h,-3 (ix)
   172E 7E            [ 7] 4025 	ld	a,(hl)
   172F B7            [ 4] 4026 	or	a, a
   1730 20 07         [12] 4027 	jr	NZ,00104$
                           4028 ;src/main.c:779: updateEnemy(actual);
   1732 E1            [10] 4029 	pop	hl
   1733 E5            [11] 4030 	push	hl
   1734 E5            [11] 4031 	push	hl
   1735 CDr8Er12      [17] 4032 	call	_updateEnemy
   1738 F1            [10] 4033 	pop	af
   1739                    4034 00104$:
                           4035 ;src/main.c:781: ++actual;
   1739 DD 7E F9      [19] 4036 	ld	a,-7 (ix)
   173C C6 E2         [ 7] 4037 	add	a, #0xE2
   173E DD 77 F9      [19] 4038 	ld	-7 (ix),a
   1741 DD 7E FA      [19] 4039 	ld	a,-6 (ix)
   1744 CE 00         [ 7] 4040 	adc	a, #0x00
   1746 DD 77 FA      [19] 4041 	ld	-6 (ix),a
   1749 18 AC         [12] 4042 	jr	00105$
   174B                    4043 00107$:
                           4044 ;src/main.c:784: cpct_waitVSYNC();
   174B CDr00r00      [17] 4045 	call	_cpct_waitVSYNC
                           4046 ;src/main.c:787: if (prota.mover) {
   174E 01r8Er03      [10] 4047 	ld	bc,#_prota + 6
   1751 0A            [ 7] 4048 	ld	a,(bc)
   1752 B7            [ 4] 4049 	or	a, a
   1753 28 07         [12] 4050 	jr	Z,00109$
                           4051 ;src/main.c:788: redibujarProta();
   1755 C5            [11] 4052 	push	bc
   1756 CDrE6r00      [17] 4053 	call	_redibujarProta
   1759 C1            [10] 4054 	pop	bc
                           4055 ;src/main.c:789: prota.mover = NO;
   175A AF            [ 4] 4056 	xor	a, a
   175B 02            [ 7] 4057 	ld	(bc),a
   175C                    4058 00109$:
                           4059 ;src/main.c:791: if(cu.lanzado && cu.mover){
   175C 21r96r03      [10] 4060 	ld	hl, #(_cu + 0x0006) + 0
   175F 4E            [ 7] 4061 	ld	c,(hl)
                           4062 ;src/main.c:792: redibujarCuchillo(cu.eje, cu.x, cu.y, &cu, g_tablatrans, mapa);
                           4063 ;src/main.c:791: if(cu.lanzado && cu.mover){
   1760 79            [ 4] 4064 	ld	a,c
   1761 B7            [ 4] 4065 	or	a, a
   1762 28 30         [12] 4066 	jr	Z,00114$
   1764 3Ar99r03      [13] 4067 	ld	a, (#(_cu + 0x0009) + 0)
   1767 B7            [ 4] 4068 	or	a, a
   1768 28 2A         [12] 4069 	jr	Z,00114$
                           4070 ;src/main.c:792: redibujarCuchillo(cu.eje, cu.x, cu.y, &cu, g_tablatrans, mapa);
   176A 21r91r03      [10] 4071 	ld	hl, #(_cu + 0x0001) + 0
   176D 4E            [ 7] 4072 	ld	c,(hl)
   176E 21r90r03      [10] 4073 	ld	hl, #_cu + 0
   1771 46            [ 7] 4074 	ld	b,(hl)
   1772 21r98r03      [10] 4075 	ld	hl, #(_cu + 0x0008) + 0
   1775 5E            [ 7] 4076 	ld	e,(hl)
   1776 2Ar9Br03      [16] 4077 	ld	hl,(_mapa)
   1779 E5            [11] 4078 	push	hl
   177A 21r00r01      [10] 4079 	ld	hl,#_g_tablatrans
   177D E5            [11] 4080 	push	hl
   177E 21r90r03      [10] 4081 	ld	hl,#_cu
   1781 E5            [11] 4082 	push	hl
   1782 79            [ 4] 4083 	ld	a,c
   1783 F5            [11] 4084 	push	af
   1784 33            [ 6] 4085 	inc	sp
   1785 C5            [11] 4086 	push	bc
   1786 33            [ 6] 4087 	inc	sp
   1787 7B            [ 4] 4088 	ld	a,e
   1788 F5            [11] 4089 	push	af
   1789 33            [ 6] 4090 	inc	sp
   178A CDr00r00      [17] 4091 	call	_redibujarCuchillo
   178D 21 09 00      [10] 4092 	ld	hl,#9
   1790 39            [11] 4093 	add	hl,sp
   1791 F9            [ 6] 4094 	ld	sp,hl
   1792 18 28         [12] 4095 	jr	00115$
   1794                    4096 00114$:
                           4097 ;src/main.c:793: }else if (cu.lanzado && !cu.mover){
   1794 79            [ 4] 4098 	ld	a,c
   1795 B7            [ 4] 4099 	or	a, a
   1796 28 24         [12] 4100 	jr	Z,00115$
   1798 3Ar99r03      [13] 4101 	ld	a, (#(_cu + 0x0009) + 0)
   179B B7            [ 4] 4102 	or	a, a
   179C 20 1E         [12] 4103 	jr	NZ,00115$
                           4104 ;src/main.c:794: borrarCuchillo(cu.eje, cu.x, cu.y, mapa);
   179E 21r91r03      [10] 4105 	ld	hl, #(_cu + 0x0001) + 0
   17A1 46            [ 7] 4106 	ld	b,(hl)
   17A2 21r90r03      [10] 4107 	ld	hl, #_cu + 0
   17A5 4E            [ 7] 4108 	ld	c,(hl)
   17A6 21r98r03      [10] 4109 	ld	hl, #(_cu + 0x0008) + 0
   17A9 56            [ 7] 4110 	ld	d,(hl)
   17AA 2Ar9Br03      [16] 4111 	ld	hl,(_mapa)
   17AD E5            [11] 4112 	push	hl
   17AE C5            [11] 4113 	push	bc
   17AF D5            [11] 4114 	push	de
   17B0 33            [ 6] 4115 	inc	sp
   17B1 CDr00r00      [17] 4116 	call	_borrarCuchillo
   17B4 F1            [10] 4117 	pop	af
   17B5 F1            [10] 4118 	pop	af
   17B6 33            [ 6] 4119 	inc	sp
                           4120 ;src/main.c:795: cu.lanzado = NO;
   17B7 21r96r03      [10] 4121 	ld	hl,#(_cu + 0x0006)
   17BA 36 00         [10] 4122 	ld	(hl),#0x00
   17BC                    4123 00115$:
                           4124 ;src/main.c:798: i = 2 + num_mapa;
   17BC 3Ar9Dr03      [13] 4125 	ld	a,(#_num_mapa + 0)
   17BF C6 02         [ 7] 4126 	add	a, #0x02
   17C1 DD 77 FC      [19] 4127 	ld	-4 (ix),a
                           4128 ;src/main.c:799: actual = enemy;
   17C4 01r00r00      [10] 4129 	ld	bc,#_enemy
                           4130 ;src/main.c:800: while(i){
   17C7                    4131 00122$:
   17C7 DD 7E FC      [19] 4132 	ld	a,-4 (ix)
   17CA B7            [ 4] 4133 	or	a, a
   17CB CAr7Ar18      [10] 4134 	jp	Z,00124$
                           4135 ;src/main.c:802: --i;
   17CE DD 35 FC      [23] 4136 	dec	-4 (ix)
                           4137 ;src/main.c:803: if(actual->mover){
   17D1 21 06 00      [10] 4138 	ld	hl,#0x0006
   17D4 09            [11] 4139 	add	hl,bc
   17D5 E3            [19] 4140 	ex	(sp), hl
   17D6 E1            [10] 4141 	pop	hl
   17D7 E5            [11] 4142 	push	hl
   17D8 7E            [ 7] 4143 	ld	a,(hl)
   17D9 B7            [ 4] 4144 	or	a, a
   17DA 28 18         [12] 4145 	jr	Z,00118$
                           4146 ;src/main.c:804: redibujarEnemigo((*actual).px, (*actual).py, actual);
   17DC 69            [ 4] 4147 	ld	l, c
   17DD 60            [ 4] 4148 	ld	h, b
   17DE 23            [ 6] 4149 	inc	hl
   17DF 23            [ 6] 4150 	inc	hl
   17E0 23            [ 6] 4151 	inc	hl
   17E1 5E            [ 7] 4152 	ld	e,(hl)
   17E2 69            [ 4] 4153 	ld	l, c
   17E3 60            [ 4] 4154 	ld	h, b
   17E4 23            [ 6] 4155 	inc	hl
   17E5 23            [ 6] 4156 	inc	hl
   17E6 56            [ 7] 4157 	ld	d,(hl)
   17E7 C5            [11] 4158 	push	bc
   17E8 C5            [11] 4159 	push	bc
   17E9 7B            [ 4] 4160 	ld	a,e
   17EA F5            [11] 4161 	push	af
   17EB 33            [ 6] 4162 	inc	sp
   17EC D5            [11] 4163 	push	de
   17ED 33            [ 6] 4164 	inc	sp
   17EE CDr2Fr04      [17] 4165 	call	_redibujarEnemigo
   17F1 F1            [10] 4166 	pop	af
   17F2 F1            [10] 4167 	pop	af
   17F3 C1            [10] 4168 	pop	bc
   17F4                    4169 00118$:
                           4170 ;src/main.c:807: if (actual->muerto && actual->muertes == 0){
   17F4 C5            [11] 4171 	push	bc
   17F5 FD E1         [14] 4172 	pop	iy
   17F7 FD 7E 08      [19] 4173 	ld	a,8 (iy)
   17FA B7            [ 4] 4174 	or	a, a
   17FB 28 74         [12] 4175 	jr	Z,00120$
   17FD 21 0A 00      [10] 4176 	ld	hl,#0x000A
   1800 09            [11] 4177 	add	hl,bc
   1801 EB            [ 4] 4178 	ex	de,hl
   1802 1A            [ 7] 4179 	ld	a,(de)
   1803 B7            [ 4] 4180 	or	a, a
   1804 20 6B         [12] 4181 	jr	NZ,00120$
                           4182 ;src/main.c:808: borrarEnemigo((*actual).x, (*actual).y);
   1806 21 01 00      [10] 4183 	ld	hl,#0x0001
   1809 09            [11] 4184 	add	hl,bc
   180A DD 75 FE      [19] 4185 	ld	-2 (ix),l
   180D DD 74 FF      [19] 4186 	ld	-1 (ix),h
   1810 DD 6E FE      [19] 4187 	ld	l,-2 (ix)
   1813 DD 66 FF      [19] 4188 	ld	h,-1 (ix)
   1816 7E            [ 7] 4189 	ld	a,(hl)
   1817 F5            [11] 4190 	push	af
   1818 0A            [ 7] 4191 	ld	a,(bc)
   1819 DD 77 FB      [19] 4192 	ld	-5 (ix),a
   181C F1            [10] 4193 	pop	af
   181D C5            [11] 4194 	push	bc
   181E D5            [11] 4195 	push	de
   181F F5            [11] 4196 	push	af
   1820 33            [ 6] 4197 	inc	sp
   1821 DD 7E FB      [19] 4198 	ld	a,-5 (ix)
   1824 F5            [11] 4199 	push	af
   1825 33            [ 6] 4200 	inc	sp
   1826 CDrBAr03      [17] 4201 	call	_borrarEnemigo
   1829 F1            [10] 4202 	pop	af
   182A D1            [10] 4203 	pop	de
   182B C1            [10] 4204 	pop	bc
                           4205 ;src/main.c:809: dibujarExplosion(actual);
   182C C5            [11] 4206 	push	bc
   182D D5            [11] 4207 	push	de
   182E C5            [11] 4208 	push	bc
   182F CDr0Ar03      [17] 4209 	call	_dibujarExplosion
   1832 F1            [10] 4210 	pop	af
   1833 D1            [10] 4211 	pop	de
   1834 C1            [10] 4212 	pop	bc
                           4213 ;src/main.c:810: puntuacion_aux = puntuacion;
   1835 FD 21r9Er03   [14] 4214 	ld	iy,#_puntuacion
   1839 FD 6E 00      [19] 4215 	ld	l,0 (iy)
   183C 26 00         [ 7] 4216 	ld	h,#0x00
                           4217 ;src/main.c:811: puntuacion = aumentarPuntuacion(puntuacion_aux);
   183E C5            [11] 4218 	push	bc
   183F D5            [11] 4219 	push	de
   1840 E5            [11] 4220 	push	hl
   1841 CDr00r00      [17] 4221 	call	_aumentarPuntuacion
   1844 F1            [10] 4222 	pop	af
   1845 D1            [10] 4223 	pop	de
   1846 C1            [10] 4224 	pop	bc
   1847 FD 21r9Er03   [14] 4225 	ld	iy,#_puntuacion
   184B FD 75 00      [19] 4226 	ld	0 (iy),l
                           4227 ;src/main.c:812: modificarPuntuacion(puntuacion);
   184E FD 21r9Er03   [14] 4228 	ld	iy,#_puntuacion
   1852 FD 6E 00      [19] 4229 	ld	l,0 (iy)
   1855 26 00         [ 7] 4230 	ld	h,#0x00
   1857 C5            [11] 4231 	push	bc
   1858 D5            [11] 4232 	push	de
   1859 E5            [11] 4233 	push	hl
   185A CDr00r00      [17] 4234 	call	_modificarPuntuacion
   185D F1            [10] 4235 	pop	af
   185E D1            [10] 4236 	pop	de
   185F C1            [10] 4237 	pop	bc
                           4238 ;src/main.c:813: actual->mover = NO;
   1860 E1            [10] 4239 	pop	hl
   1861 E5            [11] 4240 	push	hl
   1862 36 00         [10] 4241 	ld	(hl),#0x00
                           4242 ;src/main.c:814: actual->muertes++;
   1864 1A            [ 7] 4243 	ld	a,(de)
   1865 3C            [ 4] 4244 	inc	a
   1866 12            [ 7] 4245 	ld	(de),a
                           4246 ;src/main.c:815: actual->x = 0;
   1867 AF            [ 4] 4247 	xor	a, a
   1868 02            [ 7] 4248 	ld	(bc),a
                           4249 ;src/main.c:816: actual->y = 0;
   1869 DD 6E FE      [19] 4250 	ld	l,-2 (ix)
   186C DD 66 FF      [19] 4251 	ld	h,-1 (ix)
   186F 36 00         [10] 4252 	ld	(hl),#0x00
   1871                    4253 00120$:
                           4254 ;src/main.c:818: ++actual;
   1871 21 E2 00      [10] 4255 	ld	hl,#0x00E2
   1874 09            [11] 4256 	add	hl,bc
   1875 4D            [ 4] 4257 	ld	c,l
   1876 44            [ 4] 4258 	ld	b,h
   1877 C3rC7r17      [10] 4259 	jp	00122$
   187A                    4260 00124$:
                           4261 ;src/main.c:820: cpct_waitVSYNC();
   187A CDr00r00      [17] 4262 	call	_cpct_waitVSYNC
   187D C3rBFr16      [10] 4263 	jp	00126$
                           4264 	.area _CODE
                           4265 	.area _INITIALIZER
                           4266 	.area _CABS (ABS)
