                              1 ;--------------------------------------------------------
                              2 ; File Created by SDCC : free open source ANSI-C Compiler
                              3 ; Version 3.5.5 #9498 (Linux)
                              4 ;--------------------------------------------------------
                              5 	.module pathfinding
                              6 	.optsdcc -mz80
                              7 	
                              8 ;--------------------------------------------------------
                              9 ; Public variables in this module
                             10 ;--------------------------------------------------------
                             11 	.globl _setBit
                             12 	.globl _getBit
                             13 	.globl _camino
                             14 	.globl _sol_matriz
                             15 	.globl _sol_tam
                             16 	.globl _bitWeights
                             17 	.globl _abs
                             18 	.globl _anyadirALista
                             19 	.globl _adjacentTiles
                             20 	.globl _pathFinding
                             21 ;--------------------------------------------------------
                             22 ; special function registers
                             23 ;--------------------------------------------------------
                             24 ;--------------------------------------------------------
                             25 ; ram data
                             26 ;--------------------------------------------------------
                             27 	.area _DATA
   0000                      28 _sol_tam::
   0000                      29 	.ds 1
   0001                      30 _sol_matriz::
   0001                      31 	.ds 2112
   0841                      32 _camino::
   0841                      33 	.ds 70
                             34 ;--------------------------------------------------------
                             35 ; ram data
                             36 ;--------------------------------------------------------
                             37 	.area _INITIALIZED
                             38 ;--------------------------------------------------------
                             39 ; absolute external ram data
                             40 ;--------------------------------------------------------
                             41 	.area _DABS (ABS)
                             42 ;--------------------------------------------------------
                             43 ; global & static initialisations
                             44 ;--------------------------------------------------------
                             45 	.area _HOME
                             46 	.area _GSINIT
                             47 	.area _GSFINAL
                             48 	.area _GSINIT
                             49 ;--------------------------------------------------------
                             50 ; Home
                             51 ;--------------------------------------------------------
                             52 	.area _HOME
                             53 	.area _HOME
                             54 ;--------------------------------------------------------
                             55 ; code
                             56 ;--------------------------------------------------------
                             57 	.area _CODE
                             58 ;src/pathfinding.c:15: i16 abs (i16 n) {
                             59 ;	---------------------------------
                             60 ; Function abs
                             61 ; ---------------------------------
   0000                      62 _abs::
   0000 DD E5         [15]   63 	push	ix
   0002 DD 21 00 00   [14]   64 	ld	ix,#0
   0006 DD 39         [15]   65 	add	ix,sp
   0008 F5            [11]   66 	push	af
   0009 F5            [11]   67 	push	af
                             68 ;src/pathfinding.c:16: const i16 ret[2] = { n, -n };
   000A 21 00 00      [10]   69 	ld	hl,#0x0000
   000D 39            [11]   70 	add	hl,sp
   000E 4D            [ 4]   71 	ld	c,l
   000F 44            [ 4]   72 	ld	b,h
   0010 DD 7E 04      [19]   73 	ld	a,4 (ix)
   0013 77            [ 7]   74 	ld	(hl),a
   0014 23            [ 6]   75 	inc	hl
   0015 DD 7E 05      [19]   76 	ld	a,5 (ix)
   0018 77            [ 7]   77 	ld	(hl),a
   0019 69            [ 4]   78 	ld	l, c
   001A 60            [ 4]   79 	ld	h, b
   001B 23            [ 6]   80 	inc	hl
   001C 23            [ 6]   81 	inc	hl
   001D AF            [ 4]   82 	xor	a, a
   001E DD 96 04      [19]   83 	sub	a, 4 (ix)
   0021 5F            [ 4]   84 	ld	e,a
   0022 3E 00         [ 7]   85 	ld	a, #0x00
   0024 DD 9E 05      [19]   86 	sbc	a, 5 (ix)
   0027 57            [ 4]   87 	ld	d,a
   0028 73            [ 7]   88 	ld	(hl),e
   0029 23            [ 6]   89 	inc	hl
   002A 72            [ 7]   90 	ld	(hl),d
                             91 ;src/pathfinding.c:17: return ret[n<0];
   002B DD 7E 05      [19]   92 	ld	a,5 (ix)
   002E 07            [ 4]   93 	rlca
   002F E6 01         [ 7]   94 	and	a,#0x01
   0031 6F            [ 4]   95 	ld	l,a
   0032 17            [ 4]   96 	rla
   0033 9F            [ 4]   97 	sbc	a, a
   0034 67            [ 4]   98 	ld	h,a
   0035 29            [11]   99 	add	hl, hl
   0036 09            [11]  100 	add	hl,bc
   0037 4E            [ 7]  101 	ld	c,(hl)
   0038 23            [ 6]  102 	inc	hl
   0039 66            [ 7]  103 	ld	h,(hl)
   003A 69            [ 4]  104 	ld	l, c
   003B DD F9         [10]  105 	ld	sp, ix
   003D DD E1         [14]  106 	pop	ix
   003F C9            [10]  107 	ret
   0040                     108 _bitWeights:
   0040 01 00               109 	.dw #0x0001
   0042 02 00               110 	.dw #0x0002
   0044 04 00               111 	.dw #0x0004
   0046 08 00               112 	.dw #0x0008
   0048 10 00               113 	.dw #0x0010
   004A 20 00               114 	.dw #0x0020
   004C 40 00               115 	.dw #0x0040
   004E 80 00               116 	.dw #0x0080
                            117 ;src/pathfinding.c:20: u8 getBit(u8 *array, u16 pos)
                            118 ;	---------------------------------
                            119 ; Function getBit
                            120 ; ---------------------------------
   0050                     121 _getBit::
   0050 DD E5         [15]  122 	push	ix
   0052 DD 21 00 00   [14]  123 	ld	ix,#0
   0056 DD 39         [15]  124 	add	ix,sp
                            125 ;src/pathfinding.c:25: byteV = array[pos/8];
   0058 DD 4E 06      [19]  126 	ld	c,6 (ix)
   005B DD 46 07      [19]  127 	ld	b,7 (ix)
   005E CB 38         [ 8]  128 	srl	b
   0060 CB 19         [ 8]  129 	rr	c
   0062 CB 38         [ 8]  130 	srl	b
   0064 CB 19         [ 8]  131 	rr	c
   0066 CB 38         [ 8]  132 	srl	b
   0068 CB 19         [ 8]  133 	rr	c
   006A DD 6E 04      [19]  134 	ld	l,4 (ix)
   006D DD 66 05      [19]  135 	ld	h,5 (ix)
   0070 09            [11]  136 	add	hl,bc
   0071 4E            [ 7]  137 	ld	c,(hl)
   0072 06 00         [ 7]  138 	ld	b,#0x00
                            139 ;src/pathfinding.c:26: bitV = bitWeights[pos%8];
   0074 DD 7E 06      [19]  140 	ld	a,6 (ix)
   0077 E6 07         [ 7]  141 	and	a, #0x07
   0079 6F            [ 4]  142 	ld	l,a
   007A 26 00         [ 7]  143 	ld	h,#0x00
   007C 29            [11]  144 	add	hl, hl
   007D 11r40r00      [10]  145 	ld	de,#_bitWeights
   0080 19            [11]  146 	add	hl,de
   0081 5E            [ 7]  147 	ld	e,(hl)
   0082 23            [ 6]  148 	inc	hl
   0083 56            [ 7]  149 	ld	d,(hl)
                            150 ;src/pathfinding.c:27: return (byteV & bitV) == bitV;
   0084 79            [ 4]  151 	ld	a,c
   0085 A3            [ 4]  152 	and	a, e
   0086 4F            [ 4]  153 	ld	c,a
   0087 78            [ 4]  154 	ld	a,b
   0088 A2            [ 4]  155 	and	a, d
   0089 47            [ 4]  156 	ld	b,a
   008A 7B            [ 4]  157 	ld	a,e
   008B 91            [ 4]  158 	sub	a, c
   008C 20 08         [12]  159 	jr	NZ,00103$
   008E 7A            [ 4]  160 	ld	a,d
   008F 90            [ 4]  161 	sub	a, b
   0090 20 04         [12]  162 	jr	NZ,00103$
   0092 3E 01         [ 7]  163 	ld	a,#0x01
   0094 18 01         [12]  164 	jr	00104$
   0096                     165 00103$:
   0096 AF            [ 4]  166 	xor	a,a
   0097                     167 00104$:
   0097 6F            [ 4]  168 	ld	l,a
   0098 DD E1         [14]  169 	pop	ix
   009A C9            [10]  170 	ret
                            171 ;src/pathfinding.c:30: void setBit(u8 *array, u16 pos, u16 value)
                            172 ;	---------------------------------
                            173 ; Function setBit
                            174 ; ---------------------------------
   009B                     175 _setBit::
   009B DD E5         [15]  176 	push	ix
   009D DD 21 00 00   [14]  177 	ld	ix,#0
   00A1 DD 39         [15]  178 	add	ix,sp
                            179 ;src/pathfinding.c:36: bytePos = pos/8;
   00A3 DD 5E 06      [19]  180 	ld	e,6 (ix)
   00A6 DD 56 07      [19]  181 	ld	d,7 (ix)
   00A9 CB 3A         [ 8]  182 	srl	d
   00AB CB 1B         [ 8]  183 	rr	e
   00AD CB 3A         [ 8]  184 	srl	d
   00AF CB 1B         [ 8]  185 	rr	e
   00B1 CB 3A         [ 8]  186 	srl	d
   00B3 CB 1B         [ 8]  187 	rr	e
                            188 ;src/pathfinding.c:38: bitV = bitWeights[pos%8];
   00B5 01r40r00      [10]  189 	ld	bc,#_bitWeights+0
   00B8 DD 7E 06      [19]  190 	ld	a,6 (ix)
   00BB E6 07         [ 7]  191 	and	a, #0x07
   00BD 6F            [ 4]  192 	ld	l,a
   00BE 26 00         [ 7]  193 	ld	h,#0x00
   00C0 29            [11]  194 	add	hl, hl
   00C1 09            [11]  195 	add	hl,bc
   00C2 4E            [ 7]  196 	ld	c,(hl)
   00C3 23            [ 6]  197 	inc	hl
   00C4 46            [ 7]  198 	ld	b,(hl)
                            199 ;src/pathfinding.c:42: if(getBit(array, pos) != 0) array[bytePos] -= bitV;
   00C5 DD 6E 04      [19]  200 	ld	l,4 (ix)
   00C8 DD 66 05      [19]  201 	ld	h,5 (ix)
   00CB 19            [11]  202 	add	hl,de
                            203 ;src/pathfinding.c:40: if(value == 0)
   00CC DD 7E 09      [19]  204 	ld	a,9 (ix)
   00CF DD B6 08      [19]  205 	or	a,8 (ix)
   00D2 20 20         [12]  206 	jr	NZ,00106$
                            207 ;src/pathfinding.c:42: if(getBit(array, pos) != 0) array[bytePos] -= bitV;
   00D4 E5            [11]  208 	push	hl
   00D5 C5            [11]  209 	push	bc
   00D6 DD 5E 06      [19]  210 	ld	e,6 (ix)
   00D9 DD 56 07      [19]  211 	ld	d,7 (ix)
   00DC D5            [11]  212 	push	de
   00DD DD 5E 04      [19]  213 	ld	e,4 (ix)
   00E0 DD 56 05      [19]  214 	ld	d,5 (ix)
   00E3 D5            [11]  215 	push	de
   00E4 CDr50r00      [17]  216 	call	_getBit
   00E7 F1            [10]  217 	pop	af
   00E8 F1            [10]  218 	pop	af
   00E9 7D            [ 4]  219 	ld	a,l
   00EA C1            [10]  220 	pop	bc
   00EB E1            [10]  221 	pop	hl
   00EC B7            [ 4]  222 	or	a, a
   00ED 28 23         [12]  223 	jr	Z,00108$
   00EF 7E            [ 7]  224 	ld	a, (hl)
   00F0 91            [ 4]  225 	sub	a, c
   00F1 77            [ 7]  226 	ld	(hl),a
   00F2 18 1E         [12]  227 	jr	00108$
   00F4                     228 00106$:
                            229 ;src/pathfinding.c:46: if(getBit(array, pos) == 0) array[bytePos] += bitV;
   00F4 E5            [11]  230 	push	hl
   00F5 C5            [11]  231 	push	bc
   00F6 DD 5E 06      [19]  232 	ld	e,6 (ix)
   00F9 DD 56 07      [19]  233 	ld	d,7 (ix)
   00FC D5            [11]  234 	push	de
   00FD DD 5E 04      [19]  235 	ld	e,4 (ix)
   0100 DD 56 05      [19]  236 	ld	d,5 (ix)
   0103 D5            [11]  237 	push	de
   0104 CDr50r00      [17]  238 	call	_getBit
   0107 F1            [10]  239 	pop	af
   0108 F1            [10]  240 	pop	af
   0109 7D            [ 4]  241 	ld	a,l
   010A C1            [10]  242 	pop	bc
   010B E1            [10]  243 	pop	hl
   010C B7            [ 4]  244 	or	a, a
   010D 20 03         [12]  245 	jr	NZ,00108$
   010F 7E            [ 7]  246 	ld	a, (hl)
   0110 81            [ 4]  247 	add	a, c
   0111 77            [ 7]  248 	ld	(hl),a
   0112                     249 00108$:
   0112 DD E1         [14]  250 	pop	ix
   0114 C9            [10]  251 	ret
                            252 ;src/pathfinding.c:51: u8 anyadirALista(u8 x, u8 y){
                            253 ;	---------------------------------
                            254 ; Function anyadirALista
                            255 ; ---------------------------------
   0115                     256 _anyadirALista::
                            257 ;src/pathfinding.c:52: u8 anyadido = 0;
   0115 0E 00         [ 7]  258 	ld	c,#0x00
                            259 ;src/pathfinding.c:54: if(sol_tam < 70){
   0117 3Ar00r00      [13]  260 	ld	a,(#_sol_tam + 0)
   011A D6 46         [ 7]  261 	sub	a, #0x46
   011C 30 33         [12]  262 	jr	NC,00102$
                            263 ;src/pathfinding.c:55: camino[sol_tam-1] = x;
   011E 01r41r08      [10]  264 	ld	bc,#_camino+0
   0121 21r00r00      [10]  265 	ld	hl,#_sol_tam + 0
   0124 5E            [ 7]  266 	ld	e, (hl)
   0125 1D            [ 4]  267 	dec	e
   0126 6B            [ 4]  268 	ld	l,e
   0127 26 00         [ 7]  269 	ld	h,#0x00
   0129 09            [11]  270 	add	hl,bc
   012A FD 21 02 00   [14]  271 	ld	iy,#2
   012E FD 39         [15]  272 	add	iy,sp
   0130 FD 7E 00      [19]  273 	ld	a,0 (iy)
   0133 77            [ 7]  274 	ld	(hl),a
                            275 ;src/pathfinding.c:56: sol_tam++;
   0134 21r00r00      [10]  276 	ld	hl, #_sol_tam+0
   0137 34            [11]  277 	inc	(hl)
                            278 ;src/pathfinding.c:57: camino[sol_tam-1] = y;
   0138 21r00r00      [10]  279 	ld	hl,#_sol_tam + 0
   013B 5E            [ 7]  280 	ld	e, (hl)
   013C 1D            [ 4]  281 	dec	e
   013D 6B            [ 4]  282 	ld	l,e
   013E 26 00         [ 7]  283 	ld	h,#0x00
   0140 09            [11]  284 	add	hl,bc
   0141 FD 21 03 00   [14]  285 	ld	iy,#3
   0145 FD 39         [15]  286 	add	iy,sp
   0147 FD 7E 00      [19]  287 	ld	a,0 (iy)
   014A 77            [ 7]  288 	ld	(hl),a
                            289 ;src/pathfinding.c:58: sol_tam++;
   014B 21r00r00      [10]  290 	ld	hl, #_sol_tam+0
   014E 34            [11]  291 	inc	(hl)
                            292 ;src/pathfinding.c:59: anyadido = 1;
   014F 0E 01         [ 7]  293 	ld	c,#0x01
   0151                     294 00102$:
                            295 ;src/pathfinding.c:62: return anyadido;
   0151 69            [ 4]  296 	ld	l,c
   0152 C9            [10]  297 	ret
                            298 ;src/pathfinding.c:66: u8 adjacentTiles(u8 x, u8 y, u8 s_x, u8 s_y, u8 f_x, u8 f_y, u8* matriz){
                            299 ;	---------------------------------
                            300 ; Function adjacentTiles
                            301 ; ---------------------------------
   0153                     302 _adjacentTiles::
   0153 DD E5         [15]  303 	push	ix
   0155 DD 21 00 00   [14]  304 	ld	ix,#0
   0159 DD 39         [15]  305 	add	ix,sp
   015B 21 D1 FF      [10]  306 	ld	hl,#-47
   015E 39            [11]  307 	add	hl,sp
   015F F9            [ 6]  308 	ld	sp,hl
                            309 ;src/pathfinding.c:67: u8 resultado = 4;
   0160 DD 36 D5 04   [19]  310 	ld	-43 (ix),#0x04
                            311 ;src/pathfinding.c:69: i16 dist1 = 0;
   0164 DD 36 D8 00   [19]  312 	ld	-40 (ix),#0x00
   0168 DD 36 D9 00   [19]  313 	ld	-39 (ix),#0x00
                            314 ;src/pathfinding.c:70: i16 dist2 = 0;
   016C DD 36 DA 00   [19]  315 	ld	-38 (ix),#0x00
   0170 DD 36 DB 00   [19]  316 	ld	-37 (ix),#0x00
                            317 ;src/pathfinding.c:71: i16 dist3 = 0;
   0174 DD 36 DE 00   [19]  318 	ld	-34 (ix),#0x00
   0178 DD 36 DF 00   [19]  319 	ld	-33 (ix),#0x00
                            320 ;src/pathfinding.c:75: i16 heu_derecha = 0;
   017C DD 36 D6 00   [19]  321 	ld	-42 (ix),#0x00
   0180 DD 36 D7 00   [19]  322 	ld	-41 (ix),#0x00
                            323 ;src/pathfinding.c:76: i16 heu_izquierda = 0;
   0184 21 00 00      [10]  324 	ld	hl,#0x0000
   0187 E3            [19]  325 	ex	(sp), hl
                            326 ;src/pathfinding.c:77: i16 heu_arriba = 0;
   0188 DD 36 DC 00   [19]  327 	ld	-36 (ix),#0x00
   018C DD 36 DD 00   [19]  328 	ld	-35 (ix),#0x00
                            329 ;src/pathfinding.c:78: i16 heu_abajo = 0;
   0190 DD 36 E0 00   [19]  330 	ld	-32 (ix),#0x00
   0194 DD 36 E1 00   [19]  331 	ld	-31 (ix),#0x00
                            332 ;src/pathfinding.c:85: setBit(sol_matriz, (y-ORIGEN_MAPA_Y) * 40*2 + (x-1), 1);
   0198 DD 7E 05      [19]  333 	ld	a,5 (ix)
   019B DD 77 F6      [19]  334 	ld	-10 (ix),a
   019E DD 36 F7 00   [19]  335 	ld	-9 (ix),#0x00
   01A2 DD 7E 04      [19]  336 	ld	a,4 (ix)
   01A5 DD 77 E6      [19]  337 	ld	-26 (ix),a
   01A8 DD 36 E7 00   [19]  338 	ld	-25 (ix),#0x00
   01AC DD 7E F6      [19]  339 	ld	a,-10 (ix)
   01AF C6 E8         [ 7]  340 	add	a,#0xE8
   01B1 DD 77 F2      [19]  341 	ld	-14 (ix),a
   01B4 DD 7E F7      [19]  342 	ld	a,-9 (ix)
   01B7 CE FF         [ 7]  343 	adc	a,#0xFF
   01B9 DD 77 F3      [19]  344 	ld	-13 (ix),a
   01BC DD 7E E6      [19]  345 	ld	a,-26 (ix)
   01BF C6 FF         [ 7]  346 	add	a,#0xFF
   01C1 DD 77 EE      [19]  347 	ld	-18 (ix),a
   01C4 DD 7E E7      [19]  348 	ld	a,-25 (ix)
   01C7 CE FF         [ 7]  349 	adc	a,#0xFF
   01C9 DD 77 EF      [19]  350 	ld	-17 (ix),a
                            351 ;src/pathfinding.c:87: setBit(sol_matriz, (y-ORIGEN_MAPA_Y) * 40*2 + (x+1), 1);
   01CC DD 7E E6      [19]  352 	ld	a,-26 (ix)
   01CF C6 01         [ 7]  353 	add	a, #0x01
   01D1 DD 77 EA      [19]  354 	ld	-22 (ix),a
   01D4 DD 7E E7      [19]  355 	ld	a,-25 (ix)
   01D7 CE 00         [ 7]  356 	adc	a, #0x00
   01D9 DD 77 EB      [19]  357 	ld	-21 (ix),a
                            358 ;src/pathfinding.c:100: setBit(sol_matriz, ((y-ORIGEN_MAPA_Y)-2) * 40*2 + x, 1);
   01DC DD 7E F6      [19]  359 	ld	a,-10 (ix)
   01DF C6 E6         [ 7]  360 	add	a,#0xE6
   01E1 DD 77 FA      [19]  361 	ld	-6 (ix),a
   01E4 DD 7E F7      [19]  362 	ld	a,-9 (ix)
   01E7 CE FF         [ 7]  363 	adc	a,#0xFF
   01E9 DD 77 FB      [19]  364 	ld	-5 (ix),a
                            365 ;src/pathfinding.c:103: setBit(sol_matriz, ((y-ORIGEN_MAPA_Y)+2) * 40*2 + x, 1);
   01EC DD 7E F6      [19]  366 	ld	a,-10 (ix)
   01EF C6 EA         [ 7]  367 	add	a, #0xEA
   01F1 DD 77 F0      [19]  368 	ld	-16 (ix),a
   01F4 DD 7E F7      [19]  369 	ld	a,-9 (ix)
   01F7 CE FF         [ 7]  370 	adc	a, #0xFF
   01F9 DD 77 F1      [19]  371 	ld	-15 (ix),a
                            372 ;src/pathfinding.c:85: setBit(sol_matriz, (y-ORIGEN_MAPA_Y) * 40*2 + (x-1), 1);
   01FC DD 4E F2      [19]  373 	ld	c,-14 (ix)
   01FF DD 46 F3      [19]  374 	ld	b,-13 (ix)
   0202 69            [ 4]  375 	ld	l, c
   0203 60            [ 4]  376 	ld	h, b
   0204 29            [11]  377 	add	hl, hl
   0205 29            [11]  378 	add	hl, hl
   0206 09            [11]  379 	add	hl, bc
   0207 29            [11]  380 	add	hl, hl
   0208 29            [11]  381 	add	hl, hl
   0209 29            [11]  382 	add	hl, hl
   020A 29            [11]  383 	add	hl, hl
   020B EB            [ 4]  384 	ex	de,hl
                            385 ;src/pathfinding.c:100: setBit(sol_matriz, ((y-ORIGEN_MAPA_Y)-2) * 40*2 + x, 1);
   020C DD 4E FA      [19]  386 	ld	c,-6 (ix)
   020F DD 46 FB      [19]  387 	ld	b,-5 (ix)
   0212 69            [ 4]  388 	ld	l, c
   0213 60            [ 4]  389 	ld	h, b
   0214 29            [11]  390 	add	hl, hl
   0215 29            [11]  391 	add	hl, hl
   0216 09            [11]  392 	add	hl, bc
   0217 29            [11]  393 	add	hl, hl
   0218 29            [11]  394 	add	hl, hl
   0219 29            [11]  395 	add	hl, hl
   021A 29            [11]  396 	add	hl, hl
   021B 4D            [ 4]  397 	ld	c,l
   021C 44            [ 4]  398 	ld	b,h
                            399 ;src/pathfinding.c:103: setBit(sol_matriz, ((y-ORIGEN_MAPA_Y)+2) * 40*2 + x, 1);
   021D D5            [11]  400 	push	de
   021E DD 5E F0      [19]  401 	ld	e,-16 (ix)
   0221 DD 56 F1      [19]  402 	ld	d,-15 (ix)
   0224 6B            [ 4]  403 	ld	l, e
   0225 62            [ 4]  404 	ld	h, d
   0226 29            [11]  405 	add	hl, hl
   0227 29            [11]  406 	add	hl, hl
   0228 19            [11]  407 	add	hl, de
   0229 29            [11]  408 	add	hl, hl
   022A 29            [11]  409 	add	hl, hl
   022B 29            [11]  410 	add	hl, hl
   022C 29            [11]  411 	add	hl, hl
   022D D1            [10]  412 	pop	de
                            413 ;src/pathfinding.c:85: setBit(sol_matriz, (y-ORIGEN_MAPA_Y) * 40*2 + (x-1), 1);
   022E DD 7E EE      [19]  414 	ld	a,-18 (ix)
   0231 83            [ 4]  415 	add	a, e
   0232 DD 77 F4      [19]  416 	ld	-12 (ix),a
   0235 DD 7E EF      [19]  417 	ld	a,-17 (ix)
   0238 8A            [ 4]  418 	adc	a, d
   0239 DD 77 F5      [19]  419 	ld	-11 (ix),a
                            420 ;src/pathfinding.c:87: setBit(sol_matriz, (y-ORIGEN_MAPA_Y) * 40*2 + (x+1), 1);
   023C DD 7E EA      [19]  421 	ld	a,-22 (ix)
   023F 83            [ 4]  422 	add	a, e
   0240 DD 77 E8      [19]  423 	ld	-24 (ix),a
   0243 DD 7E EB      [19]  424 	ld	a,-21 (ix)
   0246 8A            [ 4]  425 	adc	a, d
   0247 DD 77 E9      [19]  426 	ld	-23 (ix),a
                            427 ;src/pathfinding.c:100: setBit(sol_matriz, ((y-ORIGEN_MAPA_Y)-2) * 40*2 + x, 1);
   024A DD 7E E6      [19]  428 	ld	a,-26 (ix)
   024D 81            [ 4]  429 	add	a, c
   024E DD 77 EC      [19]  430 	ld	-20 (ix),a
   0251 DD 7E E7      [19]  431 	ld	a,-25 (ix)
   0254 88            [ 4]  432 	adc	a, b
   0255 DD 77 ED      [19]  433 	ld	-19 (ix),a
                            434 ;src/pathfinding.c:103: setBit(sol_matriz, ((y-ORIGEN_MAPA_Y)+2) * 40*2 + x, 1);
   0258 DD 7E E6      [19]  435 	ld	a,-26 (ix)
   025B 85            [ 4]  436 	add	a, l
   025C DD 77 FC      [19]  437 	ld	-4 (ix),a
   025F DD 7E E7      [19]  438 	ld	a,-25 (ix)
   0262 8C            [ 4]  439 	adc	a, h
   0263 DD 77 FD      [19]  440 	ld	-3 (ix),a
                            441 ;src/pathfinding.c:82: if(x == f_x){
   0266 DD 7E 04      [19]  442 	ld	a,4 (ix)
   0269 DD 96 08      [19]  443 	sub	a, 8 (ix)
   026C 20 5C         [12]  444 	jr	NZ,00130$
                            445 ;src/pathfinding.c:84: if(s_x < x){
   026E DD 7E 06      [19]  446 	ld	a,6 (ix)
   0271 DD 96 04      [19]  447 	sub	a, 4 (ix)
   0274 30 19         [12]  448 	jr	NC,00102$
                            449 ;src/pathfinding.c:85: setBit(sol_matriz, (y-ORIGEN_MAPA_Y) * 40*2 + (x-1), 1);
   0276 21 01 00      [10]  450 	ld	hl,#0x0001
   0279 E5            [11]  451 	push	hl
   027A DD 6E F4      [19]  452 	ld	l,-12 (ix)
   027D DD 66 F5      [19]  453 	ld	h,-11 (ix)
   0280 E5            [11]  454 	push	hl
   0281 21r01r00      [10]  455 	ld	hl,#_sol_matriz
   0284 E5            [11]  456 	push	hl
   0285 CDr9Br00      [17]  457 	call	_setBit
   0288 21 06 00      [10]  458 	ld	hl,#6
   028B 39            [11]  459 	add	hl,sp
   028C F9            [ 6]  460 	ld	sp,hl
   028D 18 17         [12]  461 	jr	00103$
   028F                     462 00102$:
                            463 ;src/pathfinding.c:87: setBit(sol_matriz, (y-ORIGEN_MAPA_Y) * 40*2 + (x+1), 1);
   028F 21 01 00      [10]  464 	ld	hl,#0x0001
   0292 E5            [11]  465 	push	hl
   0293 DD 6E E8      [19]  466 	ld	l,-24 (ix)
   0296 DD 66 E9      [19]  467 	ld	h,-23 (ix)
   0299 E5            [11]  468 	push	hl
   029A 21r01r00      [10]  469 	ld	hl,#_sol_matriz
   029D E5            [11]  470 	push	hl
   029E CDr9Br00      [17]  471 	call	_setBit
   02A1 21 06 00      [10]  472 	ld	hl,#6
   02A4 39            [11]  473 	add	hl,sp
   02A5 F9            [ 6]  474 	ld	sp,hl
   02A6                     475 00103$:
                            476 ;src/pathfinding.c:91: if(y < f_y)
   02A6 DD 7E 05      [19]  477 	ld	a,5 (ix)
   02A9 DD 96 09      [19]  478 	sub	a, 9 (ix)
   02AC 30 08         [12]  479 	jr	NC,00105$
                            480 ;src/pathfinding.c:92: heu_abajo = -1;
   02AE DD 36 E0 FF   [19]  481 	ld	-32 (ix),#0xFF
   02B2 DD 36 E1 FF   [19]  482 	ld	-31 (ix),#0xFF
   02B6                     483 00105$:
                            484 ;src/pathfinding.c:94: if(y > f_y)
   02B6 DD 7E 09      [19]  485 	ld	a,9 (ix)
   02B9 DD 96 05      [19]  486 	sub	a, 5 (ix)
   02BC D2r7Cr03      [10]  487 	jp	NC,00131$
                            488 ;src/pathfinding.c:95: heu_arriba = -1;
   02BF DD 36 DC FF   [19]  489 	ld	-36 (ix),#0xFF
   02C3 DD 36 DD FF   [19]  490 	ld	-35 (ix),#0xFF
   02C7 C3r7Cr03      [10]  491 	jp	00131$
   02CA                     492 00130$:
                            493 ;src/pathfinding.c:97: }else if(y == f_y){
   02CA DD 7E 05      [19]  494 	ld	a,5 (ix)
   02CD DD 96 09      [19]  495 	sub	a, 9 (ix)
   02D0 20 56         [12]  496 	jr	NZ,00127$
                            497 ;src/pathfinding.c:99: if(s_y < y){
   02D2 DD 7E 07      [19]  498 	ld	a,7 (ix)
   02D5 DD 96 05      [19]  499 	sub	a, 5 (ix)
   02D8 30 19         [12]  500 	jr	NC,00109$
                            501 ;src/pathfinding.c:100: setBit(sol_matriz, ((y-ORIGEN_MAPA_Y)-2) * 40*2 + x, 1);
   02DA 21 01 00      [10]  502 	ld	hl,#0x0001
   02DD E5            [11]  503 	push	hl
   02DE DD 6E EC      [19]  504 	ld	l,-20 (ix)
   02E1 DD 66 ED      [19]  505 	ld	h,-19 (ix)
   02E4 E5            [11]  506 	push	hl
   02E5 21r01r00      [10]  507 	ld	hl,#_sol_matriz
   02E8 E5            [11]  508 	push	hl
   02E9 CDr9Br00      [17]  509 	call	_setBit
   02EC 21 06 00      [10]  510 	ld	hl,#6
   02EF 39            [11]  511 	add	hl,sp
   02F0 F9            [ 6]  512 	ld	sp,hl
   02F1 18 17         [12]  513 	jr	00110$
   02F3                     514 00109$:
                            515 ;src/pathfinding.c:103: setBit(sol_matriz, ((y-ORIGEN_MAPA_Y)+2) * 40*2 + x, 1);
   02F3 21 01 00      [10]  516 	ld	hl,#0x0001
   02F6 E5            [11]  517 	push	hl
   02F7 DD 6E FC      [19]  518 	ld	l,-4 (ix)
   02FA DD 66 FD      [19]  519 	ld	h,-3 (ix)
   02FD E5            [11]  520 	push	hl
   02FE 21r01r00      [10]  521 	ld	hl,#_sol_matriz
   0301 E5            [11]  522 	push	hl
   0302 CDr9Br00      [17]  523 	call	_setBit
   0305 21 06 00      [10]  524 	ld	hl,#6
   0308 39            [11]  525 	add	hl,sp
   0309 F9            [ 6]  526 	ld	sp,hl
   030A                     527 00110$:
                            528 ;src/pathfinding.c:106: if(x < f_x)
   030A DD 7E 04      [19]  529 	ld	a,4 (ix)
   030D DD 96 08      [19]  530 	sub	a, 8 (ix)
   0310 30 08         [12]  531 	jr	NC,00112$
                            532 ;src/pathfinding.c:107: heu_derecha = -1;
   0312 DD 36 D6 FF   [19]  533 	ld	-42 (ix),#0xFF
   0316 DD 36 D7 FF   [19]  534 	ld	-41 (ix),#0xFF
   031A                     535 00112$:
                            536 ;src/pathfinding.c:108: if(x > f_x)
   031A DD 7E 08      [19]  537 	ld	a,8 (ix)
   031D DD 96 04      [19]  538 	sub	a, 4 (ix)
   0320 30 5A         [12]  539 	jr	NC,00131$
                            540 ;src/pathfinding.c:109: heu_izquierda = -1;
   0322 21 FF FF      [10]  541 	ld	hl,#0xFFFF
   0325 E3            [19]  542 	ex	(sp), hl
   0326 18 54         [12]  543 	jr	00131$
   0328                     544 00127$:
                            545 ;src/pathfinding.c:115: if(s_y < f_y)
   0328 DD 7E 07      [19]  546 	ld	a,7 (ix)
   032B DD 96 09      [19]  547 	sub	a, 9 (ix)
   032E 3E 00         [ 7]  548 	ld	a,#0x00
   0330 17            [ 4]  549 	rla
   0331 4F            [ 4]  550 	ld	c,a
                            551 ;src/pathfinding.c:114: if(s_x < f_x){
   0332 DD 7E 06      [19]  552 	ld	a,6 (ix)
   0335 DD 96 08      [19]  553 	sub	a, 8 (ix)
   0338 30 20         [12]  554 	jr	NC,00124$
                            555 ;src/pathfinding.c:115: if(s_y < f_y)
   033A 79            [ 4]  556 	ld	a,c
   033B B7            [ 4]  557 	or	a, a
   033C 28 0A         [12]  558 	jr	Z,00116$
                            559 ;src/pathfinding.c:116: heu_abajo = -1;
   033E DD 36 E0 FF   [19]  560 	ld	-32 (ix),#0xFF
   0342 DD 36 E1 FF   [19]  561 	ld	-31 (ix),#0xFF
   0346 18 08         [12]  562 	jr	00117$
   0348                     563 00116$:
                            564 ;src/pathfinding.c:118: heu_arriba = -1;
   0348 DD 36 DC FF   [19]  565 	ld	-36 (ix),#0xFF
   034C DD 36 DD FF   [19]  566 	ld	-35 (ix),#0xFF
   0350                     567 00117$:
                            568 ;src/pathfinding.c:120: heu_derecha = -1;
   0350 DD 36 D6 FF   [19]  569 	ld	-42 (ix),#0xFF
   0354 DD 36 D7 FF   [19]  570 	ld	-41 (ix),#0xFF
   0358 18 22         [12]  571 	jr	00131$
   035A                     572 00124$:
                            573 ;src/pathfinding.c:121: }else if(s_x > f_x){
   035A DD 7E 08      [19]  574 	ld	a,8 (ix)
   035D DD 96 06      [19]  575 	sub	a, 6 (ix)
   0360 30 1A         [12]  576 	jr	NC,00131$
                            577 ;src/pathfinding.c:123: if(s_y < f_y)
   0362 79            [ 4]  578 	ld	a,c
   0363 B7            [ 4]  579 	or	a, a
   0364 28 0A         [12]  580 	jr	Z,00119$
                            581 ;src/pathfinding.c:124: heu_abajo = -1;
   0366 DD 36 E0 FF   [19]  582 	ld	-32 (ix),#0xFF
   036A DD 36 E1 FF   [19]  583 	ld	-31 (ix),#0xFF
   036E 18 08         [12]  584 	jr	00120$
   0370                     585 00119$:
                            586 ;src/pathfinding.c:126: heu_arriba = -1;
   0370 DD 36 DC FF   [19]  587 	ld	-36 (ix),#0xFF
   0374 DD 36 DD FF   [19]  588 	ld	-35 (ix),#0xFF
   0378                     589 00120$:
                            590 ;src/pathfinding.c:128: heu_izquierda = -1;
   0378 21 FF FF      [10]  591 	ld	hl,#0xFFFF
   037B E3            [19]  592 	ex	(sp), hl
   037C                     593 00131$:
                            594 ;src/pathfinding.c:133: if(  *(matriz + (( (y - 2) - ORIGEN_MAPA_Y)/4)*40 + x/2) <=2 && getBit(sol_matriz, ((y-2)-ORIGEN_MAPA_Y) * 40*2 + x) != 1){
   037C DD 7E FA      [19]  595 	ld	a,-6 (ix)
   037F DD 77 F8      [19]  596 	ld	-8 (ix),a
   0382 DD 7E FB      [19]  597 	ld	a,-5 (ix)
   0385 DD 77 F9      [19]  598 	ld	-7 (ix),a
   0388 DD CB FB 7E   [20]  599 	bit	7, -5 (ix)
   038C 28 10         [12]  600 	jr	Z,00176$
   038E DD 7E F6      [19]  601 	ld	a,-10 (ix)
   0391 C6 E9         [ 7]  602 	add	a, #0xE9
   0393 DD 77 F8      [19]  603 	ld	-8 (ix),a
   0396 DD 7E F7      [19]  604 	ld	a,-9 (ix)
   0399 CE FF         [ 7]  605 	adc	a, #0xFF
   039B DD 77 F9      [19]  606 	ld	-7 (ix),a
   039E                     607 00176$:
   039E DD CB F9 2E   [23]  608 	sra	-7 (ix)
   03A2 DD CB F8 1E   [23]  609 	rr	-8 (ix)
   03A6 DD CB F9 2E   [23]  610 	sra	-7 (ix)
   03AA DD CB F8 1E   [23]  611 	rr	-8 (ix)
   03AE DD 4E F8      [19]  612 	ld	c,-8 (ix)
   03B1 DD 46 F9      [19]  613 	ld	b,-7 (ix)
   03B4 69            [ 4]  614 	ld	l, c
   03B5 60            [ 4]  615 	ld	h, b
   03B6 29            [11]  616 	add	hl, hl
   03B7 29            [11]  617 	add	hl, hl
   03B8 09            [11]  618 	add	hl, bc
   03B9 29            [11]  619 	add	hl, hl
   03BA 29            [11]  620 	add	hl, hl
   03BB 29            [11]  621 	add	hl, hl
   03BC DD 75 F8      [19]  622 	ld	-8 (ix),l
   03BF DD 74 F9      [19]  623 	ld	-7 (ix),h
   03C2 DD 7E 0A      [19]  624 	ld	a,10 (ix)
   03C5 DD 86 F8      [19]  625 	add	a, -8 (ix)
   03C8 DD 77 F8      [19]  626 	ld	-8 (ix),a
   03CB DD 7E 0B      [19]  627 	ld	a,11 (ix)
   03CE DD 8E F9      [19]  628 	adc	a, -7 (ix)
   03D1 DD 77 F9      [19]  629 	ld	-7 (ix),a
   03D4 DD 7E 04      [19]  630 	ld	a,4 (ix)
   03D7 CB 3F         [ 8]  631 	srl	a
   03D9 DD 77 FA      [19]  632 	ld	-6 (ix), a
   03DC DD 86 F8      [19]  633 	add	a, -8 (ix)
   03DF DD 77 F8      [19]  634 	ld	-8 (ix),a
   03E2 3E 00         [ 7]  635 	ld	a,#0x00
   03E4 DD 8E F9      [19]  636 	adc	a, -7 (ix)
   03E7 DD 77 F9      [19]  637 	ld	-7 (ix),a
   03EA DD 6E F8      [19]  638 	ld	l,-8 (ix)
   03ED DD 66 F9      [19]  639 	ld	h,-7 (ix)
   03F0 7E            [ 7]  640 	ld	a,(hl)
   03F1 DD 77 F8      [19]  641 	ld	-8 (ix),a
                            642 ;src/pathfinding.c:134: dist1 = abs(f_x - x) + abs(f_y - (y-2)) + heu_arriba;
   03F4 DD 7E 08      [19]  643 	ld	a,8 (ix)
   03F7 DD 77 E4      [19]  644 	ld	-28 (ix),a
   03FA DD 36 E5 00   [19]  645 	ld	-27 (ix),#0x00
   03FE DD 7E 09      [19]  646 	ld	a,9 (ix)
   0401 DD 77 FE      [19]  647 	ld	-2 (ix),a
   0404 DD 36 FF 00   [19]  648 	ld	-1 (ix),#0x00
   0408 DD 7E E4      [19]  649 	ld	a,-28 (ix)
   040B DD 96 E6      [19]  650 	sub	a, -26 (ix)
   040E DD 77 E2      [19]  651 	ld	-30 (ix),a
   0411 DD 7E E5      [19]  652 	ld	a,-27 (ix)
   0414 DD 9E E7      [19]  653 	sbc	a, -25 (ix)
   0417 DD 77 E3      [19]  654 	ld	-29 (ix),a
                            655 ;src/pathfinding.c:133: if(  *(matriz + (( (y - 2) - ORIGEN_MAPA_Y)/4)*40 + x/2) <=2 && getBit(sol_matriz, ((y-2)-ORIGEN_MAPA_Y) * 40*2 + x) != 1){
   041A 3E 02         [ 7]  656 	ld	a,#0x02
   041C DD 96 F8      [19]  657 	sub	a, -8 (ix)
   041F DArADr04      [10]  658 	jp	C,00133$
   0422 DD 6E EC      [19]  659 	ld	l,-20 (ix)
   0425 DD 66 ED      [19]  660 	ld	h,-19 (ix)
   0428 E5            [11]  661 	push	hl
   0429 21r01r00      [10]  662 	ld	hl,#_sol_matriz
   042C E5            [11]  663 	push	hl
   042D CDr50r00      [17]  664 	call	_getBit
   0430 F1            [10]  665 	pop	af
   0431 F1            [10]  666 	pop	af
   0432 2D            [ 4]  667 	dec	l
   0433 28 78         [12]  668 	jr	Z,00133$
                            669 ;src/pathfinding.c:134: dist1 = abs(f_x - x) + abs(f_y - (y-2)) + heu_arriba;
   0435 DD 6E E2      [19]  670 	ld	l,-30 (ix)
   0438 DD 66 E3      [19]  671 	ld	h,-29 (ix)
   043B E5            [11]  672 	push	hl
   043C CDr00r00      [17]  673 	call	_abs
   043F F1            [10]  674 	pop	af
   0440 DD 74 F9      [19]  675 	ld	-7 (ix),h
   0443 DD 75 F8      [19]  676 	ld	-8 (ix),l
   0446 DD 7E F6      [19]  677 	ld	a,-10 (ix)
   0449 C6 FE         [ 7]  678 	add	a,#0xFE
   044B DD 77 EC      [19]  679 	ld	-20 (ix),a
   044E DD 7E F7      [19]  680 	ld	a,-9 (ix)
   0451 CE FF         [ 7]  681 	adc	a,#0xFF
   0453 DD 77 ED      [19]  682 	ld	-19 (ix),a
   0456 DD 7E FE      [19]  683 	ld	a,-2 (ix)
   0459 DD 96 EC      [19]  684 	sub	a, -20 (ix)
   045C DD 77 EC      [19]  685 	ld	-20 (ix),a
   045F DD 7E FF      [19]  686 	ld	a,-1 (ix)
   0462 DD 9E ED      [19]  687 	sbc	a, -19 (ix)
   0465 DD 77 ED      [19]  688 	ld	-19 (ix),a
   0468 DD 6E EC      [19]  689 	ld	l,-20 (ix)
   046B DD 66 ED      [19]  690 	ld	h,-19 (ix)
   046E E5            [11]  691 	push	hl
   046F CDr00r00      [17]  692 	call	_abs
   0472 F1            [10]  693 	pop	af
   0473 DD 74 ED      [19]  694 	ld	-19 (ix),h
   0476 DD 75 EC      [19]  695 	ld	-20 (ix),l
   0479 DD 7E F8      [19]  696 	ld	a,-8 (ix)
   047C DD 86 EC      [19]  697 	add	a, -20 (ix)
   047F DD 77 F8      [19]  698 	ld	-8 (ix),a
   0482 DD 7E F9      [19]  699 	ld	a,-7 (ix)
   0485 DD 8E ED      [19]  700 	adc	a, -19 (ix)
   0488 DD 77 F9      [19]  701 	ld	-7 (ix),a
   048B DD 7E F8      [19]  702 	ld	a,-8 (ix)
   048E DD 86 DC      [19]  703 	add	a, -36 (ix)
   0491 DD 77 F8      [19]  704 	ld	-8 (ix),a
   0494 DD 7E F9      [19]  705 	ld	a,-7 (ix)
   0497 DD 8E DD      [19]  706 	adc	a, -35 (ix)
   049A DD 77 F9      [19]  707 	ld	-7 (ix),a
   049D DD 7E F8      [19]  708 	ld	a,-8 (ix)
   04A0 DD 77 D8      [19]  709 	ld	-40 (ix),a
   04A3 DD 7E F9      [19]  710 	ld	a,-7 (ix)
   04A6 DD 77 D9      [19]  711 	ld	-39 (ix),a
                            712 ;src/pathfinding.c:135: resultado = 0;
   04A9 DD 36 D5 00   [19]  713 	ld	-43 (ix),#0x00
   04AD                     714 00133$:
                            715 ;src/pathfinding.c:138: if(  *(matriz + (( (y + 2) - ORIGEN_MAPA_Y)/4)*40 + x/2) <=2 && getBit(sol_matriz, ((y+2)-ORIGEN_MAPA_Y) * 40*2 + x) != 1){
   04AD DD 7E F0      [19]  716 	ld	a,-16 (ix)
   04B0 DD 77 F8      [19]  717 	ld	-8 (ix),a
   04B3 DD 7E F1      [19]  718 	ld	a,-15 (ix)
   04B6 DD 77 F9      [19]  719 	ld	-7 (ix),a
   04B9 DD CB F1 7E   [20]  720 	bit	7, -15 (ix)
   04BD 28 10         [12]  721 	jr	Z,00177$
   04BF DD 7E F6      [19]  722 	ld	a,-10 (ix)
   04C2 C6 ED         [ 7]  723 	add	a, #0xED
   04C4 DD 77 F8      [19]  724 	ld	-8 (ix),a
   04C7 DD 7E F7      [19]  725 	ld	a,-9 (ix)
   04CA CE FF         [ 7]  726 	adc	a, #0xFF
   04CC DD 77 F9      [19]  727 	ld	-7 (ix),a
   04CF                     728 00177$:
   04CF DD CB F9 2E   [23]  729 	sra	-7 (ix)
   04D3 DD CB F8 1E   [23]  730 	rr	-8 (ix)
   04D7 DD CB F9 2E   [23]  731 	sra	-7 (ix)
   04DB DD CB F8 1E   [23]  732 	rr	-8 (ix)
   04DF DD 4E F8      [19]  733 	ld	c,-8 (ix)
   04E2 DD 46 F9      [19]  734 	ld	b,-7 (ix)
   04E5 69            [ 4]  735 	ld	l, c
   04E6 60            [ 4]  736 	ld	h, b
   04E7 29            [11]  737 	add	hl, hl
   04E8 29            [11]  738 	add	hl, hl
   04E9 09            [11]  739 	add	hl, bc
   04EA 29            [11]  740 	add	hl, hl
   04EB 29            [11]  741 	add	hl, hl
   04EC 29            [11]  742 	add	hl, hl
   04ED DD 75 F8      [19]  743 	ld	-8 (ix),l
   04F0 DD 74 F9      [19]  744 	ld	-7 (ix),h
   04F3 DD 7E 0A      [19]  745 	ld	a,10 (ix)
   04F6 DD 86 F8      [19]  746 	add	a, -8 (ix)
   04F9 DD 77 F8      [19]  747 	ld	-8 (ix),a
   04FC DD 7E 0B      [19]  748 	ld	a,11 (ix)
   04FF DD 8E F9      [19]  749 	adc	a, -7 (ix)
   0502 DD 77 F9      [19]  750 	ld	-7 (ix),a
   0505 DD 7E F8      [19]  751 	ld	a,-8 (ix)
   0508 DD 86 FA      [19]  752 	add	a, -6 (ix)
   050B DD 77 F8      [19]  753 	ld	-8 (ix),a
   050E DD 7E F9      [19]  754 	ld	a,-7 (ix)
   0511 CE 00         [ 7]  755 	adc	a, #0x00
   0513 DD 77 F9      [19]  756 	ld	-7 (ix),a
   0516 DD 6E F8      [19]  757 	ld	l,-8 (ix)
   0519 DD 66 F9      [19]  758 	ld	h,-7 (ix)
   051C 7E            [ 7]  759 	ld	a,(hl)
   051D DD 77 F8      [19]  760 	ld	-8 (ix),a
   0520 3E 02         [ 7]  761 	ld	a,#0x02
   0522 DD 96 F8      [19]  762 	sub	a, -8 (ix)
   0525 DArD4r05      [10]  763 	jp	C,00141$
   0528 DD 6E FC      [19]  764 	ld	l,-4 (ix)
   052B DD 66 FD      [19]  765 	ld	h,-3 (ix)
   052E E5            [11]  766 	push	hl
   052F 21r01r00      [10]  767 	ld	hl,#_sol_matriz
   0532 E5            [11]  768 	push	hl
   0533 CDr50r00      [17]  769 	call	_getBit
   0536 F1            [10]  770 	pop	af
   0537 F1            [10]  771 	pop	af
   0538 2D            [ 4]  772 	dec	l
   0539 CArD4r05      [10]  773 	jp	Z,00141$
                            774 ;src/pathfinding.c:139: dist2 = abs(f_x - x) + abs(f_y - (y+2)) + heu_abajo;
   053C DD 6E E2      [19]  775 	ld	l,-30 (ix)
   053F DD 66 E3      [19]  776 	ld	h,-29 (ix)
   0542 E5            [11]  777 	push	hl
   0543 CDr00r00      [17]  778 	call	_abs
   0546 F1            [10]  779 	pop	af
   0547 DD 74 E3      [19]  780 	ld	-29 (ix),h
   054A DD 75 E2      [19]  781 	ld	-30 (ix),l
   054D DD 7E F6      [19]  782 	ld	a,-10 (ix)
   0550 C6 02         [ 7]  783 	add	a, #0x02
   0552 DD 77 F8      [19]  784 	ld	-8 (ix),a
   0555 DD 7E F7      [19]  785 	ld	a,-9 (ix)
   0558 CE 00         [ 7]  786 	adc	a, #0x00
   055A DD 77 F9      [19]  787 	ld	-7 (ix),a
   055D DD 7E FE      [19]  788 	ld	a,-2 (ix)
   0560 DD 96 F8      [19]  789 	sub	a, -8 (ix)
   0563 DD 77 F8      [19]  790 	ld	-8 (ix),a
   0566 DD 7E FF      [19]  791 	ld	a,-1 (ix)
   0569 DD 9E F9      [19]  792 	sbc	a, -7 (ix)
   056C DD 77 F9      [19]  793 	ld	-7 (ix),a
   056F DD 6E F8      [19]  794 	ld	l,-8 (ix)
   0572 DD 66 F9      [19]  795 	ld	h,-7 (ix)
   0575 E5            [11]  796 	push	hl
   0576 CDr00r00      [17]  797 	call	_abs
   0579 F1            [10]  798 	pop	af
   057A DD 74 F9      [19]  799 	ld	-7 (ix),h
   057D DD 75 F8      [19]  800 	ld	-8 (ix),l
   0580 DD 7E E2      [19]  801 	ld	a,-30 (ix)
   0583 DD 86 F8      [19]  802 	add	a, -8 (ix)
   0586 DD 77 E2      [19]  803 	ld	-30 (ix),a
   0589 DD 7E E3      [19]  804 	ld	a,-29 (ix)
   058C DD 8E F9      [19]  805 	adc	a, -7 (ix)
   058F DD 77 E3      [19]  806 	ld	-29 (ix),a
   0592 DD 7E E0      [19]  807 	ld	a,-32 (ix)
   0595 DD 86 E2      [19]  808 	add	a, -30 (ix)
   0598 DD 77 E2      [19]  809 	ld	-30 (ix),a
   059B DD 7E E1      [19]  810 	ld	a,-31 (ix)
   059E DD 8E E3      [19]  811 	adc	a, -29 (ix)
   05A1 DD 77 E3      [19]  812 	ld	-29 (ix),a
   05A4 DD 7E E2      [19]  813 	ld	a,-30 (ix)
   05A7 DD 77 DA      [19]  814 	ld	-38 (ix),a
   05AA DD 7E E3      [19]  815 	ld	a,-29 (ix)
   05AD DD 77 DB      [19]  816 	ld	-37 (ix),a
                            817 ;src/pathfinding.c:140: if(resultado == 0){
   05B0 DD 7E D5      [19]  818 	ld	a,-43 (ix)
   05B3 B7            [ 4]  819 	or	a, a
   05B4 20 1A         [12]  820 	jr	NZ,00138$
                            821 ;src/pathfinding.c:141: if(dist1 > dist2)
   05B6 DD 7E DA      [19]  822 	ld	a,-38 (ix)
   05B9 DD 96 D8      [19]  823 	sub	a, -40 (ix)
   05BC DD 7E DB      [19]  824 	ld	a,-37 (ix)
   05BF DD 9E D9      [19]  825 	sbc	a, -39 (ix)
   05C2 E2rC7r05      [10]  826 	jp	PO, 00340$
   05C5 EE 80         [ 7]  827 	xor	a, #0x80
   05C7                     828 00340$:
   05C7 F2rD4r05      [10]  829 	jp	P,00141$
                            830 ;src/pathfinding.c:142: resultado = 1;	
   05CA DD 36 D5 01   [19]  831 	ld	-43 (ix),#0x01
   05CE 18 04         [12]  832 	jr	00141$
   05D0                     833 00138$:
                            834 ;src/pathfinding.c:144: resultado = 1;
   05D0 DD 36 D5 01   [19]  835 	ld	-43 (ix),#0x01
   05D4                     836 00141$:
                            837 ;src/pathfinding.c:148: if(  *(matriz + ((y-ORIGEN_MAPA_Y)/4)*40 + (x-1)/2) <=2 && getBit(sol_matriz, (y-ORIGEN_MAPA_Y) * 40*2 + (x-1)) != 1){
   05D4 DD 7E F2      [19]  838 	ld	a,-14 (ix)
   05D7 DD 77 E2      [19]  839 	ld	-30 (ix),a
   05DA DD 7E F3      [19]  840 	ld	a,-13 (ix)
   05DD DD 77 E3      [19]  841 	ld	-29 (ix),a
   05E0 DD 7E F3      [19]  842 	ld	a,-13 (ix)
   05E3 07            [ 4]  843 	rlca
   05E4 E6 01         [ 7]  844 	and	a,#0x01
   05E6 DD 77 F8      [19]  845 	ld	-8 (ix),a
   05E9 DD 7E F6      [19]  846 	ld	a,-10 (ix)
   05EC C6 EB         [ 7]  847 	add	a, #0xEB
   05EE DD 77 FC      [19]  848 	ld	-4 (ix),a
   05F1 DD 7E F7      [19]  849 	ld	a,-9 (ix)
   05F4 CE FF         [ 7]  850 	adc	a, #0xFF
   05F6 DD 77 FD      [19]  851 	ld	-3 (ix),a
   05F9 DD 7E F8      [19]  852 	ld	a,-8 (ix)
   05FC B7            [ 4]  853 	or	a, a
   05FD 28 0C         [12]  854 	jr	Z,00178$
   05FF DD 7E FC      [19]  855 	ld	a,-4 (ix)
   0602 DD 77 E2      [19]  856 	ld	-30 (ix),a
   0605 DD 7E FD      [19]  857 	ld	a,-3 (ix)
   0608 DD 77 E3      [19]  858 	ld	-29 (ix),a
   060B                     859 00178$:
   060B DD CB E3 2E   [23]  860 	sra	-29 (ix)
   060F DD CB E2 1E   [23]  861 	rr	-30 (ix)
   0613 DD CB E3 2E   [23]  862 	sra	-29 (ix)
   0617 DD CB E2 1E   [23]  863 	rr	-30 (ix)
   061B DD 4E E2      [19]  864 	ld	c,-30 (ix)
   061E DD 46 E3      [19]  865 	ld	b,-29 (ix)
   0621 69            [ 4]  866 	ld	l, c
   0622 60            [ 4]  867 	ld	h, b
   0623 29            [11]  868 	add	hl, hl
   0624 29            [11]  869 	add	hl, hl
   0625 09            [11]  870 	add	hl, bc
   0626 29            [11]  871 	add	hl, hl
   0627 29            [11]  872 	add	hl, hl
   0628 29            [11]  873 	add	hl, hl
   0629 DD 75 E2      [19]  874 	ld	-30 (ix),l
   062C DD 74 E3      [19]  875 	ld	-29 (ix),h
   062F DD 7E 0A      [19]  876 	ld	a,10 (ix)
   0632 DD 86 E2      [19]  877 	add	a, -30 (ix)
   0635 DD 77 E2      [19]  878 	ld	-30 (ix),a
   0638 DD 7E 0B      [19]  879 	ld	a,11 (ix)
   063B DD 8E E3      [19]  880 	adc	a, -29 (ix)
   063E DD 77 E3      [19]  881 	ld	-29 (ix),a
   0641 DD 7E EE      [19]  882 	ld	a,-18 (ix)
   0644 DD 77 EC      [19]  883 	ld	-20 (ix),a
   0647 DD 7E EF      [19]  884 	ld	a,-17 (ix)
   064A DD 77 ED      [19]  885 	ld	-19 (ix),a
   064D DD CB EF 7E   [20]  886 	bit	7, -17 (ix)
   0651 28 0C         [12]  887 	jr	Z,00179$
   0653 DD 7E E6      [19]  888 	ld	a,-26 (ix)
   0656 DD 77 EC      [19]  889 	ld	-20 (ix),a
   0659 DD 7E E7      [19]  890 	ld	a,-25 (ix)
   065C DD 77 ED      [19]  891 	ld	-19 (ix),a
   065F                     892 00179$:
   065F DD CB ED 2E   [23]  893 	sra	-19 (ix)
   0663 DD CB EC 1E   [23]  894 	rr	-20 (ix)
   0667 DD 7E E2      [19]  895 	ld	a,-30 (ix)
   066A DD 86 EC      [19]  896 	add	a, -20 (ix)
   066D DD 77 E2      [19]  897 	ld	-30 (ix),a
   0670 DD 7E E3      [19]  898 	ld	a,-29 (ix)
   0673 DD 8E ED      [19]  899 	adc	a, -19 (ix)
   0676 DD 77 E3      [19]  900 	ld	-29 (ix),a
   0679 DD 6E E2      [19]  901 	ld	l,-30 (ix)
   067C DD 66 E3      [19]  902 	ld	h,-29 (ix)
   067F 7E            [ 7]  903 	ld	a,(hl)
   0680 DD 77 E2      [19]  904 	ld	-30 (ix),a
                            905 ;src/pathfinding.c:149: dist3 = abs(f_x - (x-1)) + abs(f_y - y) + heu_izquierda;
   0683 DD 7E FE      [19]  906 	ld	a,-2 (ix)
   0686 DD 96 F6      [19]  907 	sub	a, -10 (ix)
   0689 DD 77 FE      [19]  908 	ld	-2 (ix),a
   068C DD 7E FF      [19]  909 	ld	a,-1 (ix)
   068F DD 9E F7      [19]  910 	sbc	a, -9 (ix)
   0692 DD 77 FF      [19]  911 	ld	-1 (ix),a
                            912 ;src/pathfinding.c:148: if(  *(matriz + ((y-ORIGEN_MAPA_Y)/4)*40 + (x-1)/2) <=2 && getBit(sol_matriz, (y-ORIGEN_MAPA_Y) * 40*2 + (x-1)) != 1){
   0695 3E 02         [ 7]  913 	ld	a,#0x02
   0697 DD 96 E2      [19]  914 	sub	a, -30 (ix)
   069A DAr53r07      [10]  915 	jp	C,00154$
   069D DD 6E F4      [19]  916 	ld	l,-12 (ix)
   06A0 DD 66 F5      [19]  917 	ld	h,-11 (ix)
   06A3 E5            [11]  918 	push	hl
   06A4 21r01r00      [10]  919 	ld	hl,#_sol_matriz
   06A7 E5            [11]  920 	push	hl
   06A8 CDr50r00      [17]  921 	call	_getBit
   06AB F1            [10]  922 	pop	af
   06AC F1            [10]  923 	pop	af
   06AD DD 75 E2      [19]  924 	ld	-30 (ix), l
   06B0 7D            [ 4]  925 	ld	a, l
   06B1 3D            [ 4]  926 	dec	a
   06B2 CAr53r07      [10]  927 	jp	Z,00154$
                            928 ;src/pathfinding.c:149: dist3 = abs(f_x - (x-1)) + abs(f_y - y) + heu_izquierda;
   06B5 DD 7E E4      [19]  929 	ld	a,-28 (ix)
   06B8 DD 96 EE      [19]  930 	sub	a, -18 (ix)
   06BB 4F            [ 4]  931 	ld	c,a
   06BC DD 7E E5      [19]  932 	ld	a,-27 (ix)
   06BF DD 9E EF      [19]  933 	sbc	a, -17 (ix)
   06C2 47            [ 4]  934 	ld	b,a
   06C3 C5            [11]  935 	push	bc
   06C4 CDr00r00      [17]  936 	call	_abs
   06C7 F1            [10]  937 	pop	af
   06C8 DD 74 E3      [19]  938 	ld	-29 (ix),h
   06CB DD 75 E2      [19]  939 	ld	-30 (ix),l
   06CE DD 6E FE      [19]  940 	ld	l,-2 (ix)
   06D1 DD 66 FF      [19]  941 	ld	h,-1 (ix)
   06D4 E5            [11]  942 	push	hl
   06D5 CDr00r00      [17]  943 	call	_abs
   06D8 F1            [10]  944 	pop	af
   06D9 DD 74 ED      [19]  945 	ld	-19 (ix),h
   06DC DD 75 EC      [19]  946 	ld	-20 (ix),l
   06DF DD 7E E2      [19]  947 	ld	a,-30 (ix)
   06E2 DD 86 EC      [19]  948 	add	a, -20 (ix)
   06E5 DD 77 E2      [19]  949 	ld	-30 (ix),a
   06E8 DD 7E E3      [19]  950 	ld	a,-29 (ix)
   06EB DD 8E ED      [19]  951 	adc	a, -19 (ix)
   06EE DD 77 E3      [19]  952 	ld	-29 (ix),a
   06F1 DD 7E D1      [19]  953 	ld	a,-47 (ix)
   06F4 DD 86 E2      [19]  954 	add	a, -30 (ix)
   06F7 DD 77 E2      [19]  955 	ld	-30 (ix),a
   06FA DD 7E D2      [19]  956 	ld	a,-46 (ix)
   06FD DD 8E E3      [19]  957 	adc	a, -29 (ix)
   0700 DD 77 E3      [19]  958 	ld	-29 (ix),a
   0703 DD 7E E2      [19]  959 	ld	a,-30 (ix)
   0706 DD 77 DE      [19]  960 	ld	-34 (ix),a
   0709 DD 7E E3      [19]  961 	ld	a,-29 (ix)
   070C DD 77 DF      [19]  962 	ld	-33 (ix),a
                            963 ;src/pathfinding.c:150: if(resultado == 0){
   070F DD 7E D5      [19]  964 	ld	a,-43 (ix)
   0712 B7            [ 4]  965 	or	a, a
   0713 20 1A         [12]  966 	jr	NZ,00151$
                            967 ;src/pathfinding.c:151: if(dist1 >= dist3)
   0715 DD 7E D8      [19]  968 	ld	a,-40 (ix)
   0718 DD 96 DE      [19]  969 	sub	a, -34 (ix)
   071B DD 7E D9      [19]  970 	ld	a,-39 (ix)
   071E DD 9E DF      [19]  971 	sbc	a, -33 (ix)
   0721 E2r26r07      [10]  972 	jp	PO, 00342$
   0724 EE 80         [ 7]  973 	xor	a, #0x80
   0726                     974 00342$:
   0726 FAr53r07      [10]  975 	jp	M,00154$
                            976 ;src/pathfinding.c:152: resultado = 2;
   0729 DD 36 D5 02   [19]  977 	ld	-43 (ix),#0x02
   072D 18 24         [12]  978 	jr	00154$
   072F                     979 00151$:
                            980 ;src/pathfinding.c:153: }else if(resultado == 1){
   072F DD 7E D5      [19]  981 	ld	a,-43 (ix)
   0732 3D            [ 4]  982 	dec	a
   0733 20 1A         [12]  983 	jr	NZ,00148$
                            984 ;src/pathfinding.c:154: if(dist2 >= dist3)
   0735 DD 7E DA      [19]  985 	ld	a,-38 (ix)
   0738 DD 96 DE      [19]  986 	sub	a, -34 (ix)
   073B DD 7E DB      [19]  987 	ld	a,-37 (ix)
   073E DD 9E DF      [19]  988 	sbc	a, -33 (ix)
   0741 E2r46r07      [10]  989 	jp	PO, 00345$
   0744 EE 80         [ 7]  990 	xor	a, #0x80
   0746                     991 00345$:
   0746 FAr53r07      [10]  992 	jp	M,00154$
                            993 ;src/pathfinding.c:155: resultado = 2;
   0749 DD 36 D5 02   [19]  994 	ld	-43 (ix),#0x02
   074D 18 04         [12]  995 	jr	00154$
   074F                     996 00148$:
                            997 ;src/pathfinding.c:157: resultado = 2;
   074F DD 36 D5 02   [19]  998 	ld	-43 (ix),#0x02
   0753                     999 00154$:
                           1000 ;src/pathfinding.c:161: if(  *(matriz + ((y - ORIGEN_MAPA_Y)/4)*40 + (x+1)/2)  <=2 && getBit(sol_matriz, (y-ORIGEN_MAPA_Y) * 40*2 + (x+1)) != 1){
   0753 DD 7E F2      [19] 1001 	ld	a,-14 (ix)
   0756 DD 77 E2      [19] 1002 	ld	-30 (ix),a
   0759 DD 7E F3      [19] 1003 	ld	a,-13 (ix)
   075C DD 77 E3      [19] 1004 	ld	-29 (ix),a
   075F DD 7E F8      [19] 1005 	ld	a,-8 (ix)
   0762 B7            [ 4] 1006 	or	a, a
   0763 28 0C         [12] 1007 	jr	Z,00180$
   0765 DD 7E FC      [19] 1008 	ld	a,-4 (ix)
   0768 DD 77 E2      [19] 1009 	ld	-30 (ix),a
   076B DD 7E FD      [19] 1010 	ld	a,-3 (ix)
   076E DD 77 E3      [19] 1011 	ld	-29 (ix),a
   0771                    1012 00180$:
   0771 DD CB E3 2E   [23] 1013 	sra	-29 (ix)
   0775 DD CB E2 1E   [23] 1014 	rr	-30 (ix)
   0779 DD CB E3 2E   [23] 1015 	sra	-29 (ix)
   077D DD CB E2 1E   [23] 1016 	rr	-30 (ix)
   0781 DD 4E E2      [19] 1017 	ld	c,-30 (ix)
   0784 DD 46 E3      [19] 1018 	ld	b,-29 (ix)
   0787 69            [ 4] 1019 	ld	l, c
   0788 60            [ 4] 1020 	ld	h, b
   0789 29            [11] 1021 	add	hl, hl
   078A 29            [11] 1022 	add	hl, hl
   078B 09            [11] 1023 	add	hl, bc
   078C 29            [11] 1024 	add	hl, hl
   078D 29            [11] 1025 	add	hl, hl
   078E 29            [11] 1026 	add	hl, hl
   078F DD 75 E2      [19] 1027 	ld	-30 (ix),l
   0792 DD 74 E3      [19] 1028 	ld	-29 (ix),h
   0795 DD 7E 0A      [19] 1029 	ld	a,10 (ix)
   0798 DD 86 E2      [19] 1030 	add	a, -30 (ix)
   079B DD 77 E2      [19] 1031 	ld	-30 (ix),a
   079E DD 7E 0B      [19] 1032 	ld	a,11 (ix)
   07A1 DD 8E E3      [19] 1033 	adc	a, -29 (ix)
   07A4 DD 77 E3      [19] 1034 	ld	-29 (ix),a
   07A7 DD 7E EA      [19] 1035 	ld	a,-22 (ix)
   07AA DD 77 F8      [19] 1036 	ld	-8 (ix),a
   07AD DD 7E EB      [19] 1037 	ld	a,-21 (ix)
   07B0 DD 77 F9      [19] 1038 	ld	-7 (ix),a
   07B3 DD CB EB 7E   [20] 1039 	bit	7, -21 (ix)
   07B7 28 10         [12] 1040 	jr	Z,00181$
   07B9 DD 7E E6      [19] 1041 	ld	a,-26 (ix)
   07BC C6 02         [ 7] 1042 	add	a, #0x02
   07BE DD 77 F8      [19] 1043 	ld	-8 (ix),a
   07C1 DD 7E E7      [19] 1044 	ld	a,-25 (ix)
   07C4 CE 00         [ 7] 1045 	adc	a, #0x00
   07C6 DD 77 F9      [19] 1046 	ld	-7 (ix),a
   07C9                    1047 00181$:
   07C9 DD CB F9 2E   [23] 1048 	sra	-7 (ix)
   07CD DD CB F8 1E   [23] 1049 	rr	-8 (ix)
   07D1 DD 7E F8      [19] 1050 	ld	a,-8 (ix)
   07D4 DD 86 E2      [19] 1051 	add	a, -30 (ix)
   07D7 DD 77 E2      [19] 1052 	ld	-30 (ix),a
   07DA DD 7E F9      [19] 1053 	ld	a,-7 (ix)
   07DD DD 8E E3      [19] 1054 	adc	a, -29 (ix)
   07E0 DD 77 E3      [19] 1055 	ld	-29 (ix),a
   07E3 DD 6E E2      [19] 1056 	ld	l,-30 (ix)
   07E6 DD 66 E3      [19] 1057 	ld	h,-29 (ix)
   07E9 7E            [ 7] 1058 	ld	a,(hl)
   07EA DD 77 E2      [19] 1059 	ld	-30 (ix),a
   07ED 3E 02         [ 7] 1060 	ld	a,#0x02
   07EF DD 96 E2      [19] 1061 	sub	a, -30 (ix)
   07F2 DArBCr08      [10] 1062 	jp	C,00172$
   07F5 DD 6E E8      [19] 1063 	ld	l,-24 (ix)
   07F8 DD 66 E9      [19] 1064 	ld	h,-23 (ix)
   07FB E5            [11] 1065 	push	hl
   07FC 21r01r00      [10] 1066 	ld	hl,#_sol_matriz
   07FF E5            [11] 1067 	push	hl
   0800 CDr50r00      [17] 1068 	call	_getBit
   0803 F1            [10] 1069 	pop	af
   0804 F1            [10] 1070 	pop	af
   0805 2D            [ 4] 1071 	dec	l
   0806 CArBCr08      [10] 1072 	jp	Z,00172$
                           1073 ;src/pathfinding.c:162: dist4 = abs(f_x - (x+1)) + abs(f_y - y) + heu_derecha;
   0809 DD 7E E4      [19] 1074 	ld	a,-28 (ix)
   080C DD 96 EA      [19] 1075 	sub	a, -22 (ix)
   080F 4F            [ 4] 1076 	ld	c,a
   0810 DD 7E E5      [19] 1077 	ld	a,-27 (ix)
   0813 DD 9E EB      [19] 1078 	sbc	a, -21 (ix)
   0816 47            [ 4] 1079 	ld	b,a
   0817 C5            [11] 1080 	push	bc
   0818 CDr00r00      [17] 1081 	call	_abs
   081B F1            [10] 1082 	pop	af
   081C DD 74 E3      [19] 1083 	ld	-29 (ix),h
   081F DD 75 E2      [19] 1084 	ld	-30 (ix),l
   0822 DD 6E FE      [19] 1085 	ld	l,-2 (ix)
   0825 DD 66 FF      [19] 1086 	ld	h,-1 (ix)
   0828 E5            [11] 1087 	push	hl
   0829 CDr00r00      [17] 1088 	call	_abs
   082C F1            [10] 1089 	pop	af
   082D DD 74 FF      [19] 1090 	ld	-1 (ix),h
   0830 DD 75 FE      [19] 1091 	ld	-2 (ix),l
   0833 DD 7E E2      [19] 1092 	ld	a,-30 (ix)
   0836 DD 86 FE      [19] 1093 	add	a, -2 (ix)
   0839 DD 77 E2      [19] 1094 	ld	-30 (ix),a
   083C DD 7E E3      [19] 1095 	ld	a,-29 (ix)
   083F DD 8E FF      [19] 1096 	adc	a, -1 (ix)
   0842 DD 77 E3      [19] 1097 	ld	-29 (ix),a
   0845 DD 7E E2      [19] 1098 	ld	a,-30 (ix)
   0848 DD 86 D6      [19] 1099 	add	a, -42 (ix)
   084B DD 77 D3      [19] 1100 	ld	-45 (ix),a
   084E DD 7E E3      [19] 1101 	ld	a,-29 (ix)
   0851 DD 8E D7      [19] 1102 	adc	a, -41 (ix)
   0854 DD 77 D4      [19] 1103 	ld	-44 (ix),a
                           1104 ;src/pathfinding.c:163: if(resultado == 0){
   0857 DD 7E D5      [19] 1105 	ld	a,-43 (ix)
   085A B7            [ 4] 1106 	or	a, a
   085B 20 1A         [12] 1107 	jr	NZ,00169$
                           1108 ;src/pathfinding.c:164: if(dist1 >= dist4)
   085D DD 7E D8      [19] 1109 	ld	a,-40 (ix)
   0860 DD 96 D3      [19] 1110 	sub	a, -45 (ix)
   0863 DD 7E D9      [19] 1111 	ld	a,-39 (ix)
   0866 DD 9E D4      [19] 1112 	sbc	a, -44 (ix)
   0869 E2r6Er08      [10] 1113 	jp	PO, 00347$
   086C EE 80         [ 7] 1114 	xor	a, #0x80
   086E                    1115 00347$:
   086E FArBCr08      [10] 1116 	jp	M,00172$
                           1117 ;src/pathfinding.c:165: resultado = 3;
   0871 DD 36 D5 03   [19] 1118 	ld	-43 (ix),#0x03
   0875 18 45         [12] 1119 	jr	00172$
   0877                    1120 00169$:
                           1121 ;src/pathfinding.c:166: }else if(resultado == 1){
   0877 DD 7E D5      [19] 1122 	ld	a,-43 (ix)
   087A 3D            [ 4] 1123 	dec	a
   087B 20 1A         [12] 1124 	jr	NZ,00166$
                           1125 ;src/pathfinding.c:167: if(dist2 >= dist4)
   087D DD 7E DA      [19] 1126 	ld	a,-38 (ix)
   0880 DD 96 D3      [19] 1127 	sub	a, -45 (ix)
   0883 DD 7E DB      [19] 1128 	ld	a,-37 (ix)
   0886 DD 9E D4      [19] 1129 	sbc	a, -44 (ix)
   0889 E2r8Er08      [10] 1130 	jp	PO, 00350$
   088C EE 80         [ 7] 1131 	xor	a, #0x80
   088E                    1132 00350$:
   088E FArBCr08      [10] 1133 	jp	M,00172$
                           1134 ;src/pathfinding.c:168: resultado = 3;
   0891 DD 36 D5 03   [19] 1135 	ld	-43 (ix),#0x03
   0895 18 25         [12] 1136 	jr	00172$
   0897                    1137 00166$:
                           1138 ;src/pathfinding.c:169: }else if (resultado == 2){
   0897 DD 7E D5      [19] 1139 	ld	a,-43 (ix)
   089A D6 02         [ 7] 1140 	sub	a, #0x02
   089C 20 1A         [12] 1141 	jr	NZ,00163$
                           1142 ;src/pathfinding.c:170: if(dist3 >= dist4)
   089E DD 7E DE      [19] 1143 	ld	a,-34 (ix)
   08A1 DD 96 D3      [19] 1144 	sub	a, -45 (ix)
   08A4 DD 7E DF      [19] 1145 	ld	a,-33 (ix)
   08A7 DD 9E D4      [19] 1146 	sbc	a, -44 (ix)
   08AA E2rAFr08      [10] 1147 	jp	PO, 00353$
   08AD EE 80         [ 7] 1148 	xor	a, #0x80
   08AF                    1149 00353$:
   08AF FArBCr08      [10] 1150 	jp	M,00172$
                           1151 ;src/pathfinding.c:171: resultado = 3;
   08B2 DD 36 D5 03   [19] 1152 	ld	-43 (ix),#0x03
   08B6 18 04         [12] 1153 	jr	00172$
   08B8                    1154 00163$:
                           1155 ;src/pathfinding.c:173: resultado = 3;
   08B8 DD 36 D5 03   [19] 1156 	ld	-43 (ix),#0x03
   08BC                    1157 00172$:
                           1158 ;src/pathfinding.c:177: return resultado;
   08BC DD 6E D5      [19] 1159 	ld	l,-43 (ix)
   08BF DD F9         [10] 1160 	ld	sp, ix
   08C1 DD E1         [14] 1161 	pop	ix
   08C3 C9            [10] 1162 	ret
                           1163 ;src/pathfinding.c:181: void pathFinding(u8 s_x, u8 s_y, u8 f_x, u8 f_y, TEnemy* enemy, u8* matriz){
                           1164 ;	---------------------------------
                           1165 ; Function pathFinding
                           1166 ; ---------------------------------
   08C4                    1167 _pathFinding::
   08C4 DD E5         [15] 1168 	push	ix
   08C6 DD 21 00 00   [14] 1169 	ld	ix,#0
   08CA DD 39         [15] 1170 	add	ix,sp
   08CC 21 E9 FF      [10] 1171 	ld	hl,#-23
   08CF 39            [11] 1172 	add	hl,sp
   08D0 F9            [ 6] 1173 	ld	sp,hl
                           1174 ;src/pathfinding.c:193: u16 down = ((y-ORIGEN_MAPA_Y)+2)*40*2 + x;
   08D1 DD 4E F2      [19] 1175 	ld	c,-14 (ix)
   08D4 06 00         [ 7] 1176 	ld	b,#0x00
   08D6 21 EA FF      [10] 1177 	ld	hl,#0xFFEA
   08D9 09            [11] 1178 	add	hl,bc
   08DA 5D            [ 4] 1179 	ld	e, l
   08DB 54            [ 4] 1180 	ld	d, h
   08DC 29            [11] 1181 	add	hl, hl
   08DD 29            [11] 1182 	add	hl, hl
   08DE 19            [11] 1183 	add	hl, de
   08DF 29            [11] 1184 	add	hl, hl
   08E0 29            [11] 1185 	add	hl, hl
   08E1 29            [11] 1186 	add	hl, hl
   08E2 29            [11] 1187 	add	hl, hl
   08E3 DD 5E F1      [19] 1188 	ld	e,-15 (ix)
   08E6 16 00         [ 7] 1189 	ld	d,#0x00
   08E8 19            [11] 1190 	add	hl,de
   08E9 DD 75 EB      [19] 1191 	ld	-21 (ix),l
   08EC DD 74 EC      [19] 1192 	ld	-20 (ix),h
                           1193 ;src/pathfinding.c:194: u16 up = ((y-ORIGEN_MAPA_Y)-2)*40*2 + x;
   08EF 79            [ 4] 1194 	ld	a,c
   08F0 C6 E6         [ 7] 1195 	add	a,#0xE6
   08F2 6F            [ 4] 1196 	ld	l,a
   08F3 78            [ 4] 1197 	ld	a,b
   08F4 CE FF         [ 7] 1198 	adc	a,#0xFF
   08F6 67            [ 4] 1199 	ld	h,a
   08F7 D5            [11] 1200 	push	de
   08F8 5D            [ 4] 1201 	ld	e, l
   08F9 54            [ 4] 1202 	ld	d, h
   08FA 29            [11] 1203 	add	hl, hl
   08FB 29            [11] 1204 	add	hl, hl
   08FC 19            [11] 1205 	add	hl, de
   08FD 29            [11] 1206 	add	hl, hl
   08FE 29            [11] 1207 	add	hl, hl
   08FF 29            [11] 1208 	add	hl, hl
   0900 29            [11] 1209 	add	hl, hl
   0901 D1            [10] 1210 	pop	de
   0902 19            [11] 1211 	add	hl,de
   0903 DD 75 EE      [19] 1212 	ld	-18 (ix),l
   0906 DD 74 EF      [19] 1213 	ld	-17 (ix),h
                           1214 ;src/pathfinding.c:195: u16 right = (y-ORIGEN_MAPA_Y) * 40*2 + (x+1);
   0909 79            [ 4] 1215 	ld	a,c
   090A C6 E8         [ 7] 1216 	add	a,#0xE8
   090C 4F            [ 4] 1217 	ld	c,a
   090D 78            [ 4] 1218 	ld	a,b
   090E CE FF         [ 7] 1219 	adc	a,#0xFF
   0910 47            [ 4] 1220 	ld	b,a
   0911 69            [ 4] 1221 	ld	l, c
   0912 60            [ 4] 1222 	ld	h, b
   0913 29            [11] 1223 	add	hl, hl
   0914 29            [11] 1224 	add	hl, hl
   0915 09            [11] 1225 	add	hl, bc
   0916 29            [11] 1226 	add	hl, hl
   0917 29            [11] 1227 	add	hl, hl
   0918 29            [11] 1228 	add	hl, hl
   0919 29            [11] 1229 	add	hl, hl
   091A 4D            [ 4] 1230 	ld	c,l
   091B 44            [ 4] 1231 	ld	b,h
   091C 6B            [ 4] 1232 	ld	l, e
   091D 62            [ 4] 1233 	ld	h, d
   091E 23            [ 6] 1234 	inc	hl
   091F 09            [11] 1235 	add	hl,bc
   0920 33            [ 6] 1236 	inc	sp
   0921 33            [ 6] 1237 	inc	sp
   0922 E5            [11] 1238 	push	hl
                           1239 ;src/pathfinding.c:196: u16 left = (y-ORIGEN_MAPA_Y) * 40*2 + (x-1);
   0923 1B            [ 6] 1240 	dec	de
   0924 69            [ 4] 1241 	ld	l, c
   0925 60            [ 4] 1242 	ld	h, b
   0926 19            [11] 1243 	add	hl,de
   0927 DD 75 F3      [19] 1244 	ld	-13 (ix),l
   092A DD 74 F4      [19] 1245 	ld	-12 (ix),h
                           1246 ;src/pathfinding.c:198: u8 problem = 0;
   092D DD 36 F5 00   [19] 1247 	ld	-11 (ix),#0x00
                           1248 ;src/pathfinding.c:200: x = s_x;
   0931 DD 7E 04      [19] 1249 	ld	a,4 (ix)
   0934 DD 77 F1      [19] 1250 	ld	-15 (ix),a
                           1251 ;src/pathfinding.c:202: y = s_y;
   0937 DD 7E 05      [19] 1252 	ld	a,5 (ix)
   093A DD 77 F2      [19] 1253 	ld	-14 (ix),a
                           1254 ;src/pathfinding.c:204: k = 0;
   093D DD 36 F9 00   [19] 1255 	ld	-7 (ix),#0x00
                           1256 ;src/pathfinding.c:205: aux = 1;
   0941 DD 36 F0 01   [19] 1257 	ld	-16 (ix),#0x01
                           1258 ;src/pathfinding.c:208: memset(sol_matriz, 0, (40*2*44*4)/8);
   0945 21r01r00      [10] 1259 	ld	hl,#_sol_matriz
   0948 36 00         [10] 1260 	ld	(hl), #0x00
   094A 5D            [ 4] 1261 	ld	e, l
   094B 54            [ 4] 1262 	ld	d, h
   094C 13            [ 6] 1263 	inc	de
   094D 01 DF 06      [10] 1264 	ld	bc, #0x06DF
   0950 ED B0         [21] 1265 	ldir
                           1266 ;src/pathfinding.c:209: enemy->longitud_camino = 0;
   0952 DD 7E 08      [19] 1267 	ld	a,8 (ix)
   0955 DD 77 FE      [19] 1268 	ld	-2 (ix),a
   0958 DD 7E 09      [19] 1269 	ld	a,9 (ix)
   095B DD 77 FF      [19] 1270 	ld	-1 (ix),a
   095E DD 7E FE      [19] 1271 	ld	a,-2 (ix)
   0961 C6 42         [ 7] 1272 	add	a, #0x42
   0963 DD 77 FA      [19] 1273 	ld	-6 (ix),a
   0966 DD 7E FF      [19] 1274 	ld	a,-1 (ix)
   0969 CE 01         [ 7] 1275 	adc	a, #0x01
   096B DD 77 FB      [19] 1276 	ld	-5 (ix),a
   096E DD 6E FA      [19] 1277 	ld	l,-6 (ix)
   0971 DD 66 FB      [19] 1278 	ld	h,-5 (ix)
   0974 36 00         [10] 1279 	ld	(hl),#0x00
                           1280 ;src/pathfinding.c:210: sol_tam = 1;
   0976 21r00r00      [10] 1281 	ld	hl,#_sol_tam + 0
   0979 36 01         [10] 1282 	ld	(hl), #0x01
                           1283 ;src/pathfinding.c:211: setBit(sol_matriz, (y-ORIGEN_MAPA_Y)*40*2 + x, 1);
   097B DD 7E F2      [19] 1284 	ld	a,-14 (ix)
   097E DD 77 F7      [19] 1285 	ld	-9 (ix),a
   0981 DD 36 F8 00   [19] 1286 	ld	-8 (ix),#0x00
   0985 DD 7E F7      [19] 1287 	ld	a,-9 (ix)
   0988 C6 E8         [ 7] 1288 	add	a,#0xE8
   098A DD 77 F7      [19] 1289 	ld	-9 (ix),a
   098D DD 7E F8      [19] 1290 	ld	a,-8 (ix)
   0990 CE FF         [ 7] 1291 	adc	a,#0xFF
   0992 DD 77 F8      [19] 1292 	ld	-8 (ix),a
   0995 DD 4E F7      [19] 1293 	ld	c,-9 (ix)
   0998 DD 46 F8      [19] 1294 	ld	b,-8 (ix)
   099B 69            [ 4] 1295 	ld	l, c
   099C 60            [ 4] 1296 	ld	h, b
   099D 29            [11] 1297 	add	hl, hl
   099E 29            [11] 1298 	add	hl, hl
   099F 09            [11] 1299 	add	hl, bc
   09A0 29            [11] 1300 	add	hl, hl
   09A1 29            [11] 1301 	add	hl, hl
   09A2 29            [11] 1302 	add	hl, hl
   09A3 29            [11] 1303 	add	hl, hl
   09A4 DD 75 F7      [19] 1304 	ld	-9 (ix),l
   09A7 DD 74 F8      [19] 1305 	ld	-8 (ix),h
   09AA DD 7E F1      [19] 1306 	ld	a,-15 (ix)
   09AD DD 77 FC      [19] 1307 	ld	-4 (ix),a
   09B0 DD 36 FD 00   [19] 1308 	ld	-3 (ix),#0x00
   09B4 DD 7E F7      [19] 1309 	ld	a,-9 (ix)
   09B7 DD 86 FC      [19] 1310 	add	a, -4 (ix)
   09BA DD 77 FC      [19] 1311 	ld	-4 (ix),a
   09BD DD 7E F8      [19] 1312 	ld	a,-8 (ix)
   09C0 DD 8E FD      [19] 1313 	adc	a, -3 (ix)
   09C3 DD 77 FD      [19] 1314 	ld	-3 (ix),a
   09C6 21 01 00      [10] 1315 	ld	hl,#0x0001
   09C9 E5            [11] 1316 	push	hl
   09CA DD 6E FC      [19] 1317 	ld	l,-4 (ix)
   09CD DD 66 FD      [19] 1318 	ld	h,-3 (ix)
   09D0 E5            [11] 1319 	push	hl
   09D1 21r01r00      [10] 1320 	ld	hl,#_sol_matriz
   09D4 E5            [11] 1321 	push	hl
   09D5 CDr9Br00      [17] 1322 	call	_setBit
   09D8 21 06 00      [10] 1323 	ld	hl,#6
   09DB 39            [11] 1324 	add	hl,sp
   09DC F9            [ 6] 1325 	ld	sp,hl
                           1326 ;src/pathfinding.c:212: inserted = anyadirALista(x, y);
   09DD DD 66 F2      [19] 1327 	ld	h,-14 (ix)
   09E0 DD 6E F1      [19] 1328 	ld	l,-15 (ix)
   09E3 E5            [11] 1329 	push	hl
   09E4 CDr15r01      [17] 1330 	call	_anyadirALista
   09E7 F1            [10] 1331 	pop	af
   09E8 DD 75 ED      [19] 1332 	ld	-19 (ix),l
                           1333 ;src/pathfinding.c:216: while (aux){
   09EB                    1334 00116$:
   09EB DD 7E F0      [19] 1335 	ld	a,-16 (ix)
   09EE B7            [ 4] 1336 	or	a, a
   09EF CAr92r0B      [10] 1337 	jp	Z,00118$
                           1338 ;src/pathfinding.c:217: if( (x == f_x && y == f_y) || sol_tam == 0 || inserted == 0){
   09F2 DD 7E 06      [19] 1339 	ld	a,6 (ix)
   09F5 DD 96 F1      [19] 1340 	sub	a, -15 (ix)
   09F8 20 08         [12] 1341 	jr	NZ,00114$
   09FA DD 7E 07      [19] 1342 	ld	a,7 (ix)
   09FD DD 96 F2      [19] 1343 	sub	a, -14 (ix)
   0A00 28 0C         [12] 1344 	jr	Z,00110$
   0A02                    1345 00114$:
   0A02 3Ar00r00      [13] 1346 	ld	a,(#_sol_tam + 0)
   0A05 B7            [ 4] 1347 	or	a, a
   0A06 28 06         [12] 1348 	jr	Z,00110$
   0A08 DD 7E ED      [19] 1349 	ld	a,-19 (ix)
   0A0B B7            [ 4] 1350 	or	a, a
   0A0C 20 16         [12] 1351 	jr	NZ,00111$
   0A0E                    1352 00110$:
                           1353 ;src/pathfinding.c:219: if(inserted == 0 || sol_tam == 0){
   0A0E DD 7E ED      [19] 1354 	ld	a,-19 (ix)
   0A11 B7            [ 4] 1355 	or	a, a
   0A12 28 06         [12] 1356 	jr	Z,00101$
   0A14 3Ar00r00      [13] 1357 	ld	a,(#_sol_tam + 0)
   0A17 B7            [ 4] 1358 	or	a, a
   0A18 20 04         [12] 1359 	jr	NZ,00102$
   0A1A                    1360 00101$:
                           1361 ;src/pathfinding.c:220: problem = 1;
   0A1A DD 36 F5 01   [19] 1362 	ld	-11 (ix),#0x01
   0A1E                    1363 00102$:
                           1364 ;src/pathfinding.c:223: aux = 0;
   0A1E DD 36 F0 00   [19] 1365 	ld	-16 (ix),#0x00
   0A22 18 C7         [12] 1366 	jr	00116$
   0A24                    1367 00111$:
                           1368 ;src/pathfinding.c:225: movimiento = adjacentTiles(x, y, s_x, s_y, f_x, f_y, matriz);
   0A24 DD 6E 0A      [19] 1369 	ld	l,10 (ix)
   0A27 DD 66 0B      [19] 1370 	ld	h,11 (ix)
   0A2A E5            [11] 1371 	push	hl
   0A2B DD 66 07      [19] 1372 	ld	h,7 (ix)
   0A2E DD 6E 06      [19] 1373 	ld	l,6 (ix)
   0A31 E5            [11] 1374 	push	hl
   0A32 DD 66 05      [19] 1375 	ld	h,5 (ix)
   0A35 DD 6E 04      [19] 1376 	ld	l,4 (ix)
   0A38 E5            [11] 1377 	push	hl
   0A39 DD 66 F2      [19] 1378 	ld	h,-14 (ix)
   0A3C DD 6E F1      [19] 1379 	ld	l,-15 (ix)
   0A3F E5            [11] 1380 	push	hl
   0A40 CDr53r01      [17] 1381 	call	_adjacentTiles
   0A43 F1            [10] 1382 	pop	af
   0A44 F1            [10] 1383 	pop	af
   0A45 F1            [10] 1384 	pop	af
   0A46 F1            [10] 1385 	pop	af
   0A47 5D            [ 4] 1386 	ld	e,l
                           1387 ;src/pathfinding.c:227: switch(movimiento){
   0A48 3E 04         [ 7] 1388 	ld	a,#0x04
   0A4A 93            [ 4] 1389 	sub	a, e
   0A4B 38 9E         [12] 1390 	jr	C,00116$
                           1391 ;src/pathfinding.c:233: k = k+2;
   0A4D DD 4E F9      [19] 1392 	ld	c,-7 (ix)
   0A50 0C            [ 4] 1393 	inc	c
   0A51 0C            [ 4] 1394 	inc	c
                           1395 ;src/pathfinding.c:227: switch(movimiento){
   0A52 16 00         [ 7] 1396 	ld	d,#0x00
   0A54 21r5Br0A      [10] 1397 	ld	hl,#00169$
   0A57 19            [11] 1398 	add	hl,de
   0A58 19            [11] 1399 	add	hl,de
   0A59 19            [11] 1400 	add	hl,de
   0A5A E9            [ 4] 1401 	jp	(hl)
   0A5B                    1402 00169$:
   0A5B C3r6Ar0A      [10] 1403 	jp	00104$
   0A5E C3rA1r0A      [10] 1404 	jp	00105$
   0A61 C3rD8r0A      [10] 1405 	jp	00106$
   0A64 C3r0Er0B      [10] 1406 	jp	00107$
   0A67 C3r44r0B      [10] 1407 	jp	00108$
                           1408 ;src/pathfinding.c:228: case 0:
   0A6A                    1409 00104$:
                           1410 ;src/pathfinding.c:230: setBit(sol_matriz, up, 1);
   0A6A C5            [11] 1411 	push	bc
   0A6B 21 01 00      [10] 1412 	ld	hl,#0x0001
   0A6E E5            [11] 1413 	push	hl
   0A6F DD 6E EE      [19] 1414 	ld	l,-18 (ix)
   0A72 DD 66 EF      [19] 1415 	ld	h,-17 (ix)
   0A75 E5            [11] 1416 	push	hl
   0A76 21r01r00      [10] 1417 	ld	hl,#_sol_matriz
   0A79 E5            [11] 1418 	push	hl
   0A7A CDr9Br00      [17] 1419 	call	_setBit
   0A7D 21 06 00      [10] 1420 	ld	hl,#6
   0A80 39            [11] 1421 	add	hl,sp
   0A81 F9            [ 6] 1422 	ld	sp,hl
   0A82 C1            [10] 1423 	pop	bc
                           1424 ;src/pathfinding.c:231: inserted = anyadirALista(x, y-2);
   0A83 DD 46 F2      [19] 1425 	ld	b,-14 (ix)
   0A86 05            [ 4] 1426 	dec	b
   0A87 05            [ 4] 1427 	dec	b
   0A88 C5            [11] 1428 	push	bc
   0A89 C5            [11] 1429 	push	bc
   0A8A 33            [ 6] 1430 	inc	sp
   0A8B DD 7E F1      [19] 1431 	ld	a,-15 (ix)
   0A8E F5            [11] 1432 	push	af
   0A8F 33            [ 6] 1433 	inc	sp
   0A90 CDr15r01      [17] 1434 	call	_anyadirALista
   0A93 F1            [10] 1435 	pop	af
   0A94 C1            [10] 1436 	pop	bc
   0A95 DD 75 ED      [19] 1437 	ld	-19 (ix),l
                           1438 ;src/pathfinding.c:232: y = y-1;
   0A98 DD 35 F2      [23] 1439 	dec	-14 (ix)
                           1440 ;src/pathfinding.c:233: k = k+2;
   0A9B DD 71 F9      [19] 1441 	ld	-7 (ix),c
                           1442 ;src/pathfinding.c:234: break;
   0A9E C3rEBr09      [10] 1443 	jp	00116$
                           1444 ;src/pathfinding.c:235: case 1:
   0AA1                    1445 00105$:
                           1446 ;src/pathfinding.c:237: setBit(sol_matriz, down, 1);
   0AA1 C5            [11] 1447 	push	bc
   0AA2 21 01 00      [10] 1448 	ld	hl,#0x0001
   0AA5 E5            [11] 1449 	push	hl
   0AA6 DD 6E EB      [19] 1450 	ld	l,-21 (ix)
   0AA9 DD 66 EC      [19] 1451 	ld	h,-20 (ix)
   0AAC E5            [11] 1452 	push	hl
   0AAD 21r01r00      [10] 1453 	ld	hl,#_sol_matriz
   0AB0 E5            [11] 1454 	push	hl
   0AB1 CDr9Br00      [17] 1455 	call	_setBit
   0AB4 21 06 00      [10] 1456 	ld	hl,#6
   0AB7 39            [11] 1457 	add	hl,sp
   0AB8 F9            [ 6] 1458 	ld	sp,hl
   0AB9 C1            [10] 1459 	pop	bc
                           1460 ;src/pathfinding.c:238: inserted = anyadirALista(x, y+2);
   0ABA DD 46 F2      [19] 1461 	ld	b,-14 (ix)
   0ABD 04            [ 4] 1462 	inc	b
   0ABE 04            [ 4] 1463 	inc	b
   0ABF C5            [11] 1464 	push	bc
   0AC0 C5            [11] 1465 	push	bc
   0AC1 33            [ 6] 1466 	inc	sp
   0AC2 DD 7E F1      [19] 1467 	ld	a,-15 (ix)
   0AC5 F5            [11] 1468 	push	af
   0AC6 33            [ 6] 1469 	inc	sp
   0AC7 CDr15r01      [17] 1470 	call	_anyadirALista
   0ACA F1            [10] 1471 	pop	af
   0ACB C1            [10] 1472 	pop	bc
   0ACC DD 75 ED      [19] 1473 	ld	-19 (ix),l
                           1474 ;src/pathfinding.c:239: y = y+1;
   0ACF DD 34 F2      [23] 1475 	inc	-14 (ix)
                           1476 ;src/pathfinding.c:240: k = k+2;
   0AD2 DD 71 F9      [19] 1477 	ld	-7 (ix),c
                           1478 ;src/pathfinding.c:241: break;
   0AD5 C3rEBr09      [10] 1479 	jp	00116$
                           1480 ;src/pathfinding.c:242: case 2:
   0AD8                    1481 00106$:
                           1482 ;src/pathfinding.c:244: setBit(sol_matriz, left, 1);
   0AD8 C5            [11] 1483 	push	bc
   0AD9 21 01 00      [10] 1484 	ld	hl,#0x0001
   0ADC E5            [11] 1485 	push	hl
   0ADD DD 6E F3      [19] 1486 	ld	l,-13 (ix)
   0AE0 DD 66 F4      [19] 1487 	ld	h,-12 (ix)
   0AE3 E5            [11] 1488 	push	hl
   0AE4 21r01r00      [10] 1489 	ld	hl,#_sol_matriz
   0AE7 E5            [11] 1490 	push	hl
   0AE8 CDr9Br00      [17] 1491 	call	_setBit
   0AEB 21 06 00      [10] 1492 	ld	hl,#6
   0AEE 39            [11] 1493 	add	hl,sp
   0AEF F9            [ 6] 1494 	ld	sp,hl
   0AF0 C1            [10] 1495 	pop	bc
                           1496 ;src/pathfinding.c:245: inserted = anyadirALista(x-1, y);
   0AF1 DD 46 F1      [19] 1497 	ld	b,-15 (ix)
   0AF4 05            [ 4] 1498 	dec	b
   0AF5 C5            [11] 1499 	push	bc
   0AF6 DD 7E F2      [19] 1500 	ld	a,-14 (ix)
   0AF9 F5            [11] 1501 	push	af
   0AFA 33            [ 6] 1502 	inc	sp
   0AFB C5            [11] 1503 	push	bc
   0AFC 33            [ 6] 1504 	inc	sp
   0AFD CDr15r01      [17] 1505 	call	_anyadirALista
   0B00 F1            [10] 1506 	pop	af
   0B01 C1            [10] 1507 	pop	bc
   0B02 DD 75 ED      [19] 1508 	ld	-19 (ix),l
                           1509 ;src/pathfinding.c:246: x = x-1;
   0B05 DD 70 F1      [19] 1510 	ld	-15 (ix),b
                           1511 ;src/pathfinding.c:247: k = k+2;
   0B08 DD 71 F9      [19] 1512 	ld	-7 (ix),c
                           1513 ;src/pathfinding.c:248: break;
   0B0B C3rEBr09      [10] 1514 	jp	00116$
                           1515 ;src/pathfinding.c:249: case 3:
   0B0E                    1516 00107$:
                           1517 ;src/pathfinding.c:251: setBit(sol_matriz, right, 1);
   0B0E C5            [11] 1518 	push	bc
   0B0F 21 01 00      [10] 1519 	ld	hl,#0x0001
   0B12 E5            [11] 1520 	push	hl
   0B13 DD 6E E9      [19] 1521 	ld	l,-23 (ix)
   0B16 DD 66 EA      [19] 1522 	ld	h,-22 (ix)
   0B19 E5            [11] 1523 	push	hl
   0B1A 21r01r00      [10] 1524 	ld	hl,#_sol_matriz
   0B1D E5            [11] 1525 	push	hl
   0B1E CDr9Br00      [17] 1526 	call	_setBit
   0B21 21 06 00      [10] 1527 	ld	hl,#6
   0B24 39            [11] 1528 	add	hl,sp
   0B25 F9            [ 6] 1529 	ld	sp,hl
   0B26 C1            [10] 1530 	pop	bc
                           1531 ;src/pathfinding.c:252: inserted = anyadirALista(x+1, y);
   0B27 DD 46 F1      [19] 1532 	ld	b,-15 (ix)
   0B2A 04            [ 4] 1533 	inc	b
   0B2B C5            [11] 1534 	push	bc
   0B2C DD 7E F2      [19] 1535 	ld	a,-14 (ix)
   0B2F F5            [11] 1536 	push	af
   0B30 33            [ 6] 1537 	inc	sp
   0B31 C5            [11] 1538 	push	bc
   0B32 33            [ 6] 1539 	inc	sp
   0B33 CDr15r01      [17] 1540 	call	_anyadirALista
   0B36 F1            [10] 1541 	pop	af
   0B37 C1            [10] 1542 	pop	bc
   0B38 DD 75 ED      [19] 1543 	ld	-19 (ix),l
                           1544 ;src/pathfinding.c:253: x = x+1;
   0B3B DD 70 F1      [19] 1545 	ld	-15 (ix),b
                           1546 ;src/pathfinding.c:254: k = k+2;
   0B3E DD 71 F9      [19] 1547 	ld	-7 (ix),c
                           1548 ;src/pathfinding.c:255: break;
   0B41 C3rEBr09      [10] 1549 	jp	00116$
                           1550 ;src/pathfinding.c:257: case 4:
   0B44                    1551 00108$:
                           1552 ;src/pathfinding.c:259: setBit(sol_matriz, (y-ORIGEN_MAPA_Y*40*2 + x), 1);
   0B44 DD 7E F2      [19] 1553 	ld	a, -14 (ix)
   0B47 06 00         [ 7] 1554 	ld	b, #0x00
   0B49 C6 80         [ 7] 1555 	add	a,#0x80
   0B4B 4F            [ 4] 1556 	ld	c,a
   0B4C 78            [ 4] 1557 	ld	a,b
   0B4D CE F8         [ 7] 1558 	adc	a,#0xF8
   0B4F 47            [ 4] 1559 	ld	b,a
   0B50 DD 6E F1      [19] 1560 	ld	l,-15 (ix)
   0B53 26 00         [ 7] 1561 	ld	h,#0x00
   0B55 09            [11] 1562 	add	hl,bc
   0B56 01 01 00      [10] 1563 	ld	bc,#0x0001
   0B59 C5            [11] 1564 	push	bc
   0B5A E5            [11] 1565 	push	hl
   0B5B 21r01r00      [10] 1566 	ld	hl,#_sol_matriz
   0B5E E5            [11] 1567 	push	hl
   0B5F CDr9Br00      [17] 1568 	call	_setBit
   0B62 21 06 00      [10] 1569 	ld	hl,#6
   0B65 39            [11] 1570 	add	hl,sp
   0B66 F9            [ 6] 1571 	ld	sp,hl
                           1572 ;src/pathfinding.c:261: sol_tam = sol_tam - 2;
   0B67 21r00r00      [10] 1573 	ld	hl, #_sol_tam+0
   0B6A 35            [11] 1574 	dec	(hl)
   0B6B 21r00r00      [10] 1575 	ld	hl, #_sol_tam+0
   0B6E 35            [11] 1576 	dec	(hl)
                           1577 ;src/pathfinding.c:262: k--;
   0B6F DD 4E F9      [19] 1578 	ld	c,-7 (ix)
   0B72 0D            [ 4] 1579 	dec	c
                           1580 ;src/pathfinding.c:263: y = camino[k];
   0B73 21r41r08      [10] 1581 	ld	hl,#_camino
   0B76 06 00         [ 7] 1582 	ld	b,#0x00
   0B78 09            [11] 1583 	add	hl, bc
   0B79 7E            [ 7] 1584 	ld	a,(hl)
   0B7A DD 77 F2      [19] 1585 	ld	-14 (ix),a
                           1586 ;src/pathfinding.c:264: k--;
   0B7D 79            [ 4] 1587 	ld	a,c
   0B7E C6 FF         [ 7] 1588 	add	a,#0xFF
                           1589 ;src/pathfinding.c:265: x = camino[k];
   0B80 DD 77 F9      [19] 1590 	ld	-7 (ix),a
   0B83 C6r41         [ 7] 1591 	add	a,#<(_camino)
   0B85 6F            [ 4] 1592 	ld	l,a
   0B86 3Es08         [ 7] 1593 	ld	a,#>(_camino)
   0B88 CE 00         [ 7] 1594 	adc	a, #0x00
   0B8A 67            [ 4] 1595 	ld	h,a
   0B8B 7E            [ 7] 1596 	ld	a,(hl)
   0B8C DD 77 F1      [19] 1597 	ld	-15 (ix),a
                           1598 ;src/pathfinding.c:267: }
   0B8F C3rEBr09      [10] 1599 	jp	00116$
   0B92                    1600 00118$:
                           1601 ;src/pathfinding.c:272: if(problem == 0){
   0B92 DD 7E F5      [19] 1602 	ld	a,-11 (ix)
   0B95 B7            [ 4] 1603 	or	a, a
   0B96 20 72         [12] 1604 	jr	NZ,00127$
                           1605 ;src/pathfinding.c:273: if(sol_tam < 70){
   0B98 3Ar00r00      [13] 1606 	ld	a,(#_sol_tam + 0)
   0B9B D6 46         [ 7] 1607 	sub	a, #0x46
   0B9D 30 0C         [12] 1608 	jr	NC,00120$
                           1609 ;src/pathfinding.c:274: enemy->longitud_camino = sol_tam;
   0B9F DD 6E FA      [19] 1610 	ld	l,-6 (ix)
   0BA2 DD 66 FB      [19] 1611 	ld	h,-5 (ix)
   0BA5 3Ar00r00      [13] 1612 	ld	a,(#_sol_tam + 0)
   0BA8 77            [ 7] 1613 	ld	(hl),a
   0BA9 18 08         [12] 1614 	jr	00137$
   0BAB                    1615 00120$:
                           1616 ;src/pathfinding.c:276: enemy->longitud_camino = 70;
   0BAB DD 6E FA      [19] 1617 	ld	l,-6 (ix)
   0BAE DD 66 FB      [19] 1618 	ld	h,-5 (ix)
   0BB1 36 46         [10] 1619 	ld	(hl),#0x46
                           1620 ;src/pathfinding.c:279: for(j = 0; j<70; j++){
   0BB3                    1621 00137$:
   0BB3 DD 7E FE      [19] 1622 	ld	a,-2 (ix)
   0BB6 C6 16         [ 7] 1623 	add	a, #0x16
   0BB8 DD 77 FC      [19] 1624 	ld	-4 (ix),a
   0BBB DD 7E FF      [19] 1625 	ld	a,-1 (ix)
   0BBE CE 00         [ 7] 1626 	adc	a, #0x00
   0BC0 DD 77 FD      [19] 1627 	ld	-3 (ix),a
   0BC3 DD 36 F6 00   [19] 1628 	ld	-10 (ix),#0x00
   0BC7                    1629 00125$:
                           1630 ;src/pathfinding.c:280: enemy->camino[j] = camino[j];
   0BC7 DD 7E F6      [19] 1631 	ld	a,-10 (ix)
   0BCA DD 77 F7      [19] 1632 	ld	-9 (ix),a
   0BCD DD 36 F8 00   [19] 1633 	ld	-8 (ix),#0x00
   0BD1 DD 7E FC      [19] 1634 	ld	a,-4 (ix)
   0BD4 DD 86 F7      [19] 1635 	add	a, -9 (ix)
   0BD7 DD 77 F7      [19] 1636 	ld	-9 (ix),a
   0BDA DD 7E FD      [19] 1637 	ld	a,-3 (ix)
   0BDD DD 8E F8      [19] 1638 	adc	a, -8 (ix)
   0BE0 DD 77 F8      [19] 1639 	ld	-8 (ix),a
   0BE3 3Er41         [ 7] 1640 	ld	a,#<(_camino)
   0BE5 DD 86 F6      [19] 1641 	add	a, -10 (ix)
   0BE8 DD 77 FA      [19] 1642 	ld	-6 (ix),a
   0BEB 3Es08         [ 7] 1643 	ld	a,#>(_camino)
   0BED CE 00         [ 7] 1644 	adc	a, #0x00
   0BEF DD 77 FB      [19] 1645 	ld	-5 (ix),a
   0BF2 DD 6E FA      [19] 1646 	ld	l,-6 (ix)
   0BF5 DD 66 FB      [19] 1647 	ld	h,-5 (ix)
   0BF8 4E            [ 7] 1648 	ld	c,(hl)
   0BF9 DD 6E F7      [19] 1649 	ld	l,-9 (ix)
   0BFC DD 66 F8      [19] 1650 	ld	h,-8 (ix)
   0BFF 71            [ 7] 1651 	ld	(hl),c
                           1652 ;src/pathfinding.c:279: for(j = 0; j<70; j++){
   0C00 DD 34 F6      [23] 1653 	inc	-10 (ix)
   0C03 DD 7E F6      [19] 1654 	ld	a,-10 (ix)
   0C06 D6 46         [ 7] 1655 	sub	a, #0x46
   0C08 38 BD         [12] 1656 	jr	C,00125$
   0C0A                    1657 00127$:
   0C0A DD F9         [10] 1658 	ld	sp, ix
   0C0C DD E1         [14] 1659 	pop	ix
   0C0E C9            [10] 1660 	ret
                           1661 	.area _CODE
                           1662 	.area _INITIALIZER
                           1663 	.area _CABS (ABS)
